

Microchip MPLAB XC8 Assembler V2.32 build 20210201212658 
                                                                                               Tue Nov 30 23:56:02 2021

Microchip MPLAB XC8 C Compiler v2.32 (Free license) build 20210201212658 Og1 
     1                           	processor	18F87K22
     2                           	fnconf	rparam,??,?,0
     3                           	pagewidth 120
     4                           	opt	flic
     5                           	psect	idataCOMRAM,global,class=CODE,delta=1,noexec
     6                           	psect	idataBANK0,global,class=CODE,delta=1,noexec
     7                           	psect	idataBANK1,global,class=CODE,delta=1,noexec
     8                           	psect	smallconst,global,reloc=2,class=SMALLCONST,delta=1,noexec
     9                           	psect	nvBANK0,global,class=BANK0,space=1,delta=1,lowdata,noexec
    10                           	psect	cinit,global,reloc=2,class=CODE,delta=1
    11                           	psect	bssCOMRAM,global,class=COMRAM,space=1,delta=1,lowdata,noexec
    12                           	psect	dataCOMRAM,global,class=COMRAM,space=1,delta=1,lowdata,noexec
    13                           	psect	bssBANK0,global,class=BANK0,space=1,delta=1,lowdata,noexec
    14                           	psect	dataBANK0,global,class=BANK0,space=1,delta=1,lowdata,noexec
    15                           	psect	bssBANK1,global,class=BANK1,space=1,delta=1,lowdata,noexec
    16                           	psect	dataBANK1,global,class=BANK1,space=1,delta=1,lowdata,noexec
    17                           	psect	cstackBANK1,global,class=BANK1,space=1,delta=1,lowdata,noexec
    18                           	psect	cstackBANK0,global,class=BANK0,space=1,delta=1,lowdata,noexec
    19                           	psect	cstackCOMRAM,global,class=COMRAM,space=1,delta=1,lowdata,noexec
    20                           	psect	text0,global,reloc=2,class=CODE,delta=1
    21                           	psect	text1,global,reloc=2,class=CODE,delta=1
    22                           	psect	text2,global,reloc=2,class=CODE,delta=1
    23                           	psect	text3,global,reloc=2,class=CODE,delta=1
    24                           	psect	text4,global,reloc=2,class=CODE,delta=1
    25                           	psect	text5,global,reloc=2,class=CODE,delta=1,group=3
    26                           	psect	text6,global,reloc=2,class=CODE,delta=1
    27                           	psect	text7,global,reloc=2,class=CODE,delta=1,group=3
    28                           	psect	text8,global,reloc=2,class=CODE,delta=1,group=1
    29                           	psect	text9,global,reloc=2,class=CODE,delta=1,group=1
    30                           	psect	text10,global,reloc=2,class=CODE,delta=1,group=3
    31                           	psect	text11,global,reloc=2,class=CODE,delta=1,group=1
    32                           	psect	text12,global,reloc=2,class=CODE,delta=1,group=3
    33                           	psect	text13,global,reloc=2,class=CODE,delta=1,group=3
    34                           	psect	text14,global,reloc=2,class=CODE,delta=1,group=1
    35                           	psect	text15,global,reloc=2,class=CODE,delta=1,group=3
    36                           	psect	text16,global,reloc=2,class=CODE,delta=1,group=3
    37                           	psect	text17,global,reloc=2,class=CODE,delta=1,group=3
    38                           	psect	text18,global,reloc=2,class=CODE,delta=1,group=3
    39                           	psect	text19,global,reloc=2,class=CODE,delta=1,group=3
    40                           	psect	text20,global,reloc=2,class=CODE,delta=1,group=3
    41                           	psect	text21,global,reloc=2,class=CODE,delta=1,group=2
    42                           	psect	text22,global,reloc=2,class=CODE,delta=1,group=2
    43                           	psect	text23,global,reloc=2,class=CODE,delta=1,group=2
    44                           	psect	text24,global,reloc=2,class=CODE,delta=1,group=2
    45                           	psect	text25,global,reloc=2,class=CODE,delta=1,group=2
    46                           	psect	text26,global,reloc=2,class=CODE,delta=1,group=2
    47                           	psect	text27,global,reloc=2,class=CODE,delta=1,group=2
    48                           	psect	text28,global,reloc=2,class=CODE,delta=1,group=2
    49                           	psect	text29,global,reloc=2,class=CODE,delta=1,group=2
    50                           	psect	text30,global,reloc=2,class=CODE,delta=1,group=2
    51                           	psect	text31,global,reloc=2,class=CODE,delta=1,group=3
    52                           	psect	text32,global,reloc=2,class=CODE,delta=1,group=3
    53                           	psect	text33,global,reloc=2,class=CODE,delta=1,group=3
    54                           	psect	text34,global,reloc=2,class=CODE,delta=1,group=2
    55                           	psect	text35,global,reloc=2,class=CODE,delta=1
    56                           	psect	text36,global,reloc=2,class=CODE,delta=1,group=2
    57                           	psect	text37,global,reloc=2,class=CODE,delta=1
    58                           	psect	text38,global,reloc=2,class=CODE,delta=1
    59                           	psect	text39,global,reloc=2,class=CODE,delta=1,group=3
    60                           	psect	text40,global,reloc=2,class=CODE,delta=1
    61                           	psect	text41,global,reloc=2,class=CODE,delta=1
    62                           	psect	text42,global,reloc=2,class=CODE,delta=1
    63                           	psect	intcodelo,global,reloc=2,class=CODE,delta=1
    64                           	psect	text44,global,reloc=2,class=CODE,delta=1
    65                           	psect	text45,global,reloc=2,class=CODE,delta=1
    66                           	psect	text46,global,reloc=2,class=CODE,delta=1
    67                           	psect	text47,global,reloc=2,class=CODE,delta=1
    68                           	psect	text48,global,reloc=2,class=CODE,delta=1
    69                           	psect	text49,global,reloc=2,class=CODE,delta=1
    70                           	psect	text50,global,reloc=2,class=CODE,delta=1
    71                           	psect	intcode,global,reloc=2,class=CODE,delta=1
    72                           	psect	intcode_body,global,reloc=2,class=CODE,delta=1
    73                           	psect	text52,global,reloc=2,class=CODE,delta=1
    74                           	psect	text53,global,reloc=2,class=CODE,delta=1
    75                           	psect	intsave_regs,global,class=BIGRAM,space=1,delta=1,noexec
    76                           	psect	rparam,global,class=COMRAM,space=1,delta=1,noexec
    77                           	psect	temp,global,ovrld,common,class=COMRAM,space=1,delta=1
    78                           	psect	idloc,global,abs,ovrld,class=IDLOC,space=5,delta=1,noexec
    79                           	psect	config,global,abs,ovrld,class=CONFIG,space=4,delta=1,noexec
    80  0000                     
    81                           ; Version 2.20
    82                           ; Generated 05/05/2020 GMT
    83                           ; 
    84                           ; Copyright © 2020, Microchip Technology Inc. and its subsidiaries ("Microchip")
    85                           ; All rights reserved.
    86                           ; 
    87                           ; This software is developed by Microchip Technology Inc. and its subsidiaries ("Microch
      +                          ip").
    88                           ; 
    89                           ; Redistribution and use in source and binary forms, with or without modification, are
    90                           ; permitted provided that the following conditions are met:
    91                           ; 
    92                           ;     1. Redistributions of source code must retain the above copyright notice, this lis
      +                          t of
    93                           ;        conditions and the following disclaimer.
    94                           ; 
    95                           ;     2. Redistributions in binary form must reproduce the above copyright notice, this 
      +                          list
    96                           ;        of conditions and the following disclaimer in the documentation and/or other
    97                           ;        materials provided with the distribution.
    98                           ; 
    99                           ;     3. Microchip's name may not be used to endorse or promote products derived from th
      +                          is
   100                           ;        software without specific prior written permission.
   101                           ; 
   102                           ; THIS SOFTWARE IS PROVIDED BY MICROCHIP "AS IS" AND ANY EXPRESS OR IMPLIED WARRANTIES,
   103                           ; INCLUDING, BUT NOT LIMITED TO, THE IMPLIED WARRANTIES OF MERCHANTABILITY AND FITNESS F
      +                          OR
   104                           ; PURPOSE ARE DISCLAIMED.  IN NO EVENT SHALL MICROCHIP BE LIABLE FOR ANY DIRECT, INDIREC
      +                          T,
   105                           ; INCIDENTAL, SPECIAL, EXEMPLARY, OR CONSEQUENTIAL DAMAGES (INCLUDING BUT NOT LIMITED TO
   106                           ; PROCUREMENT OF SUBSTITUTE GOODS OR SERVICES; LOSS OF USE, DATA OR PROFITS; OR BUSINESS
   107                           ; INTERRUPTION) HOWSOEVER CAUSED AND ON ANY THEORY OF LIABILITY, WHETHER IN CONTRACT, ST
      +                          RICT
   108                           ; LIABILITY, OR TORT (INCLUDING NEGLIGENCE OR OTHERWISE) ARISING IN ANY WAY OUT OF THE U
      +                          SE OF
   109                           ; THIS SOFTWARE, EVEN IF ADVISED OF THE POSSIBILITY OF SUCH DAMAGE.
   110                           ; 
   111                           ; 
   112                           ; Code-generator required, PIC18F87K22 Definitions
   113                           ; 
   114                           ; SFR Addresses
   115  0000                     
   116                           	psect	idataCOMRAM
   117  004A1C                     __pidataCOMRAM:
   118                           	callstack 0
   119                           
   120                           ;initializer for _LED_count
   121  004A1C  01                 	db	1
   122                           
   123                           	psect	idataBANK0
   124  0049B4                     __pidataBANK0:
   125                           	callstack 0
   126                           
   127                           ;initializer for _timeOFF
   128  0049B4  EE80               	dw	61056
   129  0049B6  0036               	dw	54
   130                           
   131                           ;initializer for _timeON
   132  0049B8  1A80               	dw	6784
   133  0049BA  0006               	dw	6
   134                           
   135                           ;initializer for _DACData
   136  0049BC  3000               	dw	12288
   137                           
   138                           ;initializer for _firstread
   139  0049BE  01                 	db	1
   140                           
   141                           ;initializer for _potLCD
   142  0049BF  30                 	db	48
   143  0049C0  30                 	db	48
   144  0049C1  30                 	db	48
   145  0049C2  00                 	db	0
   146  0049C3  00                 	db	0
   147  0049C4  00                 	db	0
   148                           
   149                           ;initializer for _tempLCD
   150  0049C5  30                 	db	48
   151  0049C6  30                 	db	48
   152  0049C7  30                 	db	48
   153  0049C8  00                 	db	0
   154  0049C9  00                 	db	0
   155  0049CA  00                 	db	0
   156                           
   157                           	psect	idataBANK1
   158  0045AE                     __pidataBANK1:
   159                           	callstack 0
   160                           
   161                           ;initializer for _contSend
   162  0045AE  54                 	db	84
   163  0045AF  3D                 	db	61
   164  0045B0  30                 	db	48
   165  0045B1  30                 	db	48
   166  0045B2  2E                 	db	46
   167  0045B3  30                 	db	48
   168  0045B4  43                 	db	67
   169  0045B5  3B                 	db	59
   170  0045B6  20                 	db	32
   171  0045B7  50                 	db	80
   172  0045B8  54                 	db	84
   173  0045B9  3D                 	db	61
   174  0045BA  30                 	db	48
   175  0045BB  2E                 	db	46
   176  0045BC  30                 	db	48
   177  0045BD  30                 	db	48
   178  0045BE  56                 	db	86
   179  0045BF  0A                 	db	10
   180  0045C0  00                 	db	0
   181                           
   182                           ;initializer for _potSend
   183  0045C1  30                 	db	48
   184  0045C2  2E                 	db	46
   185  0045C3  30                 	db	48
   186  0045C4  30                 	db	48
   187  0045C5  56                 	db	86
   188  0045C6  0A                 	db	10
   189  0045C7  00                 	db	0
   190                           
   191                           ;initializer for _tempSend
   192  0045C8  30                 	db	48
   193  0045C9  30                 	db	48
   194  0045CA  2E                 	db	46
   195  0045CB  30                 	db	48
   196  0045CC  43                 	db	67
   197  0045CD  0A                 	db	10
   198  0045CE  00                 	db	0
   199                           
   200                           ;initializer for _checkCONTOFF
   201  0045CF  43                 	db	67
   202  0045D0  4F                 	db	79
   203  0045D1  4E                 	db	78
   204  0045D2  54                 	db	84
   205  0045D3  5F                 	db	95
   206  0045D4  4F                 	db	79
   207  0045D5  46                 	db	70
   208  0045D6  46                 	db	70
   209  0045D7  0A                 	db	10
   210  0045D8  00                 	db	0
   211                           
   212                           ;initializer for _checkCONTON
   213  0045D9  43                 	db	67
   214  0045DA  4F                 	db	79
   215  0045DB  4E                 	db	78
   216  0045DC  54                 	db	84
   217  0045DD  5F                 	db	95
   218  0045DE  4F                 	db	79
   219  0045DF  4E                 	db	78
   220  0045E0  0A                 	db	10
   221  0045E1  00                 	db	0
   222  0045E2  00                 	db	0
   223                           
   224                           ;initializer for _checkPOT
   225  0045E3  50                 	db	80
   226  0045E4  4F                 	db	79
   227  0045E5  54                 	db	84
   228  0045E6  0A                 	db	10
   229  0045E7  00                 	db	0
   230  0045E8  00                 	db	0
   231  0045E9  00                 	db	0
   232  0045EA  00                 	db	0
   233  0045EB  00                 	db	0
   234  0045EC  00                 	db	0
   235                           
   236                           ;initializer for _checkTEMP
   237  0045ED  54                 	db	84
   238  0045EE  45                 	db	69
   239  0045EF  4D                 	db	77
   240  0045F0  50                 	db	80
   241  0045F1  0A                 	db	10
   242  0045F2  00                 	db	0
   243  0045F3  00                 	db	0
   244  0045F4  00                 	db	0
   245  0045F5  00                 	db	0
   246  0045F6  00                 	db	0
   247                           
   248                           ;initializer for _row2LCD
   249  0045F7  C0                 	db	192
   250  0045F8  50                 	db	80
   251  0045F9  54                 	db	84
   252  0045FA  3D                 	db	61
   253  0045FB  30                 	db	48
   254  0045FC  2E                 	db	46
   255  0045FD  30                 	db	48
   256  0045FE  30                 	db	48
   257  0045FF  56                 	db	86
   258  004600  00                 	db	0
   259                           
   260                           ;initializer for _row1LCD
   261  004601  80                 	db	128
   262  004602  54                 	db	84
   263  004603  3D                 	db	61
   264  004604  30                 	db	48
   265  004605  30                 	db	48
   266  004606  2E                 	db	46
   267  004607  30                 	db	48
   268  004608  43                 	db	67
   269  004609  00                 	db	0
   270                           
   271                           	psect	smallconst
   272  001000                     __psmallconst:
   273                           	callstack 0
   274  001000  00                 	db	0
   275  001001  0F42               	dw	3906
   276  001003                     __end_of_DACInterval:
   277                           	callstack 0
   278  001003                     _LCDInitStr_:
   279                           	callstack 0
   280  001003  33                 	db	51
   281  001004  32                 	db	50
   282  001005  28                 	db	40
   283  001006  0C                 	db	12
   284  001007  01                 	db	1
   285  001008  06                 	db	6
   286  001009  00                 	db	0
   287  00100A                     __end_of_LCDInitStr_:
   288                           	callstack 0
   289  00100A                     STR_2:
   290  00100A  25                 	db	37
   291  00100B  32                 	db	50	;'2'
   292  00100C  2E                 	db	46
   293  00100D  31                 	db	49	;'1'
   294  00100E  66                 	db	102	;'f'
   295  00100F  00                 	db	0
   296  001010                     STR_1:
   297  001010  25                 	db	37
   298  001011  31                 	db	49	;'1'
   299  001012  2E                 	db	46
   300  001013  32                 	db	50	;'2'
   301  001014  66                 	db	102	;'f'
   302  001015  00                 	db	0
   303  001016                     STR_3:
   304  001016  49                 	db	73	;'I'
   305  001017  4E                 	db	78	;'N'
   306  001018  46                 	db	70	;'F'
   307  001019  00                 	db	0
   308  00101A                     STR_7:
   309  00101A  4E                 	db	78	;'N'
   310  00101B  41                 	db	65	;'A'
   311  00101C  4E                 	db	78	;'N'
   312  00101D  00                 	db	0
   313  00101E                     STR_4:
   314  00101E  69                 	db	105	;'i'
   315  00101F  6E                 	db	110	;'n'
   316  001020  66                 	db	102	;'f'
   317  001021  00                 	db	0
   318  001022                     STR_8:
   319  001022  6E                 	db	110	;'n'
   320  001023  61                 	db	97	;'a'
   321  001024  6E                 	db	110	;'n'
   322  001025  00                 	db	0
   323  001026                     STR_11:
   324  001026  6C                 	db	108	;'l'
   325  001027  66                 	db	102	;'f'
   326  001028  00                 	db	0
   327  001029  00                 	db	0	; dummy byte at the end
   328  0000                     
   329                           	psect	nvBANK0
   330  0000FA                     __pnvBANK0:
   331                           	callstack 0
   332  0000FA                     _currentCCPR3:
   333                           	callstack 0
   334  0000FA                     	ds	4
   335  0000FE                     _CCPR3X:
   336                           	callstack 0
   337  0000FE                     	ds	1
   338  0000                     _CCPR3	set	3914
   339  0000                     _CCPR3L	set	3914
   340  0000                     _CCPR3H	set	3915
   341  0000                     _CCP3CON	set	3913
   342  0000                     _CCPTMRS0bits	set	3885
   343  0000                     _ANCON2	set	3875
   344  0000                     _ANCON1	set	3876
   345  0000                     _ANCON0	set	3877
   346  0000                     _ADRES	set	4035
   347  0000                     _CCPR1	set	4028
   348  0000                     _LATAbits	set	3977
   349  0000                     _SSP1BUF	set	4041
   350  0000                     _TXREG1	set	4013
   351  0000                     _RCREG1	set	4014
   352  0000                     _T3CONbits	set	4017
   353  0000                     _T1CONbits	set	4045
   354  0000                     _LATDbits	set	3980
   355  0000                     _RCSTA1bits	set	4011
   356  0000                     _ADCON0bits	set	4034
   357  0000                     _T0CONbits	set	4053
   358  0000                     _PIR4bits	set	4023
   359  0000                     _PIE4bits	set	4022
   360  0000                     _IPR4bits	set	4024
   361  0000                     _PIR3bits	set	4004
   362  0000                     _PIE3bits	set	4003
   363  0000                     _IPR3bits	set	4005
   364  0000                     _PIR2bits	set	4001
   365  0000                     _PIE2bits	set	4000
   366  0000                     _IPR2bits	set	4002
   367  0000                     _PIR1bits	set	3998
   368  0000                     _PIE1bits	set	3997
   369  0000                     _IPR1bits	set	3999
   370  0000                     _INTCON2bits	set	4081
   371  0000                     _INTCONbits	set	4082
   372  0000                     _RCONbits	set	4048
   373  0000                     _SSP1CON1bits	set	4038
   374  0000                     _SSP1STATbits	set	4039
   375  0000                     _SPBRG1	set	4015
   376  0000                     _BAUDCON1	set	3941
   377  0000                     _RCSTA1	set	4011
   378  0000                     _TXSTA1	set	4012
   379  0000                     _CCP1CON	set	4027
   380  0000                     _T3CON	set	4017
   381  0000                     _T1CON	set	4045
   382  0000                     _TMR0L	set	4054
   383  0000                     _TMR0H	set	4055
   384  0000                     _T0CON	set	4053
   385  0000                     _ADCON2	set	4032
   386  0000                     _ADCON1bits	set	4033
   387  0000                     _ADCON0	set	4034
   388  0000                     _TRISB	set	3987
   389  0000                     _TRISBbits	set	3987
   390  0000                     _LATEbits	set	3981
   391  0000                     _TRISE	set	3990
   392  0000                     _LATC	set	3979
   393  0000                     _TRISC	set	3988
   394  0000                     _LATD	set	3980
   395  0000                     _TRISD	set	3989
   396  0000                     _LATA	set	3977
   397  0000                     _TRISA	set	3986
   398  0000                     _PORTB	set	3969
   399  0000                     _LATB	set	3978
   400  0000                     _LATBbits	set	3978
   401                           
   402                           ; #config settings
   403                           
   404                           	psect	cinit
   405  0042CE                     __pcinit:
   406                           	callstack 0
   407  0042CE                     start_initialization:
   408                           	callstack 0
   409  0042CE                     __initialization:
   410                           	callstack 0
   411                           
   412                           ; Initialize objects allocated to BANK1 (92 bytes)
   413                           ; load TBLPTR registers with __pidataBANK1
   414  0042CE  0EAE               	movlw	low __pidataBANK1
   415  0042D0  6EF6               	movwf	tblptrl,c
   416  0042D2  0E45               	movlw	high __pidataBANK1
   417  0042D4  6EF7               	movwf	tblptrh,c
   418  0042D6  0E00               	movlw	low (__pidataBANK1 shr (0+16))
   419  0042D8  6EF8               	movwf	tblptru,c
   420  0042DA  EE01  F066         	lfsr	0,__pdataBANK1
   421  0042DE  EE10 F05C          	lfsr	1,92
   422  0042E2                     copy_data0:
   423  0042E2  0009               	tblrd		*+
   424  0042E4  CFF5 FFEE          	movff	tablat,postinc0
   425  0042E8  50E5               	movf	postdec1,w,c
   426  0042EA  50E1               	movf	fsr1l,w,c
   427  0042EC  E1FA               	bnz	copy_data0
   428                           
   429                           ; Initialize objects allocated to BANK0 (23 bytes)
   430                           ; load TBLPTR registers with __pidataBANK0
   431  0042EE  0EB4               	movlw	low __pidataBANK0
   432  0042F0  6EF6               	movwf	tblptrl,c
   433  0042F2  0E49               	movlw	high __pidataBANK0
   434  0042F4  6EF7               	movwf	tblptrh,c
   435  0042F6  0E00               	movlw	low (__pidataBANK0 shr (0+16))
   436  0042F8  6EF8               	movwf	tblptru,c
   437  0042FA  EE00  F0E3         	lfsr	0,__pdataBANK0
   438  0042FE  EE10 F017          	lfsr	1,23
   439  004302                     copy_data1:
   440  004302  0009               	tblrd		*+
   441  004304  CFF5 FFEE          	movff	tablat,postinc0
   442  004308  50E5               	movf	postdec1,w,c
   443  00430A  50E1               	movf	fsr1l,w,c
   444  00430C  E1FA               	bnz	copy_data1
   445                           
   446                           ; Initialize objects allocated to COMRAM (1 bytes)
   447                           ; load TBLPTR registers with __pidataCOMRAM
   448  00430E  0E1C               	movlw	low __pidataCOMRAM
   449  004310  6EF6               	movwf	tblptrl,c
   450  004312  0E4A               	movlw	high __pidataCOMRAM
   451  004314  6EF7               	movwf	tblptrh,c
   452  004316  0E00               	movlw	low (__pidataCOMRAM shr (0+16))
   453  004318  6EF8               	movwf	tblptru,c
   454  00431A  0009               	tblrd		*+	;fetch initializer
   455  00431C  CFF5 F056          	movff	tablat,__pdataCOMRAM
   456                           
   457                           ; Clear objects allocated to BANK1 (102 bytes)
   458  004320  EE01  F000         	lfsr	0,__pbssBANK1
   459  004324  0E66               	movlw	102
   460  004326                     clear_0:
   461  004326  6AEE               	clrf	postinc0,c
   462  004328  06E8               	decf	wreg,f,c
   463  00432A  E1FD               	bnz	clear_0
   464                           
   465                           ; Clear objects allocated to BANK0 (43 bytes)
   466  00432C  EE00  F0B8         	lfsr	0,__pbssBANK0
   467  004330  0E2B               	movlw	43
   468  004332                     clear_1:
   469  004332  6AEE               	clrf	postinc0,c
   470  004334  06E8               	decf	wreg,f,c
   471  004336  E1FD               	bnz	clear_1
   472                           
   473                           ; Clear objects allocated to COMRAM (7 bytes)
   474  004338  EE00  F04F         	lfsr	0,__pbssCOMRAM
   475  00433C  0E07               	movlw	7
   476  00433E                     clear_2:
   477  00433E  6AEE               	clrf	postinc0,c
   478  004340  06E8               	decf	wreg,f,c
   479  004342  E1FD               	bnz	clear_2
   480  004344                     end_of_initialization:
   481                           	callstack 0
   482  004344                     __end_of__initialization:
   483                           	callstack 0
   484  004344  9057               	bcf	int$flags,0,c	;clear compiler interrupt flag (level 1)
   485  004346  9257               	bcf	int$flags,1,c	;clear compiler interrupt flag (level 2)
   486  004348  0100               	movlb	0
   487  00434A  EF1A  F021         	goto	_main	;jump to C main() function
   488                           
   489                           	psect	bssCOMRAM
   490  00004F                     __pbssCOMRAM:
   491                           	callstack 0
   492  00004F                     _prec:
   493                           	callstack 0
   494  00004F                     	ds	2
   495  000051                     _flags:
   496                           	callstack 0
   497  000051                     	ds	2
   498  000053                     _i:
   499                           	callstack 0
   500  000053                     	ds	1
   501  000054                     _sendI:
   502                           	callstack 0
   503  000054                     	ds	1
   504  000055                     _sendPOT:
   505                           	callstack 0
   506  000055                     	ds	1
   507                           
   508                           	psect	dataCOMRAM
   509  000056                     __pdataCOMRAM:
   510                           	callstack 0
   511  000056                     _LED_count:
   512                           	callstack 0
   513  000056                     	ds	1
   514                           
   515                           	psect	bssBANK0
   516  0000B8                     __pbssBANK0:
   517                           	callstack 0
   518  0000B8                     _pot:
   519                           	callstack 0
   520  0000B8                     	ds	4
   521  0000BC                     _temp:
   522                           	callstack 0
   523  0000BC                     	ds	4
   524  0000C0                     _nout:
   525                           	callstack 0
   526  0000C0                     	ds	2
   527  0000C2                     _width:
   528                           	callstack 0
   529  0000C2                     	ds	2
   530  0000C4                     _DACTempSend:
   531                           	callstack 0
   532  0000C4                     	ds	2
   533  0000C6                     _DACTemp:
   534                           	callstack 0
   535  0000C6                     	ds	2
   536  0000C8                     _currentBin:
   537                           	callstack 0
   538  0000C8                     	ds	2
   539  0000CA                     _trash:
   540                           	callstack 0
   541  0000CA                     	ds	2
   542  0000CC                     _potentiometer:
   543                           	callstack 0
   544  0000CC                     	ds	2
   545  0000CE                     _temperature:
   546                           	callstack 0
   547  0000CE                     	ds	2
   548  0000D0                     _DTIMEDACH:
   549                           	callstack 0
   550  0000D0                     	ds	1
   551  0000D1                     _DTIMEDACL:
   552                           	callstack 0
   553  0000D1                     	ds	1
   554  0000D2                     _trashSPI:
   555                           	callstack 0
   556  0000D2                     	ds	1
   557  0000D3                     _upDown:
   558                           	callstack 0
   559  0000D3                     	ds	1
   560  0000D4                     _TMR3X:
   561                           	callstack 0
   562  0000D4                     	ds	1
   563  0000D5                     _DTIMEOFFX:
   564                           	callstack 0
   565  0000D5                     	ds	1
   566  0000D6                     _DTIMEOFFH:
   567                           	callstack 0
   568  0000D6                     	ds	1
   569  0000D7                     _DTIMEOFFL:
   570                           	callstack 0
   571  0000D7                     	ds	1
   572  0000D8                     _DTIMEONX:
   573                           	callstack 0
   574  0000D8                     	ds	1
   575  0000D9                     _DTIMEONH:
   576                           	callstack 0
   577  0000D9                     	ds	1
   578  0000DA                     _DTIMEONL:
   579                           	callstack 0
   580  0000DA                     	ds	1
   581  0000DB                     _rxFin:
   582                           	callstack 0
   583  0000DB                     	ds	1
   584  0000DC                     _byteToSend:
   585                           	callstack 0
   586  0000DC                     	ds	1
   587  0000DD                     _temporary:
   588                           	callstack 0
   589  0000DD                     	ds	1
   590  0000DE                     _sendERROR:
   591                           	callstack 0
   592  0000DE                     	ds	1
   593  0000DF                     _sendCONT:
   594                           	callstack 0
   595  0000DF                     	ds	1
   596  0000E0                     _sendTEMP:
   597                           	callstack 0
   598  0000E0                     	ds	1
   599  0000E1                     _sensor:
   600                           	callstack 0
   601  0000E1                     	ds	1
   602  0000E2                     _oldLATD:
   603                           	callstack 0
   604  0000E2                     	ds	1
   605                           
   606                           	psect	dataBANK0
   607  0000E3                     __pdataBANK0:
   608                           	callstack 0
   609  0000E3                     _timeOFF:
   610                           	callstack 0
   611  0000E3                     	ds	4
   612  0000E7                     _timeON:
   613                           	callstack 0
   614  0000E7                     	ds	4
   615  0000EB                     _DACData:
   616                           	callstack 0
   617  0000EB                     	ds	2
   618  0000ED                     _firstread:
   619                           	callstack 0
   620  0000ED                     	ds	1
   621  0000EE                     _potLCD:
   622                           	callstack 0
   623  0000EE                     	ds	6
   624  0000F4                     _tempLCD:
   625                           	callstack 0
   626  0000F4                     	ds	6
   627                           
   628                           	psect	bssBANK1
   629  000100                     __pbssBANK1:
   630                           	callstack 0
   631  000100                     floorf@F527:
   632                           	callstack 0
   633  000100                     	ds	4
   634  000104                     ___fpclassifyf@F465:
   635                           	callstack 0
   636  000104                     	ds	4
   637  000108                     _currentTMR3:
   638                           	callstack 0
   639  000108                     	ds	4
   640  00010C                     _dbuf:
   641                           	callstack 0
   642  00010C                     	ds	80
   643  00015C                     _buffer:
   644                           	callstack 0
   645  00015C                     	ds	10
   646                           
   647                           	psect	dataBANK1
   648  000166                     __pdataBANK1:
   649                           	callstack 0
   650  000166                     _contSend:
   651                           	callstack 0
   652  000166                     	ds	19
   653  000179                     _potSend:
   654                           	callstack 0
   655  000179                     	ds	7
   656  000180                     _tempSend:
   657                           	callstack 0
   658  000180                     	ds	7
   659  000187                     _checkCONTOFF:
   660                           	callstack 0
   661  000187                     	ds	10
   662  000191                     _checkCONTON:
   663                           	callstack 0
   664  000191                     	ds	10
   665  00019B                     _checkPOT:
   666                           	callstack 0
   667  00019B                     	ds	10
   668  0001A5                     _checkTEMP:
   669                           	callstack 0
   670  0001A5                     	ds	10
   671  0001AF                     _row2LCD:
   672                           	callstack 0
   673  0001AF                     	ds	10
   674  0001B9                     _row1LCD:
   675                           	callstack 0
   676  0001B9                     	ds	9
   677                           
   678                           	psect	cstackBANK1
   679  0001C2                     __pcstackBANK1:
   680                           	callstack 0
   681  0001C2                     sprintf@ap:
   682                           	callstack 0
   683                           
   684                           ; 2 bytes @ 0x0
   685  0001C2                     	ds	2
   686  0001C4                     sprintf@f:
   687                           	callstack 0
   688                           
   689                           ; 6 bytes @ 0x2
   690  0001C4                     	ds	6
   691                           
   692                           	psect	cstackBANK0
   693  000060                     __pcstackBANK0:
   694                           	callstack 0
   695  000060                     _efgtoa$2300:
   696                           	callstack 0
   697                           
   698                           ; 2 bytes @ 0x0
   699  000060                     	ds	2
   700  000062                     _efgtoa$2301:
   701                           	callstack 0
   702                           
   703                           ; 2 bytes @ 0x2
   704  000062                     	ds	2
   705  000064                     _efgtoa$2306:
   706                           	callstack 0
   707                           
   708                           ; 2 bytes @ 0x4
   709  000064                     	ds	2
   710  000066                     _efgtoa$2310:
   711                           	callstack 0
   712                           
   713                           ; 2 bytes @ 0x6
   714  000066                     	ds	2
   715  000068                     _efgtoa$2311:
   716                           	callstack 0
   717                           
   718                           ; 2 bytes @ 0x8
   719  000068                     	ds	2
   720  00006A                     _efgtoa$2312:
   721                           	callstack 0
   722                           
   723                           ; 2 bytes @ 0xA
   724  00006A                     	ds	2
   725  00006C                     efgtoa@t:
   726                           	callstack 0
   727                           
   728                           ; 2 bytes @ 0xC
   729  00006C                     	ds	2
   730  00006E                     efgtoa@pp:
   731                           	callstack 0
   732                           
   733                           ; 2 bytes @ 0xE
   734  00006E                     	ds	2
   735  000070                     efgtoa@ne:
   736                           	callstack 0
   737                           
   738                           ; 2 bytes @ 0x10
   739  000070                     	ds	2
   740  000072                     efgtoa@m:
   741                           	callstack 0
   742                           
   743                           ; 2 bytes @ 0x12
   744  000072                     	ds	2
   745  000074                     efgtoa@ou:
   746                           	callstack 0
   747                           
   748                           ; 4 bytes @ 0x14
   749  000074                     	ds	4
   750  000078                     efgtoa@d:
   751                           	callstack 0
   752                           
   753                           ; 2 bytes @ 0x18
   754  000078                     	ds	2
   755  00007A                     efgtoa@sign:
   756                           	callstack 0
   757                           
   758                           ; 2 bytes @ 0x1A
   759  00007A                     	ds	2
   760  00007C                     efgtoa@p:
   761                           	callstack 0
   762                           
   763                           ; 2 bytes @ 0x1C
   764  00007C                     	ds	2
   765  00007E                     efgtoa@w:
   766                           	callstack 0
   767                           
   768                           ; 2 bytes @ 0x1E
   769  00007E                     	ds	2
   770  000080                     efgtoa@nmode:
   771                           	callstack 0
   772                           
   773                           ; 1 bytes @ 0x20
   774  000080                     	ds	1
   775  000081                     efgtoa@mode:
   776                           	callstack 0
   777                           
   778                           ; 1 bytes @ 0x21
   779  000081                     	ds	1
   780  000082                     efgtoa@h:
   781                           	callstack 0
   782                           
   783                           ; 4 bytes @ 0x22
   784  000082                     	ds	4
   785  000086                     efgtoa@l:
   786                           	callstack 0
   787                           
   788                           ; 4 bytes @ 0x26
   789  000086                     	ds	4
   790  00008A                     efgtoa@i:
   791                           	callstack 0
   792                           
   793                           ; 2 bytes @ 0x2A
   794  00008A                     	ds	2
   795  00008C                     efgtoa@g:
   796                           	callstack 0
   797                           
   798                           ; 4 bytes @ 0x2C
   799  00008C                     	ds	4
   800  000090                     efgtoa@e:
   801                           	callstack 0
   802                           
   803                           ; 2 bytes @ 0x30
   804  000090                     	ds	2
   805  000092                     efgtoa@n:
   806                           	callstack 0
   807                           
   808                           ; 2 bytes @ 0x32
   809  000092                     	ds	2
   810  000094                     efgtoa@u:
   811                           	callstack 0
   812                           
   813                           ; 4 bytes @ 0x34
   814  000094                     	ds	4
   815  000098                     ??_vfpfcnvrt:
   816                           
   817                           ; 1 bytes @ 0x38
   818  000098                     	ds	4
   819  00009C                     _vfpfcnvrt$2326:
   820                           	callstack 0
   821                           
   822                           ; 2 bytes @ 0x3C
   823  00009C                     	ds	2
   824  00009E                     _vfpfcnvrt$2327:
   825                           	callstack 0
   826                           
   827                           ; 2 bytes @ 0x3E
   828  00009E                     	ds	2
   829  0000A0                     _vfpfcnvrt$2331:
   830                           	callstack 0
   831                           
   832                           ; 2 bytes @ 0x40
   833  0000A0                     	ds	2
   834  0000A2                     vfpfcnvrt@f:
   835                           	callstack 0
   836                           
   837                           ; 4 bytes @ 0x42
   838  0000A2                     	ds	4
   839  0000A6                     vfpfcnvrt@ct:
   840                           	callstack 0
   841                           
   842                           ; 3 bytes @ 0x46
   843  0000A6                     	ds	3
   844  0000A9                     vfpfcnvrt@c:
   845                           	callstack 0
   846                           
   847                           ; 1 bytes @ 0x49
   848  0000A9                     	ds	1
   849  0000AA                     ?_vfprintf:
   850                           	callstack 0
   851  0000AA                     vfprintf@fp:
   852                           	callstack 0
   853                           
   854                           ; 2 bytes @ 0x4A
   855  0000AA                     	ds	2
   856  0000AC                     vfprintf@fmt:
   857                           	callstack 0
   858                           
   859                           ; 2 bytes @ 0x4C
   860  0000AC                     	ds	2
   861  0000AE                     vfprintf@ap:
   862                           	callstack 0
   863                           
   864                           ; 2 bytes @ 0x4E
   865  0000AE                     	ds	2
   866  0000B0                     ?_sprintf:
   867                           	callstack 0
   868  0000B0                     sprintf@s:
   869                           	callstack 0
   870                           
   871                           ; 2 bytes @ 0x50
   872  0000B0                     	ds	2
   873  0000B2                     sprintf@fmt:
   874                           	callstack 0
   875                           
   876                           ; 2 bytes @ 0x52
   877  0000B2                     	ds	6
   878                           
   879                           	psect	cstackCOMRAM
   880  000001                     __pcstackCOMRAM:
   881                           	callstack 0
   882  000001                     
   883                           ; 1 bytes @ 0x0
   884  000001                     	ds	1
   885  000002                     ??_HiPriISR:
   886                           
   887                           ; 1 bytes @ 0x1
   888  000002                     	ds	2
   889  000004                     ??_CCP3Handler:
   890  000004                     
   891                           ; 1 bytes @ 0x3
   892  000004                     	ds	1
   893  000005                     ??_LoPriISR:
   894                           
   895                           ; 1 bytes @ 0x4
   896  000005                     	ds	3
   897  000008                     ??_InitLCD:
   898  000008                     ?_strcmp:
   899                           	callstack 0
   900  000008                     ?_strlen:
   901                           	callstack 0
   902  000008                     ?___fpclassifyf:
   903                           	callstack 0
   904  000008                     ?_isupper:
   905                           	callstack 0
   906  000008                     ?_isdigit:
   907                           	callstack 0
   908  000008                     ?_strncmp:
   909                           	callstack 0
   910  000008                     ?_isspace:
   911                           	callstack 0
   912  000008                     ?___wmul:
   913                           	callstack 0
   914  000008                     ?___awdiv:
   915                           	callstack 0
   916  000008                     ?___awmod:
   917                           	callstack 0
   918  000008                     ?___fladd:
   919                           	callstack 0
   920  000008                     ?___fldiv:
   921                           	callstack 0
   922  000008                     ?___flneg:
   923                           	callstack 0
   924  000008                     ?___fltol:
   925                           	callstack 0
   926  000008                     ?___xxtofl:
   927                           	callstack 0
   928  000008                     DisplayV@LCDStr:
   929                           	callstack 0
   930  000008                     ___wmul@multiplier:
   931                           	callstack 0
   932  000008                     ___awdiv@dividend:
   933                           	callstack 0
   934  000008                     ___awmod@dividend:
   935                           	callstack 0
   936  000008                     isdigit@c:
   937                           	callstack 0
   938  000008                     isspace@c:
   939                           	callstack 0
   940  000008                     isupper@c:
   941                           	callstack 0
   942  000008                     fputc@c:
   943                           	callstack 0
   944  000008                     strcmp@l:
   945                           	callstack 0
   946  000008                     strcpy@dest:
   947                           	callstack 0
   948  000008                     strlen@s:
   949                           	callstack 0
   950  000008                     strncmp@_l:
   951                           	callstack 0
   952  000008                     ___fleq@ff1:
   953                           	callstack 0
   954  000008                     ___flneg@f1:
   955                           	callstack 0
   956  000008                     ___fltol@f1:
   957                           	callstack 0
   958  000008                     ___fladd@b:
   959                           	callstack 0
   960  000008                     ___fldiv@b:
   961                           	callstack 0
   962  000008                     ___xxtofl@val:
   963                           	callstack 0
   964  000008                     ___fpclassifyf@x:
   965                           	callstack 0
   966                           
   967                           ; 4 bytes @ 0x7
   968  000008                     	ds	1
   969  000009                     InitLCD@count:
   970                           	callstack 0
   971                           
   972                           ; 1 bytes @ 0x8
   973  000009                     	ds	1
   974  00000A                     ??_isupper:
   975  00000A                     ??_isdigit:
   976  00000A                     ??_isspace:
   977  00000A                     InitLCD@nibble:
   978                           	callstack 0
   979  00000A                     DisplayV@nibble:
   980                           	callstack 0
   981  00000A                     ___wmul@multiplicand:
   982                           	callstack 0
   983  00000A                     ___awdiv@divisor:
   984                           	callstack 0
   985  00000A                     ___awmod@divisor:
   986                           	callstack 0
   987  00000A                     fputc@fp:
   988                           	callstack 0
   989  00000A                     strcmp@r:
   990                           	callstack 0
   991  00000A                     strcpy@src:
   992                           	callstack 0
   993  00000A                     strlen@a:
   994                           	callstack 0
   995  00000A                     strncmp@_r:
   996                           	callstack 0
   997                           
   998                           ; 2 bytes @ 0x9
   999  00000A                     	ds	1
  1000  00000B                     DisplayV@count:
  1001                           	callstack 0
  1002                           
  1003                           ; 1 bytes @ 0xA
  1004  00000B                     	ds	1
  1005  00000C                     ??_strcpy:
  1006  00000C                     ??_strcmp:
  1007  00000C                     ??_fputc:
  1008  00000C                     ??___fpclassifyf:
  1009  00000C                     ??___fltol:
  1010  00000C                     ??___xxtofl:
  1011  00000C                     ___awdiv@counter:
  1012                           	callstack 0
  1013  00000C                     ___awmod@counter:
  1014                           	callstack 0
  1015  00000C                     ___wmul@product:
  1016                           	callstack 0
  1017  00000C                     strncmp@n:
  1018                           	callstack 0
  1019  00000C                     ___fleq@ff2:
  1020                           	callstack 0
  1021  00000C                     ___fladd@a:
  1022                           	callstack 0
  1023  00000C                     ___fldiv@a:
  1024                           	callstack 0
  1025                           
  1026                           ; 4 bytes @ 0xB
  1027  00000C                     	ds	1
  1028  00000D                     ___awdiv@sign:
  1029                           	callstack 0
  1030  00000D                     ___awmod@sign:
  1031                           	callstack 0
  1032                           
  1033                           ; 1 bytes @ 0xC
  1034  00000D                     	ds	1
  1035  00000E                     ??_readCommand:
  1036  00000E                     ??_strncmp:
  1037  00000E                     ?_tolower:
  1038                           	callstack 0
  1039  00000E                     _isspace$2396:
  1040                           	callstack 0
  1041  00000E                     ___awdiv@quotient:
  1042                           	callstack 0
  1043  00000E                     strcpy@s:
  1044                           	callstack 0
  1045  00000E                     tolower@c:
  1046                           	callstack 0
  1047                           
  1048                           ; 2 bytes @ 0xD
  1049  00000E                     	ds	1
  1050  00000F                     ?_atoi:
  1051                           	callstack 0
  1052  00000F                     atoi@s:
  1053                           	callstack 0
  1054  00000F                     strncmp@l:
  1055                           	callstack 0
  1056                           
  1057                           ; 2 bytes @ 0xE
  1058  00000F                     	ds	1
  1059  000010                     ??___fladd:
  1060  000010                     ??___fldiv:
  1061  000010                     ??_tolower:
  1062  000010                     ??___fleq:
  1063  000010                     ___fltol@sign1:
  1064                           	callstack 0
  1065  000010                     ___xxtofl@sign:
  1066                           	callstack 0
  1067  000010                     ___fpclassifyf@e:
  1068                           	callstack 0
  1069  000010                     strcpy@d:
  1070                           	callstack 0
  1071                           
  1072                           ; 2 bytes @ 0xF
  1073  000010                     	ds	1
  1074  000011                     ??_atoi:
  1075  000011                     ___fltol@exp1:
  1076                           	callstack 0
  1077  000011                     ___xxtofl@exp:
  1078                           	callstack 0
  1079  000011                     fputs@s:
  1080                           	callstack 0
  1081  000011                     strncmp@r:
  1082                           	callstack 0
  1083                           
  1084                           ; 2 bytes @ 0x10
  1085  000011                     	ds	1
  1086  000012                     DisplayC@LCDStr:
  1087                           	callstack 0
  1088  000012                     ___xxtofl@arg:
  1089                           	callstack 0
  1090  000012                     ___fpclassifyf@u:
  1091                           	callstack 0
  1092                           
  1093                           ; 4 bytes @ 0x11
  1094  000012                     	ds	1
  1095  000013                     fputs@fp:
  1096                           	callstack 0
  1097                           
  1098                           ; 2 bytes @ 0x12
  1099  000013                     	ds	1
  1100  000014                     ___fladd@signs:
  1101                           	callstack 0
  1102  000014                     _tolower$2463:
  1103                           	callstack 0
  1104  000014                     ___fldiv@rem:
  1105                           	callstack 0
  1106  000014                     DisplayC@temp:
  1107                           	callstack 0
  1108                           
  1109                           ; 10 bytes @ 0x13
  1110  000014                     	ds	1
  1111  000015                     ___fladd@aexp:
  1112                           	callstack 0
  1113  000015                     fputs@c:
  1114                           	callstack 0
  1115  000015                     atoi@neg:
  1116                           	callstack 0
  1117                           
  1118                           ; 2 bytes @ 0x14
  1119  000015                     	ds	1
  1120  000016                     ?___flmul:
  1121                           	callstack 0
  1122  000016                     ___fladd@bexp:
  1123                           	callstack 0
  1124  000016                     fputs@i:
  1125                           	callstack 0
  1126  000016                     ___flmul@b:
  1127                           	callstack 0
  1128                           
  1129                           ; 4 bytes @ 0x15
  1130  000016                     	ds	1
  1131  000017                     ___fladd@grs:
  1132                           	callstack 0
  1133  000017                     _atoi$2365:
  1134                           	callstack 0
  1135                           
  1136                           ; 2 bytes @ 0x16
  1137  000017                     	ds	1
  1138  000018                     ?_pad:
  1139                           	callstack 0
  1140  000018                     ___fldiv@sign:
  1141                           	callstack 0
  1142  000018                     pad@fp:
  1143                           	callstack 0
  1144                           
  1145                           ; 2 bytes @ 0x17
  1146  000018                     	ds	1
  1147  000019                     ___fldiv@new_exp:
  1148                           	callstack 0
  1149  000019                     _atoi$2367:
  1150                           	callstack 0
  1151                           
  1152                           ; 2 bytes @ 0x18
  1153  000019                     	ds	1
  1154  00001A                     pad@buf:
  1155                           	callstack 0
  1156  00001A                     ___flmul@a:
  1157                           	callstack 0
  1158                           
  1159                           ; 4 bytes @ 0x19
  1160  00001A                     	ds	1
  1161  00001B                     _atoi$2366:
  1162                           	callstack 0
  1163  00001B                     ___fldiv@grs:
  1164                           	callstack 0
  1165                           
  1166                           ; 4 bytes @ 0x1A
  1167  00001B                     	ds	1
  1168  00001C                     pad@p:
  1169                           	callstack 0
  1170  00001C                     atoi@n:
  1171                           	callstack 0
  1172                           
  1173                           ; 2 bytes @ 0x1B
  1174  00001C                     	ds	2
  1175  00001E                     ??___flmul:
  1176  00001E                     ??_pad:
  1177                           
  1178                           ; 1 bytes @ 0x1D
  1179  00001E                     	ds	1
  1180  00001F                     ___fldiv@bexp:
  1181                           	callstack 0
  1182  00001F                     pad@i:
  1183                           	callstack 0
  1184                           
  1185                           ; 2 bytes @ 0x1E
  1186  00001F                     	ds	1
  1187  000020                     ___fldiv@aexp:
  1188                           	callstack 0
  1189                           
  1190                           ; 1 bytes @ 0x1F
  1191  000020                     	ds	1
  1192  000021                     ?_floorf:
  1193                           	callstack 0
  1194  000021                     pad@w:
  1195                           	callstack 0
  1196  000021                     floorf@x:
  1197                           	callstack 0
  1198                           
  1199                           ; 4 bytes @ 0x20
  1200  000021                     	ds	1
  1201  000022                     ___flmul@sign:
  1202                           	callstack 0
  1203                           
  1204                           ; 1 bytes @ 0x21
  1205  000022                     	ds	1
  1206  000023                     ___flmul@aexp:
  1207                           	callstack 0
  1208                           
  1209                           ; 1 bytes @ 0x22
  1210  000023                     	ds	1
  1211  000024                     ___flmul@grs:
  1212                           	callstack 0
  1213                           
  1214                           ; 4 bytes @ 0x23
  1215  000024                     	ds	1
  1216  000025                     ??_floorf:
  1217                           
  1218                           ; 1 bytes @ 0x24
  1219  000025                     	ds	3
  1220  000028                     ___flmul@bexp:
  1221                           	callstack 0
  1222                           
  1223                           ; 1 bytes @ 0x27
  1224  000028                     	ds	1
  1225  000029                     ___flmul@prod:
  1226                           	callstack 0
  1227                           
  1228                           ; 4 bytes @ 0x28
  1229  000029                     	ds	2
  1230  00002B                     floorf@m:
  1231                           	callstack 0
  1232                           
  1233                           ; 4 bytes @ 0x2A
  1234  00002B                     	ds	2
  1235  00002D                     ___flmul@temp:
  1236                           	callstack 0
  1237                           
  1238                           ; 2 bytes @ 0x2C
  1239  00002D                     	ds	2
  1240  00002F                     ?___flsub:
  1241                           	callstack 0
  1242  00002F                     floorf@e:
  1243                           	callstack 0
  1244  00002F                     ___flge@ff1:
  1245                           	callstack 0
  1246  00002F                     ___flsub@b:
  1247                           	callstack 0
  1248                           
  1249                           ; 4 bytes @ 0x2E
  1250  00002F                     	ds	2
  1251  000031                     floorf@u:
  1252                           	callstack 0
  1253                           
  1254                           ; 4 bytes @ 0x30
  1255  000031                     	ds	2
  1256  000033                     ___flge@ff2:
  1257                           	callstack 0
  1258  000033                     ___flsub@a:
  1259                           	callstack 0
  1260                           
  1261                           ; 4 bytes @ 0x32
  1262  000033                     	ds	4
  1263  000037                     ??___flge:
  1264                           
  1265                           ; 1 bytes @ 0x36
  1266  000037                     	ds	4
  1267  00003B                     ?_efgtoa:
  1268                           	callstack 0
  1269  00003B                     efgtoa@fp:
  1270                           	callstack 0
  1271                           
  1272                           ; 2 bytes @ 0x3A
  1273  00003B                     	ds	2
  1274  00003D                     efgtoa@f:
  1275                           	callstack 0
  1276                           
  1277                           ; 4 bytes @ 0x3C
  1278  00003D                     	ds	4
  1279  000041                     efgtoa@c:
  1280                           	callstack 0
  1281                           
  1282                           ; 1 bytes @ 0x40
  1283  000041                     	ds	1
  1284  000042                     ??_efgtoa:
  1285                           
  1286                           ; 1 bytes @ 0x41
  1287  000042                     	ds	5
  1288  000047                     ?_vfpfcnvrt:
  1289                           	callstack 0
  1290  000047                     vfpfcnvrt@fp:
  1291                           	callstack 0
  1292                           
  1293                           ; 2 bytes @ 0x46
  1294  000047                     	ds	2
  1295  000049                     vfpfcnvrt@fmt:
  1296                           	callstack 0
  1297                           
  1298                           ; 2 bytes @ 0x48
  1299  000049                     	ds	2
  1300  00004B                     vfpfcnvrt@ap:
  1301                           	callstack 0
  1302                           
  1303                           ; 2 bytes @ 0x4A
  1304  00004B                     	ds	2
  1305  00004D                     vfprintf@cfmt:
  1306                           	callstack 0
  1307                           
  1308                           ; 2 bytes @ 0x4C
  1309  00004D                     	ds	2
  1310  00004F                     
  1311                           ; 1 bytes @ 0x4E
  1312 ;;
  1313 ;;Main: autosize = 0, tempsize = 0, incstack = 0, save=0
  1314 ;;
  1315 ;; *************** function _main *****************
  1316 ;; Defined at:
  1317 ;;		line 240 in file "C:/Users/Will/Universal Documents/Academics/CU Boulder/2021/Fall 2021/Microavionics/Labs/Lab6/Watk
      +ins_William_Lab6_Part2.c"
  1318 ;; Parameters:    Size  Location     Type
  1319 ;;		None
  1320 ;; Auto vars:     Size  Location     Type
  1321 ;;		None
  1322 ;; Return value:  Size  Location     Type
  1323 ;;                  1    wreg      void 
  1324 ;; Registers used:
  1325 ;;		wreg, fsr1l, fsr1h, fsr2l, fsr2h, status,2, status,0, tblptrl, tblptrh, tblptru, prodl, prodh, cstack
  1326 ;; Tracked objects:
  1327 ;;		On entry : 0/0
  1328 ;;		On exit  : 0/0
  1329 ;;		Unchanged: 0/0
  1330 ;; Data sizes:     COMRAM   BANK0   BANK1   BANK2   BANK3   BANK4   BANK5   BANK6   BANK7   BANK8   BANK9  BANK10  BANK1
      +1  BANK12  BANK13  BANK14  BANK15
  1331 ;;      Params:         0       0       0       0       0       0       0       0       0       0       0       0       
      +0       0       0       0       0
  1332 ;;      Locals:         0       0       0       0       0       0       0       0       0       0       0       0       
      +0       0       0       0       0
  1333 ;;      Temps:          0       0       0       0       0       0       0       0       0       0       0       0       
      +0       0       0       0       0
  1334 ;;      Totals:         0       0       0       0       0       0       0       0       0       0       0       0       
      +0       0       0       0       0
  1335 ;;Total ram usage:        0 bytes
  1336 ;; Hardware stack levels required when called: 14
  1337 ;; This function calls:
  1338 ;;		_Initial
  1339 ;;		_displayLCD
  1340 ;;		_handleADC
  1341 ;;		_readCommand
  1342 ;;		_sendContinuous
  1343 ;;		_sendPotentiometer
  1344 ;;		_sendTemperature
  1345 ;; This function is called by:
  1346 ;;		Startup code after reset
  1347 ;; This function uses a non-reentrant model
  1348 ;;
  1349                           
  1350                           	psect	text0
  1351  004234                     __ptext0:
  1352                           	callstack 0
  1353  004234                     _main:
  1354                           	callstack 17
  1355  004234                     
  1356                           ;C:/Users/Will/Universal Documents/Academics/CU Boulder/2021/Fall 2021/Microavionics/Lab
      +                          s/Lab6/Watkins_William_Lab6_Part2.c: 241:     Initial();
  1357  004234  EC6A  F01C         	call	_Initial	;wreg free
  1358  004238                     l6457:
  1359                           
  1360                           ;C:/Users/Will/Universal Documents/Academics/CU Boulder/2021/Fall 2021/Microavionics/Lab
      +                          s/Lab6/Watkins_William_Lab6_Part2.c: 243:         handleADC();
  1361  004238  EC37  F019         	call	_handleADC	;wreg free
  1362  00423C                     
  1363                           ;C:/Users/Will/Universal Documents/Academics/CU Boulder/2021/Fall 2021/Microavionics/Lab
      +                          s/Lab6/Watkins_William_Lab6_Part2.c: 244:         if(rxFin == 1)
  1364  00423C  0100               	movlb	0	; () banked
  1365  00423E  05DB               	decf	_rxFin& (0+255),w,b
  1366  004240  A4D8               	btfss	status,2,c
  1367  004242  EF25  F021         	goto	u8231
  1368  004246  EF27  F021         	goto	u8230
  1369  00424A                     u8231:
  1370  00424A  EF29  F021         	goto	l6463
  1371  00424E                     u8230:
  1372  00424E                     
  1373                           ; BSR set to: 0
  1374                           ;C:/Users/Will/Universal Documents/Academics/CU Boulder/2021/Fall 2021/Microavionics/Lab
      +                          s/Lab6/Watkins_William_Lab6_Part2.c: 245:             readCommand();
  1375  00424E  ECDC  F01A         	call	_readCommand	;wreg free
  1376  004252                     l6463:
  1377                           
  1378                           ;C:/Users/Will/Universal Documents/Academics/CU Boulder/2021/Fall 2021/Microavionics/Lab
      +                          s/Lab6/Watkins_William_Lab6_Part2.c: 250:         if(sendTEMP == 1 && sendI == 0)
  1379  004252  0100               	movlb	0	; () banked
  1380  004254  05E0               	decf	_sendTEMP& (0+255),w,b
  1381  004256  A4D8               	btfss	status,2,c
  1382  004258  EF30  F021         	goto	u8241
  1383  00425C  EF32  F021         	goto	u8240
  1384  004260                     u8241:
  1385  004260  EF3C  F021         	goto	l6469
  1386  004264                     u8240:
  1387  004264                     
  1388                           ; BSR set to: 0
  1389  004264  5054               	movf	_sendI^0,w,c
  1390  004266  A4D8               	btfss	status,2,c
  1391  004268  EF38  F021         	goto	u8251
  1392  00426C  EF3A  F021         	goto	u8250
  1393  004270                     u8251:
  1394  004270  EF3C  F021         	goto	l6469
  1395  004274                     u8250:
  1396  004274                     
  1397                           ; BSR set to: 0
  1398                           ;C:/Users/Will/Universal Documents/Academics/CU Boulder/2021/Fall 2021/Microavionics/Lab
      +                          s/Lab6/Watkins_William_Lab6_Part2.c: 251:             sendTemperature();
  1399  004274  ECE6  F024         	call	_sendTemperature	;wreg free
  1400  004278                     l6469:
  1401                           
  1402                           ;C:/Users/Will/Universal Documents/Academics/CU Boulder/2021/Fall 2021/Microavionics/Lab
      +                          s/Lab6/Watkins_William_Lab6_Part2.c: 252:         if(sendPOT == 1 && sendI == 0)
  1403  004278  0455               	decf	_sendPOT^0,w,c
  1404  00427A  A4D8               	btfss	status,2,c
  1405  00427C  EF42  F021         	goto	u8261
  1406  004280  EF44  F021         	goto	u8260
  1407  004284                     u8261:
  1408  004284  EF4E  F021         	goto	l6475
  1409  004288                     u8260:
  1410  004288  5054               	movf	_sendI^0,w,c
  1411  00428A  A4D8               	btfss	status,2,c
  1412  00428C  EF4A  F021         	goto	u8271
  1413  004290  EF4C  F021         	goto	u8270
  1414  004294                     u8271:
  1415  004294  EF4E  F021         	goto	l6475
  1416  004298                     u8270:
  1417  004298                     
  1418                           ;C:/Users/Will/Universal Documents/Academics/CU Boulder/2021/Fall 2021/Microavionics/Lab
      +                          s/Lab6/Watkins_William_Lab6_Part2.c: 253:             sendPotentiometer();
  1419  004298  ECF1  F024         	call	_sendPotentiometer	;wreg free
  1420  00429C                     l6475:
  1421                           
  1422                           ;C:/Users/Will/Universal Documents/Academics/CU Boulder/2021/Fall 2021/Microavionics/Lab
      +                          s/Lab6/Watkins_William_Lab6_Part2.c: 254:         if(sendCONT == 1 && sendI == 0)
  1423  00429C  0100               	movlb	0	; () banked
  1424  00429E  05DF               	decf	_sendCONT& (0+255),w,b
  1425  0042A0  A4D8               	btfss	status,2,c
  1426  0042A2  EF55  F021         	goto	u8281
  1427  0042A6  EF57  F021         	goto	u8280
  1428  0042AA                     u8281:
  1429  0042AA  EF61  F021         	goto	l6481
  1430  0042AE                     u8280:
  1431  0042AE                     
  1432                           ; BSR set to: 0
  1433  0042AE  5054               	movf	_sendI^0,w,c
  1434  0042B0  A4D8               	btfss	status,2,c
  1435  0042B2  EF5D  F021         	goto	u8291
  1436  0042B6  EF5F  F021         	goto	u8290
  1437  0042BA                     u8291:
  1438  0042BA  EF61  F021         	goto	l6481
  1439  0042BE                     u8290:
  1440  0042BE                     
  1441                           ; BSR set to: 0
  1442                           ;C:/Users/Will/Universal Documents/Academics/CU Boulder/2021/Fall 2021/Microavionics/Lab
      +                          s/Lab6/Watkins_William_Lab6_Part2.c: 255:             sendContinuous();
  1443  0042BE  ECFC  F024         	call	_sendContinuous	;wreg free
  1444  0042C2                     l6481:
  1445                           
  1446                           ;C:/Users/Will/Universal Documents/Academics/CU Boulder/2021/Fall 2021/Microavionics/Lab
      +                          s/Lab6/Watkins_William_Lab6_Part2.c: 256:         displayLCD();
  1447  0042C2  ECCD  F024         	call	_displayLCD	;wreg free
  1448  0042C6  EF1C  F021         	goto	l6457
  1449  0042CA  EF52  F000         	goto	start
  1450  0042CE                     __end_of_main:
  1451                           	callstack 0
  1452                           
  1453 ;; *************** function _sendTemperature *****************
  1454 ;; Defined at:
  1455 ;;		line 820 in file "C:/Users/Will/Universal Documents/Academics/CU Boulder/2021/Fall 2021/Microavionics/Labs/Lab6/Watk
      +ins_William_Lab6_Part2.c"
  1456 ;; Parameters:    Size  Location     Type
  1457 ;;		None
  1458 ;; Auto vars:     Size  Location     Type
  1459 ;;		None
  1460 ;; Return value:  Size  Location     Type
  1461 ;;                  1    wreg      void 
  1462 ;; Registers used:
  1463 ;;		wreg, fsr2l, fsr2h, status,2, status,0
  1464 ;; Tracked objects:
  1465 ;;		On entry : 0/0
  1466 ;;		On exit  : 0/0
  1467 ;;		Unchanged: 0/0
  1468 ;; Data sizes:     COMRAM   BANK0   BANK1   BANK2   BANK3   BANK4   BANK5   BANK6   BANK7   BANK8   BANK9  BANK10  BANK1
      +1  BANK12  BANK13  BANK14  BANK15
  1469 ;;      Params:         0       0       0       0       0       0       0       0       0       0       0       0       
      +0       0       0       0       0
  1470 ;;      Locals:         0       0       0       0       0       0       0       0       0       0       0       0       
      +0       0       0       0       0
  1471 ;;      Temps:          0       0       0       0       0       0       0       0       0       0       0       0       
      +0       0       0       0       0
  1472 ;;      Totals:         0       0       0       0       0       0       0       0       0       0       0       0       
      +0       0       0       0       0
  1473 ;;Total ram usage:        0 bytes
  1474 ;; Hardware stack levels used: 1
  1475 ;; Hardware stack levels required when called: 5
  1476 ;; This function calls:
  1477 ;;		Nothing
  1478 ;; This function is called by:
  1479 ;;		_main
  1480 ;; This function uses a non-reentrant model
  1481 ;;
  1482                           
  1483                           	psect	text1
  1484  0049CC                     __ptext1:
  1485                           	callstack 0
  1486  0049CC                     _sendTemperature:
  1487                           	callstack 25
  1488  0049CC                     
  1489                           ;C:/Users/Will/Universal Documents/Academics/CU Boulder/2021/Fall 2021/Microavionics/Lab
      +                          s/Lab6/Watkins_William_Lab6_Part2.c: 821:     TXREG1 = tempSend[sendI];
  1490  0049CC  0E80               	movlw	low _tempSend
  1491  0049CE  2454               	addwf	_sendI^0,w,c
  1492  0049D0  6ED9               	movwf	fsr2l,c
  1493  0049D2  6ADA               	clrf	fsr2h,c
  1494  0049D4  0E01               	movlw	high _tempSend
  1495  0049D6  22DA               	addwfc	fsr2h,f,c
  1496  0049D8  50DF               	movf	indf2,w,c
  1497  0049DA  6EAD               	movwf	173,c	;volatile
  1498  0049DC                     
  1499                           ;C:/Users/Will/Universal Documents/Academics/CU Boulder/2021/Fall 2021/Microavionics/Lab
      +                          s/Lab6/Watkins_William_Lab6_Part2.c: 822:     PIE1bits.TX1IE = 1;
  1500  0049DC  889D               	bsf	157,4,c	;volatile
  1501  0049DE                     
  1502                           ;C:/Users/Will/Universal Documents/Academics/CU Boulder/2021/Fall 2021/Microavionics/Lab
      +                          s/Lab6/Watkins_William_Lab6_Part2.c: 823:     sendI++;
  1503  0049DE  2A54               	incf	_sendI^0,f,c
  1504  0049E0  0012               	return		;funcret
  1505  0049E2                     __end_of_sendTemperature:
  1506                           	callstack 0
  1507                           
  1508 ;; *************** function _sendPotentiometer *****************
  1509 ;; Defined at:
  1510 ;;		line 834 in file "C:/Users/Will/Universal Documents/Academics/CU Boulder/2021/Fall 2021/Microavionics/Labs/Lab6/Watk
      +ins_William_Lab6_Part2.c"
  1511 ;; Parameters:    Size  Location     Type
  1512 ;;		None
  1513 ;; Auto vars:     Size  Location     Type
  1514 ;;		None
  1515 ;; Return value:  Size  Location     Type
  1516 ;;                  1    wreg      void 
  1517 ;; Registers used:
  1518 ;;		wreg, fsr2l, fsr2h, status,2, status,0
  1519 ;; Tracked objects:
  1520 ;;		On entry : 0/0
  1521 ;;		On exit  : 0/0
  1522 ;;		Unchanged: 0/0
  1523 ;; Data sizes:     COMRAM   BANK0   BANK1   BANK2   BANK3   BANK4   BANK5   BANK6   BANK7   BANK8   BANK9  BANK10  BANK1
      +1  BANK12  BANK13  BANK14  BANK15
  1524 ;;      Params:         0       0       0       0       0       0       0       0       0       0       0       0       
      +0       0       0       0       0
  1525 ;;      Locals:         0       0       0       0       0       0       0       0       0       0       0       0       
      +0       0       0       0       0
  1526 ;;      Temps:          0       0       0       0       0       0       0       0       0       0       0       0       
      +0       0       0       0       0
  1527 ;;      Totals:         0       0       0       0       0       0       0       0       0       0       0       0       
      +0       0       0       0       0
  1528 ;;Total ram usage:        0 bytes
  1529 ;; Hardware stack levels used: 1
  1530 ;; Hardware stack levels required when called: 5
  1531 ;; This function calls:
  1532 ;;		Nothing
  1533 ;; This function is called by:
  1534 ;;		_main
  1535 ;; This function uses a non-reentrant model
  1536 ;;
  1537                           
  1538                           	psect	text2
  1539  0049E2                     __ptext2:
  1540                           	callstack 0
  1541  0049E2                     _sendPotentiometer:
  1542                           	callstack 25
  1543  0049E2                     
  1544                           ;C:/Users/Will/Universal Documents/Academics/CU Boulder/2021/Fall 2021/Microavionics/Lab
      +                          s/Lab6/Watkins_William_Lab6_Part2.c: 835:     TXREG1 = potSend[sendI];
  1545  0049E2  0E79               	movlw	low _potSend
  1546  0049E4  2454               	addwf	_sendI^0,w,c
  1547  0049E6  6ED9               	movwf	fsr2l,c
  1548  0049E8  6ADA               	clrf	fsr2h,c
  1549  0049EA  0E01               	movlw	high _potSend
  1550  0049EC  22DA               	addwfc	fsr2h,f,c
  1551  0049EE  50DF               	movf	indf2,w,c
  1552  0049F0  6EAD               	movwf	173,c	;volatile
  1553  0049F2                     
  1554                           ;C:/Users/Will/Universal Documents/Academics/CU Boulder/2021/Fall 2021/Microavionics/Lab
      +                          s/Lab6/Watkins_William_Lab6_Part2.c: 836:     PIE1bits.TX1IE = 1;
  1555  0049F2  889D               	bsf	157,4,c	;volatile
  1556  0049F4                     
  1557                           ;C:/Users/Will/Universal Documents/Academics/CU Boulder/2021/Fall 2021/Microavionics/Lab
      +                          s/Lab6/Watkins_William_Lab6_Part2.c: 837:     sendI++;
  1558  0049F4  2A54               	incf	_sendI^0,f,c
  1559  0049F6  0012               	return		;funcret
  1560  0049F8                     __end_of_sendPotentiometer:
  1561                           	callstack 0
  1562                           
  1563 ;; *************** function _sendContinuous *****************
  1564 ;; Defined at:
  1565 ;;		line 806 in file "C:/Users/Will/Universal Documents/Academics/CU Boulder/2021/Fall 2021/Microavionics/Labs/Lab6/Watk
      +ins_William_Lab6_Part2.c"
  1566 ;; Parameters:    Size  Location     Type
  1567 ;;		None
  1568 ;; Auto vars:     Size  Location     Type
  1569 ;;		None
  1570 ;; Return value:  Size  Location     Type
  1571 ;;                  1    wreg      void 
  1572 ;; Registers used:
  1573 ;;		wreg, fsr2l, fsr2h, status,2, status,0
  1574 ;; Tracked objects:
  1575 ;;		On entry : 0/0
  1576 ;;		On exit  : 0/0
  1577 ;;		Unchanged: 0/0
  1578 ;; Data sizes:     COMRAM   BANK0   BANK1   BANK2   BANK3   BANK4   BANK5   BANK6   BANK7   BANK8   BANK9  BANK10  BANK1
      +1  BANK12  BANK13  BANK14  BANK15
  1579 ;;      Params:         0       0       0       0       0       0       0       0       0       0       0       0       
      +0       0       0       0       0
  1580 ;;      Locals:         0       0       0       0       0       0       0       0       0       0       0       0       
      +0       0       0       0       0
  1581 ;;      Temps:          0       0       0       0       0       0       0       0       0       0       0       0       
      +0       0       0       0       0
  1582 ;;      Totals:         0       0       0       0       0       0       0       0       0       0       0       0       
      +0       0       0       0       0
  1583 ;;Total ram usage:        0 bytes
  1584 ;; Hardware stack levels used: 1
  1585 ;; Hardware stack levels required when called: 5
  1586 ;; This function calls:
  1587 ;;		Nothing
  1588 ;; This function is called by:
  1589 ;;		_main
  1590 ;; This function uses a non-reentrant model
  1591 ;;
  1592                           
  1593                           	psect	text3
  1594  0049F8                     __ptext3:
  1595                           	callstack 0
  1596  0049F8                     _sendContinuous:
  1597                           	callstack 25
  1598  0049F8                     
  1599                           ;C:/Users/Will/Universal Documents/Academics/CU Boulder/2021/Fall 2021/Microavionics/Lab
      +                          s/Lab6/Watkins_William_Lab6_Part2.c: 807:     TXREG1 = contSend[sendI];
  1600  0049F8  0E66               	movlw	low _contSend
  1601  0049FA  2454               	addwf	_sendI^0,w,c
  1602  0049FC  6ED9               	movwf	fsr2l,c
  1603  0049FE  6ADA               	clrf	fsr2h,c
  1604  004A00  0E01               	movlw	high _contSend
  1605  004A02  22DA               	addwfc	fsr2h,f,c
  1606  004A04  50DF               	movf	indf2,w,c
  1607  004A06  6EAD               	movwf	173,c	;volatile
  1608  004A08                     
  1609                           ;C:/Users/Will/Universal Documents/Academics/CU Boulder/2021/Fall 2021/Microavionics/Lab
      +                          s/Lab6/Watkins_William_Lab6_Part2.c: 808:     PIE1bits.TX1IE = 1;
  1610  004A08  889D               	bsf	157,4,c	;volatile
  1611  004A0A                     
  1612                           ;C:/Users/Will/Universal Documents/Academics/CU Boulder/2021/Fall 2021/Microavionics/Lab
      +                          s/Lab6/Watkins_William_Lab6_Part2.c: 809:     sendI++;
  1613  004A0A  2A54               	incf	_sendI^0,f,c
  1614  004A0C  0012               	return		;funcret
  1615  004A0E                     __end_of_sendContinuous:
  1616                           	callstack 0
  1617                           
  1618 ;; *************** function _readCommand *****************
  1619 ;; Defined at:
  1620 ;;		line 767 in file "C:/Users/Will/Universal Documents/Academics/CU Boulder/2021/Fall 2021/Microavionics/Labs/Lab6/Watk
      +ins_William_Lab6_Part2.c"
  1621 ;; Parameters:    Size  Location     Type
  1622 ;;		None
  1623 ;; Auto vars:     Size  Location     Type
  1624 ;;		None
  1625 ;; Return value:  Size  Location     Type
  1626 ;;                  1    wreg      void 
  1627 ;; Registers used:
  1628 ;;		wreg, fsr1l, fsr1h, fsr2l, fsr2h, status,2, status,0, cstack
  1629 ;; Tracked objects:
  1630 ;;		On entry : 0/0
  1631 ;;		On exit  : 0/0
  1632 ;;		Unchanged: 0/0
  1633 ;; Data sizes:     COMRAM   BANK0   BANK1   BANK2   BANK3   BANK4   BANK5   BANK6   BANK7   BANK8   BANK9  BANK10  BANK1
      +1  BANK12  BANK13  BANK14  BANK15
  1634 ;;      Params:         0       0       0       0       0       0       0       0       0       0       0       0       
      +0       0       0       0       0
  1635 ;;      Locals:         0       0       0       0       0       0       0       0       0       0       0       0       
      +0       0       0       0       0
  1636 ;;      Temps:          2       0       0       0       0       0       0       0       0       0       0       0       
      +0       0       0       0       0
  1637 ;;      Totals:         2       0       0       0       0       0       0       0       0       0       0       0       
      +0       0       0       0       0
  1638 ;;Total ram usage:        2 bytes
  1639 ;; Hardware stack levels used: 1
  1640 ;; Hardware stack levels required when called: 6
  1641 ;; This function calls:
  1642 ;;		_strcmp
  1643 ;; This function is called by:
  1644 ;;		_main
  1645 ;; This function uses a non-reentrant model
  1646 ;;
  1647                           
  1648                           	psect	text4
  1649  0035B8                     __ptext4:
  1650                           	callstack 0
  1651  0035B8                     _readCommand:
  1652                           	callstack 24
  1653  0035B8                     
  1654                           ;C:/Users/Will/Universal Documents/Academics/CU Boulder/2021/Fall 2021/Microavionics/Lab
      +                          s/Lab6/Watkins_William_Lab6_Part2.c: 769:     switch(i)
  1655  0035B8  EF42  F01B         	goto	l4909
  1656  0035BC                     l4891:
  1657                           
  1658                           ;C:/Users/Will/Universal Documents/Academics/CU Boulder/2021/Fall 2021/Microavionics/Lab
      +                          s/Lab6/Watkins_William_Lab6_Part2.c: 772:             if(strcmp(buffer, checkPOT) == 0)
  1659  0035BC  0E5C               	movlw	low _buffer
  1660  0035BE  6E08               	movwf	strcmp@l^0,c
  1661  0035C0  0E01               	movlw	high _buffer
  1662  0035C2  6E09               	movwf	(strcmp@l+1)^0,c
  1663  0035C4  0E9B               	movlw	low _checkPOT
  1664  0035C6  6E0A               	movwf	strcmp@r^0,c
  1665  0035C8  0E01               	movlw	high _checkPOT
  1666  0035CA  6E0B               	movwf	(strcmp@r+1)^0,c
  1667  0035CC  ECA7  F021         	call	_strcmp	;wreg free
  1668  0035D0  5008               	movf	?_strcmp^0,w,c
  1669  0035D2  1009               	iorwf	(?_strcmp+1)^0,w,c
  1670  0035D4  A4D8               	btfss	status,2,c
  1671  0035D6  EFEF  F01A         	goto	u5561
  1672  0035DA  EFF1  F01A         	goto	u5560
  1673  0035DE                     u5561:
  1674  0035DE  EF5F  F01B         	goto	l4911
  1675  0035E2                     u5560:
  1676  0035E2                     
  1677                           ;C:/Users/Will/Universal Documents/Academics/CU Boulder/2021/Fall 2021/Microavionics/Lab
      +                          s/Lab6/Watkins_William_Lab6_Part2.c: 773:                 sendPOT = 1;
  1678  0035E2  0E01               	movlw	1
  1679  0035E4  6E55               	movwf	_sendPOT^0,c
  1680  0035E6  EF5F  F01B         	goto	l4911
  1681  0035EA                     l4895:
  1682                           
  1683                           ;C:/Users/Will/Universal Documents/Academics/CU Boulder/2021/Fall 2021/Microavionics/Lab
      +                          s/Lab6/Watkins_William_Lab6_Part2.c: 777:             if(strcmp(buffer, checkTEMP) == 0)
  1684  0035EA  0E5C               	movlw	low _buffer
  1685  0035EC  6E08               	movwf	strcmp@l^0,c
  1686  0035EE  0E01               	movlw	high _buffer
  1687  0035F0  6E09               	movwf	(strcmp@l+1)^0,c
  1688  0035F2  0EA5               	movlw	low _checkTEMP
  1689  0035F4  6E0A               	movwf	strcmp@r^0,c
  1690  0035F6  0E01               	movlw	high _checkTEMP
  1691  0035F8  6E0B               	movwf	(strcmp@r+1)^0,c
  1692  0035FA  ECA7  F021         	call	_strcmp	;wreg free
  1693  0035FE  5008               	movf	?_strcmp^0,w,c
  1694  003600  1009               	iorwf	(?_strcmp+1)^0,w,c
  1695  003602  A4D8               	btfss	status,2,c
  1696  003604  EF06  F01B         	goto	u5571
  1697  003608  EF08  F01B         	goto	u5570
  1698  00360C                     u5571:
  1699  00360C  EF5F  F01B         	goto	l4911
  1700  003610                     u5570:
  1701  003610                     
  1702                           ;C:/Users/Will/Universal Documents/Academics/CU Boulder/2021/Fall 2021/Microavionics/Lab
      +                          s/Lab6/Watkins_William_Lab6_Part2.c: 778:                 sendTEMP = 1;
  1703  003610  0E01               	movlw	1
  1704  003612  0100               	movlb	0	; () banked
  1705  003614  6FE0               	movwf	_sendTEMP& (0+255),b
  1706  003616  EF5F  F01B         	goto	l4911
  1707  00361A                     l4899:
  1708                           
  1709                           ;C:/Users/Will/Universal Documents/Academics/CU Boulder/2021/Fall 2021/Microavionics/Lab
      +                          s/Lab6/Watkins_William_Lab6_Part2.c: 782:             if(strcmp(buffer, checkCONTON) == 
      +                          0)
  1710  00361A  0E5C               	movlw	low _buffer
  1711  00361C  6E08               	movwf	strcmp@l^0,c
  1712  00361E  0E01               	movlw	high _buffer
  1713  003620  6E09               	movwf	(strcmp@l+1)^0,c
  1714  003622  0E91               	movlw	low _checkCONTON
  1715  003624  6E0A               	movwf	strcmp@r^0,c
  1716  003626  0E01               	movlw	high _checkCONTON
  1717  003628  6E0B               	movwf	(strcmp@r+1)^0,c
  1718  00362A  ECA7  F021         	call	_strcmp	;wreg free
  1719  00362E  5008               	movf	?_strcmp^0,w,c
  1720  003630  1009               	iorwf	(?_strcmp+1)^0,w,c
  1721  003632  A4D8               	btfss	status,2,c
  1722  003634  EF1E  F01B         	goto	u5581
  1723  003638  EF20  F01B         	goto	u5580
  1724  00363C                     u5581:
  1725  00363C  EF5F  F01B         	goto	l4911
  1726  003640                     u5580:
  1727  003640                     
  1728                           ;C:/Users/Will/Universal Documents/Academics/CU Boulder/2021/Fall 2021/Microavionics/Lab
      +                          s/Lab6/Watkins_William_Lab6_Part2.c: 783:                 sendCONT = 1;
  1729  003640  0E01               	movlw	1
  1730  003642  0100               	movlb	0	; () banked
  1731  003644  6FDF               	movwf	_sendCONT& (0+255),b
  1732  003646  EF5F  F01B         	goto	l4911
  1733  00364A                     l4903:
  1734                           
  1735                           ;C:/Users/Will/Universal Documents/Academics/CU Boulder/2021/Fall 2021/Microavionics/Lab
      +                          s/Lab6/Watkins_William_Lab6_Part2.c: 787:             if(strcmp(buffer, checkCONTOFF) ==
      +                           0)
  1736  00364A  0E5C               	movlw	low _buffer
  1737  00364C  6E08               	movwf	strcmp@l^0,c
  1738  00364E  0E01               	movlw	high _buffer
  1739  003650  6E09               	movwf	(strcmp@l+1)^0,c
  1740  003652  0E87               	movlw	low _checkCONTOFF
  1741  003654  6E0A               	movwf	strcmp@r^0,c
  1742  003656  0E01               	movlw	high _checkCONTOFF
  1743  003658  6E0B               	movwf	(strcmp@r+1)^0,c
  1744  00365A  ECA7  F021         	call	_strcmp	;wreg free
  1745  00365E  5008               	movf	?_strcmp^0,w,c
  1746  003660  1009               	iorwf	(?_strcmp+1)^0,w,c
  1747  003662  A4D8               	btfss	status,2,c
  1748  003664  EF36  F01B         	goto	u5591
  1749  003668  EF38  F01B         	goto	u5590
  1750  00366C                     u5591:
  1751  00366C  EF5F  F01B         	goto	l4911
  1752  003670                     u5590:
  1753  003670                     
  1754                           ;C:/Users/Will/Universal Documents/Academics/CU Boulder/2021/Fall 2021/Microavionics/Lab
      +                          s/Lab6/Watkins_William_Lab6_Part2.c: 788:                 sendCONT = 0;
  1755  003670  0E00               	movlw	0
  1756  003672  0100               	movlb	0	; () banked
  1757  003674  6FDF               	movwf	_sendCONT& (0+255),b
  1758  003676  EF5F  F01B         	goto	l4911
  1759  00367A                     l4907:
  1760                           
  1761                           ;C:/Users/Will/Universal Documents/Academics/CU Boulder/2021/Fall 2021/Microavionics/Lab
      +                          s/Lab6/Watkins_William_Lab6_Part2.c: 792:             sendERROR = 1;
  1762  00367A  0E01               	movlw	1
  1763  00367C  0100               	movlb	0	; () banked
  1764  00367E  6FDE               	movwf	_sendERROR& (0+255),b
  1765                           
  1766                           ;C:/Users/Will/Universal Documents/Academics/CU Boulder/2021/Fall 2021/Microavionics/Lab
      +                          s/Lab6/Watkins_William_Lab6_Part2.c: 793:     }
  1767  003680  EF5F  F01B         	goto	l4911
  1768  003684                     l4909:
  1769  003684  5053               	movf	_i^0,w,c
  1770  003686  6E0E               	movwf	??_readCommand^0,c
  1771  003688  6A0F               	clrf	(??_readCommand+1)^0,c
  1772                           
  1773                           ; Switch on 2 bytes has been partitioned into a top level switch of size 1, and 1 sub-sw
      +                          itches
  1774                           ; Switch size 1, requested type "simple"
  1775                           ; Number of cases is 1, Range of values is 0 to 0
  1776                           ; switch strategies available:
  1777                           ; Name         Instructions Cycles
  1778                           ; simple_byte            4     3 (average)
  1779                           ;	Chosen strategy is simple_byte
  1780  00368A  500F               	movf	(??_readCommand+1)^0,w,c
  1781  00368C  0A00               	xorlw	0	; case 0
  1782  00368E  B4D8               	btfsc	status,2,c
  1783  003690  EF4C  F01B         	goto	l6523
  1784  003694  EF3D  F01B         	goto	l4907
  1785  003698                     l6523:
  1786                           
  1787                           ; Switch size 1, requested type "simple"
  1788                           ; Number of cases is 4, Range of values is 3 to 8
  1789                           ; switch strategies available:
  1790                           ; Name         Instructions Cycles
  1791                           ; simple_byte           13     7 (average)
  1792                           ;	Chosen strategy is simple_byte
  1793  003698  500E               	movf	??_readCommand^0,w,c
  1794  00369A  0A03               	xorlw	3	; case 3
  1795  00369C  B4D8               	btfsc	status,2,c
  1796  00369E  EFDE  F01A         	goto	l4891
  1797  0036A2  0A07               	xorlw	7	; case 4
  1798  0036A4  B4D8               	btfsc	status,2,c
  1799  0036A6  EFF5  F01A         	goto	l4895
  1800  0036AA  0A03               	xorlw	3	; case 7
  1801  0036AC  B4D8               	btfsc	status,2,c
  1802  0036AE  EF0D  F01B         	goto	l4899
  1803  0036B2  0A0F               	xorlw	15	; case 8
  1804  0036B4  B4D8               	btfsc	status,2,c
  1805  0036B6  EF25  F01B         	goto	l4903
  1806  0036BA  EF3D  F01B         	goto	l4907
  1807  0036BE                     l4911:
  1808                           
  1809                           ;C:/Users/Will/Universal Documents/Academics/CU Boulder/2021/Fall 2021/Microavionics/Lab
      +                          s/Lab6/Watkins_William_Lab6_Part2.c: 794:     i = 0;
  1810  0036BE  0E00               	movlw	0
  1811  0036C0  6E53               	movwf	_i^0,c
  1812                           
  1813                           ;C:/Users/Will/Universal Documents/Academics/CU Boulder/2021/Fall 2021/Microavionics/Lab
      +                          s/Lab6/Watkins_William_Lab6_Part2.c: 795:     rxFin = 0;
  1814  0036C2  0E00               	movlw	0
  1815  0036C4  0100               	movlb	0	; () banked
  1816  0036C6  6FDB               	movwf	_rxFin& (0+255),b
  1817  0036C8                     
  1818                           ; BSR set to: 0
  1819  0036C8  0012               	return		;funcret
  1820  0036CA                     __end_of_readCommand:
  1821                           	callstack 0
  1822                           
  1823 ;; *************** function _strcmp *****************
  1824 ;; Defined at:
  1825 ;;		line 3 in file "C:\Program Files\Microchip\xc8\v2.32\pic\sources\c99\common\strcmp.c"
  1826 ;; Parameters:    Size  Location     Type
  1827 ;;  l               2    7[COMRAM] PTR const unsigned char 
  1828 ;;		 -> buffer(10), 
  1829 ;;  r               2    9[COMRAM] PTR const unsigned char 
  1830 ;;		 -> checkCONTOFF(10), checkCONTON(10), checkTEMP(10), checkPOT(10), 
  1831 ;; Auto vars:     Size  Location     Type
  1832 ;;		None
  1833 ;; Return value:  Size  Location     Type
  1834 ;;                  2    7[COMRAM] int 
  1835 ;; Registers used:
  1836 ;;		wreg, fsr1l, fsr1h, fsr2l, fsr2h, status,2, status,0
  1837 ;; Tracked objects:
  1838 ;;		On entry : 0/0
  1839 ;;		On exit  : 0/0
  1840 ;;		Unchanged: 0/0
  1841 ;; Data sizes:     COMRAM   BANK0   BANK1   BANK2   BANK3   BANK4   BANK5   BANK6   BANK7   BANK8   BANK9  BANK10  BANK1
      +1  BANK12  BANK13  BANK14  BANK15
  1842 ;;      Params:         4       0       0       0       0       0       0       0       0       0       0       0       
      +0       0       0       0       0
  1843 ;;      Locals:         0       0       0       0       0       0       0       0       0       0       0       0       
      +0       0       0       0       0
  1844 ;;      Temps:          2       0       0       0       0       0       0       0       0       0       0       0       
      +0       0       0       0       0
  1845 ;;      Totals:         6       0       0       0       0       0       0       0       0       0       0       0       
      +0       0       0       0       0
  1846 ;;Total ram usage:        6 bytes
  1847 ;; Hardware stack levels used: 1
  1848 ;; Hardware stack levels required when called: 5
  1849 ;; This function calls:
  1850 ;;		Nothing
  1851 ;; This function is called by:
  1852 ;;		_readCommand
  1853 ;; This function uses a non-reentrant model
  1854 ;;
  1855                           
  1856                           	psect	text5
  1857  00434E                     __ptext5:
  1858                           	callstack 0
  1859  00434E                     _strcmp:
  1860                           	callstack 24
  1861  00434E  EFAD  F021         	goto	l4699
  1862  004352                     l4697:
  1863  004352  4A08               	infsnz	strcmp@l^0,f,c
  1864  004354  2A09               	incf	(strcmp@l+1)^0,f,c
  1865  004356  4A0A               	infsnz	strcmp@r^0,f,c
  1866  004358  2A0B               	incf	(strcmp@r+1)^0,f,c
  1867  00435A                     l4699:
  1868  00435A  C00A  FFD9         	movff	strcmp@r,fsr2l
  1869  00435E  C00B  FFDA         	movff	strcmp@r+1,fsr2h
  1870  004362  C008  FFE1         	movff	strcmp@l,fsr1l
  1871  004366  C009  FFE2         	movff	strcmp@l+1,fsr1h
  1872  00436A  50DE               	movf	postinc2,w,c
  1873  00436C  18E6               	xorwf	postinc1,w,c
  1874  00436E  A4D8               	btfss	status,2,c
  1875  004370  EFBC  F021         	goto	u5421
  1876  004374  EFBE  F021         	goto	u5420
  1877  004378                     u5421:
  1878  004378  EFCA  F021         	goto	l4703
  1879  00437C                     u5420:
  1880  00437C  C008  FFD9         	movff	strcmp@l,fsr2l
  1881  004380  C009  FFDA         	movff	strcmp@l+1,fsr2h
  1882  004384  50DF               	movf	indf2,w,c
  1883  004386  A4D8               	btfss	status,2,c
  1884  004388  EFC8  F021         	goto	u5431
  1885  00438C  EFCA  F021         	goto	u5430
  1886  004390                     u5431:
  1887  004390  EFA9  F021         	goto	l4697
  1888  004394                     u5430:
  1889  004394                     l4703:
  1890  004394  C008  FFD9         	movff	strcmp@l,fsr2l
  1891  004398  C009  FFDA         	movff	strcmp@l+1,fsr2h
  1892  00439C  50DF               	movf	indf2,w,c
  1893  00439E  6E0C               	movwf	??_strcmp^0,c
  1894  0043A0  C00A  FFD9         	movff	strcmp@r,fsr2l
  1895  0043A4  C00B  FFDA         	movff	strcmp@r+1,fsr2h
  1896  0043A8  50DF               	movf	indf2,w,c
  1897  0043AA  6E0D               	movwf	(??_strcmp+1)^0,c
  1898  0043AC  500D               	movf	(??_strcmp+1)^0,w,c
  1899  0043AE  5C0C               	subwf	??_strcmp^0,w,c
  1900  0043B0  6E08               	movwf	?_strcmp^0,c
  1901  0043B2  6A09               	clrf	(?_strcmp+1)^0,c
  1902  0043B4  A0D8               	btfss	status,0,c
  1903  0043B6  0609               	decf	(?_strcmp+1)^0,f,c
  1904  0043B8  0012               	return		;funcret
  1905  0043BA                     __end_of_strcmp:
  1906                           	callstack 0
  1907                           
  1908 ;; *************** function _handleADC *****************
  1909 ;; Defined at:
  1910 ;;		line 436 in file "C:/Users/Will/Universal Documents/Academics/CU Boulder/2021/Fall 2021/Microavionics/Labs/Lab6/Watk
      +ins_William_Lab6_Part2.c"
  1911 ;; Parameters:    Size  Location     Type
  1912 ;;		None
  1913 ;; Auto vars:     Size  Location     Type
  1914 ;;		None
  1915 ;; Return value:  Size  Location     Type
  1916 ;;                  1    wreg      void 
  1917 ;; Registers used:
  1918 ;;		wreg, fsr1l, fsr1h, fsr2l, fsr2h, status,2, status,0, tblptrl, tblptrh, tblptru, prodl, prodh, cstack
  1919 ;; Tracked objects:
  1920 ;;		On entry : 0/0
  1921 ;;		On exit  : 0/0
  1922 ;;		Unchanged: 0/0
  1923 ;; Data sizes:     COMRAM   BANK0   BANK1   BANK2   BANK3   BANK4   BANK5   BANK6   BANK7   BANK8   BANK9  BANK10  BANK1
      +1  BANK12  BANK13  BANK14  BANK15
  1924 ;;      Params:         0       0       0       0       0       0       0       0       0       0       0       0       
      +0       0       0       0       0
  1925 ;;      Locals:         0       0       0       0       0       0       0       0       0       0       0       0       
      +0       0       0       0       0
  1926 ;;      Temps:          0       0       0       0       0       0       0       0       0       0       0       0       
      +0       0       0       0       0
  1927 ;;      Totals:         0       0       0       0       0       0       0       0       0       0       0       0       
      +0       0       0       0       0
  1928 ;;Total ram usage:        0 bytes
  1929 ;; Hardware stack levels used: 1
  1930 ;; Hardware stack levels required when called: 13
  1931 ;; This function calls:
  1932 ;;		___flge
  1933 ;;		___flmul
  1934 ;;		___xxtofl
  1935 ;;		_readADC
  1936 ;;		_sprintf
  1937 ;; This function is called by:
  1938 ;;		_main
  1939 ;; This function uses a non-reentrant model
  1940 ;;
  1941                           
  1942                           	psect	text6
  1943  00326E                     __ptext6:
  1944                           	callstack 0
  1945  00326E                     _handleADC:
  1946                           	callstack 17
  1947  00326E                     
  1948                           ;C:/Users/Will/Universal Documents/Academics/CU Boulder/2021/Fall 2021/Microavionics/Lab
      +                          s/Lab6/Watkins_William_Lab6_Part2.c: 437:     readADC();
  1949  00326E  ECDD  F021         	call	_readADC	;wreg free
  1950  003272                     
  1951                           ;C:/Users/Will/Universal Documents/Academics/CU Boulder/2021/Fall 2021/Microavionics/Lab
      +                          s/Lab6/Watkins_William_Lab6_Part2.c: 438:     ADCON0bits.CHS = 0b00000;
  1952  003272  0E83               	movlw	-125
  1953  003274  16C2               	andwf	194,f,c	;volatile
  1954  003276                     
  1955                           ;C:/Users/Will/Universal Documents/Academics/CU Boulder/2021/Fall 2021/Microavionics/Lab
      +                          s/Lab6/Watkins_William_Lab6_Part2.c: 439:     firstread = 1;
  1956  003276  0E01               	movlw	1
  1957  003278  0100               	movlb	0	; () banked
  1958  00327A  6FED               	movwf	_firstread& (0+255),b
  1959  00327C                     
  1960                           ; BSR set to: 0
  1961                           ;C:/Users/Will/Universal Documents/Academics/CU Boulder/2021/Fall 2021/Microavionics/Lab
      +                          s/Lab6/Watkins_William_Lab6_Part2.c: 440:     sensor = 1;
  1962  00327C  0E01               	movlw	1
  1963  00327E  6FE1               	movwf	_sensor& (0+255),b
  1964  003280                     
  1965                           ; BSR set to: 0
  1966                           ;C:/Users/Will/Universal Documents/Academics/CU Boulder/2021/Fall 2021/Microavionics/Lab
      +                          s/Lab6/Watkins_William_Lab6_Part2.c: 441:     readADC();
  1967  003280  ECDD  F021         	call	_readADC	;wreg free
  1968                           
  1969                           ;C:/Users/Will/Universal Documents/Academics/CU Boulder/2021/Fall 2021/Microavionics/Lab
      +                          s/Lab6/Watkins_William_Lab6_Part2.c: 442:     ADCON0bits.CHS = 0b00011;
  1970  003284  50C2               	movf	194,w,c	;volatile
  1971  003286  0B83               	andlw	-125
  1972  003288  090C               	iorlw	12
  1973  00328A  6EC2               	movwf	194,c	;volatile
  1974                           
  1975                           ;C:/Users/Will/Universal Documents/Academics/CU Boulder/2021/Fall 2021/Microavionics/Lab
      +                          s/Lab6/Watkins_William_Lab6_Part2.c: 443:     firstread = 1;
  1976  00328C  0E01               	movlw	1
  1977  00328E  0100               	movlb	0	; () banked
  1978  003290  6FED               	movwf	_firstread& (0+255),b
  1979                           
  1980                           ;C:/Users/Will/Universal Documents/Academics/CU Boulder/2021/Fall 2021/Microavionics/Lab
      +                          s/Lab6/Watkins_William_Lab6_Part2.c: 444:     sensor = 0;
  1981  003292  0E00               	movlw	0
  1982  003294  6FE1               	movwf	_sensor& (0+255),b
  1983  003296                     
  1984                           ; BSR set to: 0
  1985                           ;C:/Users/Will/Universal Documents/Academics/CU Boulder/2021/Fall 2021/Microavionics/Lab
      +                          s/Lab6/Watkins_William_Lab6_Part2.c: 447:     temp = temperature * 0.0806;
  1986  003296  C0CE  F008         	movff	_temperature,___xxtofl@val
  1987  00329A  C0CF  F009         	movff	_temperature+1,___xxtofl@val+1
  1988  00329E  6A0A               	clrf	(___xxtofl@val+2)^0,c
  1989  0032A0  6A0B               	clrf	(___xxtofl@val+3)^0,c
  1990  0032A2  0E00               	movlw	0
  1991  0032A4  EC5D  F018         	call	___xxtofl
  1992  0032A8  C008  F016         	movff	?___xxtofl,___flmul@b
  1993  0032AC  C009  F017         	movff	?___xxtofl+1,___flmul@b+1
  1994  0032B0  C00A  F018         	movff	?___xxtofl+2,___flmul@b+2
  1995  0032B4  C00B  F019         	movff	?___xxtofl+3,___flmul@b+3
  1996  0032B8  0E9D               	movlw	157
  1997  0032BA  6E1A               	movwf	___flmul@a^0,c
  1998  0032BC  0E11               	movlw	17
  1999  0032BE  6E1B               	movwf	(___flmul@a+1)^0,c
  2000  0032C0  0EA5               	movlw	165
  2001  0032C2  6E1C               	movwf	(___flmul@a+2)^0,c
  2002  0032C4  0E3D               	movlw	61
  2003  0032C6  6E1D               	movwf	(___flmul@a+3)^0,c
  2004  0032C8  EC72  F013         	call	___flmul	;wreg free
  2005  0032CC  C016  F0BC         	movff	?___flmul,_temp
  2006  0032D0  C017  F0BD         	movff	?___flmul+1,_temp+1
  2007  0032D4  C018  F0BE         	movff	?___flmul+2,_temp+2
  2008  0032D8  C019  F0BF         	movff	?___flmul+3,_temp+3
  2009  0032DC                     
  2010                           ;C:/Users/Will/Universal Documents/Academics/CU Boulder/2021/Fall 2021/Microavionics/Lab
      +                          s/Lab6/Watkins_William_Lab6_Part2.c: 448:     pot = potentiometer * 0.000806;
  2011  0032DC  C0CC  F008         	movff	_potentiometer,___xxtofl@val
  2012  0032E0  C0CD  F009         	movff	_potentiometer+1,___xxtofl@val+1
  2013  0032E4  6A0A               	clrf	(___xxtofl@val+2)^0,c
  2014  0032E6  6A0B               	clrf	(___xxtofl@val+3)^0,c
  2015  0032E8  0E00               	movlw	0
  2016  0032EA  EC5D  F018         	call	___xxtofl
  2017  0032EE  C008  F016         	movff	?___xxtofl,___flmul@b
  2018  0032F2  C009  F017         	movff	?___xxtofl+1,___flmul@b+1
  2019  0032F6  C00A  F018         	movff	?___xxtofl+2,___flmul@b+2
  2020  0032FA  C00B  F019         	movff	?___xxtofl+3,___flmul@b+3
  2021  0032FE  0EBF               	movlw	191
  2022  003300  6E1A               	movwf	___flmul@a^0,c
  2023  003302  0E49               	movlw	73
  2024  003304  6E1B               	movwf	(___flmul@a+1)^0,c
  2025  003306  0E53               	movlw	83
  2026  003308  6E1C               	movwf	(___flmul@a+2)^0,c
  2027  00330A  0E3A               	movlw	58
  2028  00330C  6E1D               	movwf	(___flmul@a+3)^0,c
  2029  00330E  EC72  F013         	call	___flmul	;wreg free
  2030  003312  C016  F0B8         	movff	?___flmul,_pot
  2031  003316  C017  F0B9         	movff	?___flmul+1,_pot+1
  2032  00331A  C018  F0BA         	movff	?___flmul+2,_pot+2
  2033  00331E  C019  F0BB         	movff	?___flmul+3,_pot+3
  2034  003322                     
  2035                           ;C:/Users/Will/Universal Documents/Academics/CU Boulder/2021/Fall 2021/Microavionics/Lab
      +                          s/Lab6/Watkins_William_Lab6_Part2.c: 451:     sprintf(potLCD, "%1.2f", pot);
  2036  003322  0EEE               	movlw	low _potLCD
  2037  003324  0100               	movlb	0	; () banked
  2038  003326  6FB0               	movwf	sprintf@s& (0+255),b
  2039  003328  0E00               	movlw	high _potLCD
  2040  00332A  6FB1               	movwf	(sprintf@s+1)& (0+255),b
  2041  00332C  0E10               	movlw	low STR_1
  2042  00332E  6FB2               	movwf	sprintf@fmt& (0+255),b
  2043  003330  0E10               	movlw	high STR_1
  2044  003332  6FB3               	movwf	(sprintf@fmt+1)& (0+255),b
  2045  003334  C0B8  F0B4         	movff	_pot,?_sprintf+4
  2046  003338  C0B9  F0B5         	movff	_pot+1,?_sprintf+5
  2047  00333C  C0BA  F0B6         	movff	_pot+2,?_sprintf+6
  2048  003340  C0BB  F0B7         	movff	_pot+3,?_sprintf+7
  2049  003344  EC05  F023         	call	_sprintf	;wreg free
  2050  003348                     
  2051                           ;C:/Users/Will/Universal Documents/Academics/CU Boulder/2021/Fall 2021/Microavionics/Lab
      +                          s/Lab6/Watkins_William_Lab6_Part2.c: 452:     row2LCD[4] = potLCD[0];
  2052  003348  C0EE  F1B3         	movff	_potLCD,_row2LCD+4
  2053  00334C                     
  2054                           ;C:/Users/Will/Universal Documents/Academics/CU Boulder/2021/Fall 2021/Microavionics/Lab
      +                          s/Lab6/Watkins_William_Lab6_Part2.c: 453:     row2LCD[6] = potLCD[2];
  2055  00334C  C0F0  F1B5         	movff	_potLCD+2,_row2LCD+6
  2056  003350                     
  2057                           ;C:/Users/Will/Universal Documents/Academics/CU Boulder/2021/Fall 2021/Microavionics/Lab
      +                          s/Lab6/Watkins_William_Lab6_Part2.c: 454:     row2LCD[7] = potLCD[3];
  2058  003350  C0F1  F1B6         	movff	_potLCD+3,_row2LCD+7
  2059  003354                     
  2060                           ;C:/Users/Will/Universal Documents/Academics/CU Boulder/2021/Fall 2021/Microavionics/Lab
      +                          s/Lab6/Watkins_William_Lab6_Part2.c: 455:     potSend[0] = potLCD[0];
  2061  003354  C0EE  F179         	movff	_potLCD,_potSend
  2062  003358                     
  2063                           ;C:/Users/Will/Universal Documents/Academics/CU Boulder/2021/Fall 2021/Microavionics/Lab
      +                          s/Lab6/Watkins_William_Lab6_Part2.c: 456:     potSend[2] = potLCD[2];
  2064  003358  C0F0  F17B         	movff	_potLCD+2,_potSend+2
  2065  00335C                     
  2066                           ;C:/Users/Will/Universal Documents/Academics/CU Boulder/2021/Fall 2021/Microavionics/Lab
      +                          s/Lab6/Watkins_William_Lab6_Part2.c: 457:     potSend[3] = potLCD[3];
  2067  00335C  C0F1  F17C         	movff	_potLCD+3,_potSend+3
  2068  003360                     
  2069                           ;C:/Users/Will/Universal Documents/Academics/CU Boulder/2021/Fall 2021/Microavionics/Lab
      +                          s/Lab6/Watkins_William_Lab6_Part2.c: 458:     contSend[12] = potLCD[0];
  2070  003360  C0EE  F172         	movff	_potLCD,_contSend+12
  2071  003364                     
  2072                           ;C:/Users/Will/Universal Documents/Academics/CU Boulder/2021/Fall 2021/Microavionics/Lab
      +                          s/Lab6/Watkins_William_Lab6_Part2.c: 459:     contSend[14] = potLCD[2];
  2073  003364  C0F0  F174         	movff	_potLCD+2,_contSend+14
  2074  003368                     
  2075                           ;C:/Users/Will/Universal Documents/Academics/CU Boulder/2021/Fall 2021/Microavionics/Lab
      +                          s/Lab6/Watkins_William_Lab6_Part2.c: 460:     contSend[15] = potLCD[3];
  2076  003368  C0F1  F175         	movff	_potLCD+3,_contSend+15
  2077  00336C                     
  2078                           ;C:/Users/Will/Universal Documents/Academics/CU Boulder/2021/Fall 2021/Microavionics/Lab
      +                          s/Lab6/Watkins_William_Lab6_Part2.c: 463:     sprintf(tempLCD, "%2.1f", temp);
  2079  00336C  0EF4               	movlw	low _tempLCD
  2080  00336E  0100               	movlb	0	; () banked
  2081  003370  6FB0               	movwf	sprintf@s& (0+255),b
  2082  003372  0E00               	movlw	high _tempLCD
  2083  003374  6FB1               	movwf	(sprintf@s+1)& (0+255),b
  2084  003376  0E0A               	movlw	low STR_2
  2085  003378  6FB2               	movwf	sprintf@fmt& (0+255),b
  2086  00337A  0E10               	movlw	high STR_2
  2087  00337C  6FB3               	movwf	(sprintf@fmt+1)& (0+255),b
  2088  00337E  C0BC  F0B4         	movff	_temp,?_sprintf+4
  2089  003382  C0BD  F0B5         	movff	_temp+1,?_sprintf+5
  2090  003386  C0BE  F0B6         	movff	_temp+2,?_sprintf+6
  2091  00338A  C0BF  F0B7         	movff	_temp+3,?_sprintf+7
  2092  00338E  EC05  F023         	call	_sprintf	;wreg free
  2093  003392                     
  2094                           ;C:/Users/Will/Universal Documents/Academics/CU Boulder/2021/Fall 2021/Microavionics/Lab
      +                          s/Lab6/Watkins_William_Lab6_Part2.c: 465:     if (temp<10.0) {
  2095  003392  C0BC  F02F         	movff	_temp,___flge@ff1
  2096  003396  C0BD  F030         	movff	_temp+1,___flge@ff1+1
  2097  00339A  C0BE  F031         	movff	_temp+2,___flge@ff1+2
  2098  00339E  C0BF  F032         	movff	_temp+3,___flge@ff1+3
  2099  0033A2  0E00               	movlw	0
  2100  0033A4  6E33               	movwf	___flge@ff2^0,c
  2101  0033A6  0E00               	movlw	0
  2102  0033A8  6E34               	movwf	(___flge@ff2+1)^0,c
  2103  0033AA  0E20               	movlw	32
  2104  0033AC  6E35               	movwf	(___flge@ff2+2)^0,c
  2105  0033AE  0E41               	movlw	65
  2106  0033B0  6E36               	movwf	(___flge@ff2+3)^0,c
  2107  0033B2  ECE8  F01B         	call	___flge	;wreg free
  2108  0033B6  B0D8               	btfsc	status,0,c
  2109  0033B8  EFE0  F019         	goto	u8221
  2110  0033BC  EFE2  F019         	goto	u8220
  2111  0033C0                     u8221:
  2112  0033C0  EFF7  F019         	goto	l322
  2113  0033C4                     u8220:
  2114  0033C4                     
  2115                           ;C:/Users/Will/Universal Documents/Academics/CU Boulder/2021/Fall 2021/Microavionics/Lab
      +                          s/Lab6/Watkins_William_Lab6_Part2.c: 466:         row1LCD[3] = '0';
  2116  0033C4  0E30               	movlw	48
  2117  0033C6  0101               	movlb	1	; () banked
  2118  0033C8  6FBC               	movwf	(_row1LCD+3)& (0+255),b
  2119  0033CA                     
  2120                           ; BSR set to: 1
  2121                           ;C:/Users/Will/Universal Documents/Academics/CU Boulder/2021/Fall 2021/Microavionics/Lab
      +                          s/Lab6/Watkins_William_Lab6_Part2.c: 467:         row1LCD[4] = tempLCD[0];
  2122  0033CA  C0F4  F1BD         	movff	_tempLCD,_row1LCD+4
  2123  0033CE                     
  2124                           ; BSR set to: 1
  2125                           ;C:/Users/Will/Universal Documents/Academics/CU Boulder/2021/Fall 2021/Microavionics/Lab
      +                          s/Lab6/Watkins_William_Lab6_Part2.c: 468:         row1LCD[6] = tempLCD[2];
  2126  0033CE  C0F6  F1BF         	movff	_tempLCD+2,_row1LCD+6
  2127                           
  2128                           ;C:/Users/Will/Universal Documents/Academics/CU Boulder/2021/Fall 2021/Microavionics/Lab
      +                          s/Lab6/Watkins_William_Lab6_Part2.c: 469:         tempSend[0] = '0';
  2129  0033D2  0E30               	movlw	48
  2130  0033D4  6F80               	movwf	_tempSend& (0+255),b
  2131  0033D6                     
  2132                           ; BSR set to: 1
  2133                           ;C:/Users/Will/Universal Documents/Academics/CU Boulder/2021/Fall 2021/Microavionics/Lab
      +                          s/Lab6/Watkins_William_Lab6_Part2.c: 470:         tempSend[1] = tempLCD[0];
  2134  0033D6  C0F4  F181         	movff	_tempLCD,_tempSend+1
  2135  0033DA                     
  2136                           ; BSR set to: 1
  2137                           ;C:/Users/Will/Universal Documents/Academics/CU Boulder/2021/Fall 2021/Microavionics/Lab
      +                          s/Lab6/Watkins_William_Lab6_Part2.c: 471:         tempSend[3] = tempLCD[2];
  2138  0033DA  C0F6  F183         	movff	_tempLCD+2,_tempSend+3
  2139                           
  2140                           ;C:/Users/Will/Universal Documents/Academics/CU Boulder/2021/Fall 2021/Microavionics/Lab
      +                          s/Lab6/Watkins_William_Lab6_Part2.c: 472:         contSend[2] = '0';
  2141  0033DE  0E30               	movlw	48
  2142  0033E0  6F68               	movwf	(_contSend+2)& (0+255),b
  2143  0033E2                     
  2144                           ; BSR set to: 1
  2145                           ;C:/Users/Will/Universal Documents/Academics/CU Boulder/2021/Fall 2021/Microavionics/Lab
      +                          s/Lab6/Watkins_William_Lab6_Part2.c: 473:         contSend[3] = tempLCD[0];
  2146  0033E2  C0F4  F169         	movff	_tempLCD,_contSend+3
  2147  0033E6                     
  2148                           ; BSR set to: 1
  2149                           ;C:/Users/Will/Universal Documents/Academics/CU Boulder/2021/Fall 2021/Microavionics/Lab
      +                          s/Lab6/Watkins_William_Lab6_Part2.c: 474:         contSend[5] = tempLCD[2];
  2150  0033E6  C0F6  F16B         	movff	_tempLCD+2,_contSend+5
  2151                           
  2152                           ;C:/Users/Will/Universal Documents/Academics/CU Boulder/2021/Fall 2021/Microavionics/Lab
      +                          s/Lab6/Watkins_William_Lab6_Part2.c: 475:     }
  2153  0033EA  EF09  F01A         	goto	l324
  2154  0033EE                     l322:
  2155                           
  2156                           ;C:/Users/Will/Universal Documents/Academics/CU Boulder/2021/Fall 2021/Microavionics/Lab
      +                          s/Lab6/Watkins_William_Lab6_Part2.c: 477:         row1LCD[3] = tempLCD[0];
  2157  0033EE  C0F4  F1BC         	movff	_tempLCD,_row1LCD+3
  2158                           
  2159                           ;C:/Users/Will/Universal Documents/Academics/CU Boulder/2021/Fall 2021/Microavionics/Lab
      +                          s/Lab6/Watkins_William_Lab6_Part2.c: 478:         row1LCD[4] = tempLCD[1];
  2160  0033F2  C0F5  F1BD         	movff	_tempLCD+1,_row1LCD+4
  2161                           
  2162                           ;C:/Users/Will/Universal Documents/Academics/CU Boulder/2021/Fall 2021/Microavionics/Lab
      +                          s/Lab6/Watkins_William_Lab6_Part2.c: 479:         row1LCD[6] = tempLCD[3];
  2163  0033F6  C0F7  F1BF         	movff	_tempLCD+3,_row1LCD+6
  2164                           
  2165                           ;C:/Users/Will/Universal Documents/Academics/CU Boulder/2021/Fall 2021/Microavionics/Lab
      +                          s/Lab6/Watkins_William_Lab6_Part2.c: 480:         tempSend[0] = tempLCD[0];
  2166  0033FA  C0F4  F180         	movff	_tempLCD,_tempSend
  2167                           
  2168                           ;C:/Users/Will/Universal Documents/Academics/CU Boulder/2021/Fall 2021/Microavionics/Lab
      +                          s/Lab6/Watkins_William_Lab6_Part2.c: 481:         tempSend[1] = tempLCD[1];
  2169  0033FE  C0F5  F181         	movff	_tempLCD+1,_tempSend+1
  2170                           
  2171                           ;C:/Users/Will/Universal Documents/Academics/CU Boulder/2021/Fall 2021/Microavionics/Lab
      +                          s/Lab6/Watkins_William_Lab6_Part2.c: 482:         tempSend[3] = tempLCD[3];
  2172  003402  C0F7  F183         	movff	_tempLCD+3,_tempSend+3
  2173                           
  2174                           ;C:/Users/Will/Universal Documents/Academics/CU Boulder/2021/Fall 2021/Microavionics/Lab
      +                          s/Lab6/Watkins_William_Lab6_Part2.c: 483:         contSend[2] = tempLCD[0];
  2175  003406  C0F4  F168         	movff	_tempLCD,_contSend+2
  2176                           
  2177                           ;C:/Users/Will/Universal Documents/Academics/CU Boulder/2021/Fall 2021/Microavionics/Lab
      +                          s/Lab6/Watkins_William_Lab6_Part2.c: 484:         contSend[3] = tempLCD[1];
  2178  00340A  C0F5  F169         	movff	_tempLCD+1,_contSend+3
  2179                           
  2180                           ;C:/Users/Will/Universal Documents/Academics/CU Boulder/2021/Fall 2021/Microavionics/Lab
      +                          s/Lab6/Watkins_William_Lab6_Part2.c: 485:         contSend[5] = tempLCD[3];
  2181  00340E  C0F7  F16B         	movff	_tempLCD+3,_contSend+5
  2182  003412                     l324:
  2183  003412  0012               	return		;funcret
  2184  003414                     __end_of_handleADC:
  2185                           	callstack 0
  2186                           
  2187 ;; *************** function _sprintf *****************
  2188 ;; Defined at:
  2189 ;;		line 9 in file "C:\Program Files\Microchip\xc8\v2.32\pic\sources\c99\common\nf_sprintf.c"
  2190 ;; Parameters:    Size  Location     Type
  2191 ;;  s               2   80[BANK0 ] PTR unsigned char 
  2192 ;;		 -> tempLCD(6), potLCD(6), 
  2193 ;;  fmt             2   82[BANK0 ] PTR const unsigned char 
  2194 ;;		 -> STR_2(6), STR_1(6), 
  2195 ;; Auto vars:     Size  Location     Type
  2196 ;;  f               6    2[BANK1 ] struct _IO_FILE
  2197 ;;  ap              2    0[BANK1 ] PTR void [1]
  2198 ;;		 -> ?_sprintf(2), 
  2199 ;;  ret             2    0        int 
  2200 ;; Return value:  Size  Location     Type
  2201 ;;                  2   80[BANK0 ] int 
  2202 ;; Registers used:
  2203 ;;		wreg, fsr1l, fsr1h, fsr2l, fsr2h, status,2, status,0, tblptrl, tblptrh, tblptru, prodl, prodh, cstack
  2204 ;; Tracked objects:
  2205 ;;		On entry : 0/0
  2206 ;;		On exit  : 0/0
  2207 ;;		Unchanged: 0/0
  2208 ;; Data sizes:     COMRAM   BANK0   BANK1   BANK2   BANK3   BANK4   BANK5   BANK6   BANK7   BANK8   BANK9  BANK10  BANK1
      +1  BANK12  BANK13  BANK14  BANK15
  2209 ;;      Params:         0       8       0       0       0       0       0       0       0       0       0       0       
      +0       0       0       0       0
  2210 ;;      Locals:         0       0       8       0       0       0       0       0       0       0       0       0       
      +0       0       0       0       0
  2211 ;;      Temps:          0       0       0       0       0       0       0       0       0       0       0       0       
      +0       0       0       0       0
  2212 ;;      Totals:         0       8       8       0       0       0       0       0       0       0       0       0       
      +0       0       0       0       0
  2213 ;;Total ram usage:       16 bytes
  2214 ;; Hardware stack levels used: 1
  2215 ;; Hardware stack levels required when called: 12
  2216 ;; This function calls:
  2217 ;;		_vfprintf
  2218 ;; This function is called by:
  2219 ;;		_handleADC
  2220 ;; This function uses a non-reentrant model
  2221 ;;
  2222                           
  2223                           	psect	text7
  2224  00460A                     __ptext7:
  2225                           	callstack 0
  2226  00460A                     _sprintf:
  2227                           	callstack 17
  2228  00460A  0EB4               	movlw	low (?_sprintf+4)
  2229  00460C  0101               	movlb	1	; () banked
  2230  00460E  6FC2               	movwf	sprintf@ap& (0+255),b
  2231  004610  0E00               	movlw	high (?_sprintf+4)
  2232  004612  6FC3               	movwf	(sprintf@ap+1)& (0+255),b
  2233  004614  C0B0  F1C4         	movff	sprintf@s,sprintf@f
  2234  004618  C0B1  F1C5         	movff	sprintf@s+1,sprintf@f+1
  2235  00461C                     
  2236                           ; BSR set to: 1
  2237  00461C  0E00               	movlw	0
  2238  00461E  6FC7               	movwf	(sprintf@f+3)& (0+255),b
  2239  004620  0E00               	movlw	0
  2240  004622  6FC6               	movwf	(sprintf@f+2)& (0+255),b
  2241  004624                     
  2242                           ; BSR set to: 1
  2243  004624  0E00               	movlw	0
  2244  004626  6FC9               	movwf	(sprintf@f+5)& (0+255),b
  2245  004628  0E00               	movlw	0
  2246  00462A  6FC8               	movwf	(sprintf@f+4)& (0+255),b
  2247  00462C                     
  2248                           ; BSR set to: 1
  2249  00462C  0EC4               	movlw	low sprintf@f
  2250  00462E  0100               	movlb	0	; () banked
  2251  004630  6FAA               	movwf	vfprintf@fp& (0+255),b
  2252  004632  0E01               	movlw	high sprintf@f
  2253  004634  6FAB               	movwf	(vfprintf@fp+1)& (0+255),b
  2254  004636  C0B2  F0AC         	movff	sprintf@fmt,vfprintf@fmt
  2255  00463A  C0B3  F0AD         	movff	sprintf@fmt+1,vfprintf@fmt+1
  2256  00463E  0EC2               	movlw	low sprintf@ap
  2257  004640  6FAE               	movwf	vfprintf@ap& (0+255),b
  2258  004642  0E01               	movlw	high sprintf@ap
  2259  004644  6FAF               	movwf	(vfprintf@ap+1)& (0+255),b
  2260  004646  EC45  F022         	call	_vfprintf	;wreg free
  2261  00464A  0101               	movlb	1	; () banked
  2262  00464C  51C6               	movf	(sprintf@f+2)& (0+255),w,b
  2263  00464E  0100               	movlb	0	; () banked
  2264  004650  25B0               	addwf	sprintf@s& (0+255),w,b
  2265  004652  6ED9               	movwf	fsr2l,c
  2266  004654  0101               	movlb	1	; () banked
  2267  004656  51C7               	movf	(sprintf@f+3)& (0+255),w,b
  2268  004658  0100               	movlb	0	; () banked
  2269  00465A  21B1               	addwfc	(sprintf@s+1)& (0+255),w,b
  2270  00465C  6EDA               	movwf	fsr2h,c
  2271  00465E  0E00               	movlw	0
  2272  004660  6EDF               	movwf	indf2,c
  2273  004662                     
  2274                           ; BSR set to: 0
  2275  004662  0012               	return		;funcret
  2276  004664                     __end_of_sprintf:
  2277                           	callstack 0
  2278                           
  2279 ;; *************** function _vfprintf *****************
  2280 ;; Defined at:
  2281 ;;		line 1390 in file "C:\Program Files\Microchip\xc8\v2.32\pic\sources\c99\common\doprnt.c"
  2282 ;; Parameters:    Size  Location     Type
  2283 ;;  fp              2   74[BANK0 ] PTR struct _IO_FILE
  2284 ;;		 -> sprintf@f(6), 
  2285 ;;  fmt             2   76[BANK0 ] PTR const unsigned char 
  2286 ;;		 -> STR_2(6), STR_1(6), 
  2287 ;;  ap              2   78[BANK0 ] PTR PTR void 
  2288 ;;		 -> sprintf@ap(2), 
  2289 ;; Auto vars:     Size  Location     Type
  2290 ;;  cfmt            2   76[COMRAM] PTR unsigned char 
  2291 ;;		 -> STR_2(6), STR_1(6), 
  2292 ;; Return value:  Size  Location     Type
  2293 ;;                  2   74[BANK0 ] int 
  2294 ;; Registers used:
  2295 ;;		wreg, fsr1l, fsr1h, fsr2l, fsr2h, status,2, status,0, tblptrl, tblptrh, tblptru, prodl, prodh, cstack
  2296 ;; Tracked objects:
  2297 ;;		On entry : 0/0
  2298 ;;		On exit  : 0/0
  2299 ;;		Unchanged: 0/0
  2300 ;; Data sizes:     COMRAM   BANK0   BANK1   BANK2   BANK3   BANK4   BANK5   BANK6   BANK7   BANK8   BANK9  BANK10  BANK1
      +1  BANK12  BANK13  BANK14  BANK15
  2301 ;;      Params:         0       6       0       0       0       0       0       0       0       0       0       0       
      +0       0       0       0       0
  2302 ;;      Locals:         2       0       0       0       0       0       0       0       0       0       0       0       
      +0       0       0       0       0
  2303 ;;      Temps:          0       0       0       0       0       0       0       0       0       0       0       0       
      +0       0       0       0       0
  2304 ;;      Totals:         2       6       0       0       0       0       0       0       0       0       0       0       
      +0       0       0       0       0
  2305 ;;Total ram usage:        8 bytes
  2306 ;; Hardware stack levels used: 1
  2307 ;; Hardware stack levels required when called: 11
  2308 ;; This function calls:
  2309 ;;		_vfpfcnvrt
  2310 ;; This function is called by:
  2311 ;;		_sprintf
  2312 ;; This function uses a non-reentrant model
  2313 ;;
  2314                           
  2315                           	psect	text8
  2316  00448A                     __ptext8:
  2317                           	callstack 0
  2318  00448A                     _vfprintf:
  2319                           	callstack 17
  2320  00448A                     
  2321                           ;C:\Program Files\Microchip\xc8\v2.32\pic\sources\c99\common\doprnt.c: 1390: int vfprint
      +                          f(FILE *fp, const char *fmt, va_list ap);C:\Program Files\Microchip\xc8\v2.32\pic\source
      +                          s\c99\common\doprnt.c: 1391: {;C:\Program Files\Microchip\xc8\v2.32\pic\sources\c99\comm
      +                          on\doprnt.c: 1393:     char *cfmt;;C:\Program Files\Microchip\xc8\v2.32\pic\sources\c99\
      +                          common\doprnt.c: 1395:     cfmt = (char *)fmt;
  2322  00448A  C0AC  F04D         	movff	vfprintf@fmt,vfprintf@cfmt
  2323  00448E  C0AD  F04E         	movff	vfprintf@fmt+1,vfprintf@cfmt+1
  2324  004492                     
  2325                           ;C:\Program Files\Microchip\xc8\v2.32\pic\sources\c99\common\doprnt.c: 1396:     nout = 
      +                          0;
  2326  004492  0E00               	movlw	0
  2327  004494  0100               	movlb	0	; () banked
  2328  004496  6FC1               	movwf	(_nout+1)& (0+255),b
  2329  004498  0E00               	movlw	0
  2330  00449A  6FC0               	movwf	_nout& (0+255),b
  2331                           
  2332                           ;C:\Program Files\Microchip\xc8\v2.32\pic\sources\c99\common\doprnt.c: 1397:     while (
      +                          *cfmt) {
  2333  00449C  EF63  F022         	goto	l6383
  2334  0044A0                     l6381:
  2335                           
  2336                           ; BSR set to: 0
  2337                           ;C:\Program Files\Microchip\xc8\v2.32\pic\sources\c99\common\doprnt.c: 1398:         nou
      +                          t += vfpfcnvrt(fp, &cfmt, ap);
  2338  0044A0  C0AA  F047         	movff	vfprintf@fp,vfpfcnvrt@fp
  2339  0044A4  C0AB  F048         	movff	vfprintf@fp+1,vfpfcnvrt@fp+1
  2340  0044A8  0E4D               	movlw	low vfprintf@cfmt
  2341  0044AA  6E49               	movwf	vfpfcnvrt@fmt^0,c
  2342  0044AC  0E00               	movlw	high vfprintf@cfmt
  2343  0044AE  6E4A               	movwf	(vfpfcnvrt@fmt+1)^0,c
  2344  0044B0  C0AE  F04B         	movff	vfprintf@ap,vfpfcnvrt@ap
  2345  0044B4  C0AF  F04C         	movff	vfprintf@ap+1,vfpfcnvrt@ap+1
  2346  0044B8  EC42  F00E         	call	_vfpfcnvrt	;wreg free
  2347  0044BC  5047               	movf	?_vfpfcnvrt^0,w,c
  2348  0044BE  0100               	movlb	0	; () banked
  2349  0044C0  27C0               	addwf	_nout& (0+255),f,b
  2350  0044C2  5048               	movf	(?_vfpfcnvrt+1)^0,w,c
  2351  0044C4  23C1               	addwfc	(_nout+1)& (0+255),f,b
  2352  0044C6                     l6383:
  2353                           
  2354                           ; BSR set to: 0
  2355                           ;C:\Program Files\Microchip\xc8\v2.32\pic\sources\c99\common\doprnt.c: 1397:     while (
      +                          *cfmt) {
  2356  0044C6  C04D  FFF6         	movff	vfprintf@cfmt,tblptrl
  2357  0044CA  C04E  FFF7         	movff	vfprintf@cfmt+1,tblptrh
  2358  0044CE                     	if	0	;tblptru may be non-zero
  2359  0044CE                     	endif
  2360  0044CE                     	if	1	;Program memory is > 0xFFFF, there are 3 active tblptr bytes
  2361  0044CE  0E00               	movlw	low (__mediumconst shr (0+16))
  2362  0044D0  6EF8               	movwf	tblptru,c
  2363  0044D2                     	endif
  2364  0044D2  0008               	tblrd		*
  2365  0044D4  50F5               	movf	tablat,w,c
  2366  0044D6  0900               	iorlw	0
  2367  0044D8  A4D8               	btfss	status,2,c
  2368  0044DA  EF71  F022         	goto	u8211
  2369  0044DE  EF73  F022         	goto	u8210
  2370  0044E2                     u8211:
  2371  0044E2  EF50  F022         	goto	l6381
  2372  0044E6                     u8210:
  2373  0044E6                     
  2374                           ; BSR set to: 0
  2375                           ;C:\Program Files\Microchip\xc8\v2.32\pic\sources\c99\common\doprnt.c: 1400:     return 
      +                          nout;
  2376  0044E6  C0C0  F0AA         	movff	_nout,?_vfprintf
  2377  0044EA  C0C1  F0AB         	movff	_nout+1,?_vfprintf+1
  2378  0044EE                     
  2379                           ; BSR set to: 0
  2380  0044EE  0012               	return		;funcret
  2381  0044F0                     __end_of_vfprintf:
  2382                           	callstack 0
  2383                           
  2384 ;; *************** function _vfpfcnvrt *****************
  2385 ;; Defined at:
  2386 ;;		line 692 in file "C:\Program Files\Microchip\xc8\v2.32\pic\sources\c99\common\doprnt.c"
  2387 ;; Parameters:    Size  Location     Type
  2388 ;;  fp              2   70[COMRAM] PTR struct _IO_FILE
  2389 ;;		 -> sprintf@f(6), 
  2390 ;;  fmt             2   72[COMRAM] PTR PTR unsigned char 
  2391 ;;		 -> vfprintf@cfmt(2), 
  2392 ;;  ap              2   74[COMRAM] PTR PTR void 
  2393 ;;		 -> sprintf@ap(2), 
  2394 ;; Auto vars:     Size  Location     Type
  2395 ;;  llu             8    0        unsigned long long 
  2396 ;;  ll              8    0        long long 
  2397 ;;  f               4   66[BANK0 ] long long 
  2398 ;;  ct              3   70[BANK0 ] unsigned char [3]
  2399 ;;  vp              3    0        PTR void 
  2400 ;;  cp              3    0        PTR unsigned char 
  2401 ;;  i               2    0        int 
  2402 ;;  done            2    0        int 
  2403 ;;  c               1   73[BANK0 ] unsigned char 
  2404 ;; Return value:  Size  Location     Type
  2405 ;;                  2   70[COMRAM] int 
  2406 ;; Registers used:
  2407 ;;		wreg, fsr1l, fsr1h, fsr2l, fsr2h, status,2, status,0, tblptrl, tblptrh, tblptru, prodl, prodh, cstack
  2408 ;; Tracked objects:
  2409 ;;		On entry : 0/0
  2410 ;;		On exit  : 0/0
  2411 ;;		Unchanged: 0/0
  2412 ;; Data sizes:     COMRAM   BANK0   BANK1   BANK2   BANK3   BANK4   BANK5   BANK6   BANK7   BANK8   BANK9  BANK10  BANK1
      +1  BANK12  BANK13  BANK14  BANK15
  2413 ;;      Params:         6       0       0       0       0       0       0       0       0       0       0       0       
      +0       0       0       0       0
  2414 ;;      Locals:         0      14       0       0       0       0       0       0       0       0       0       0       
      +0       0       0       0       0
  2415 ;;      Temps:          0       4       0       0       0       0       0       0       0       0       0       0       
      +0       0       0       0       0
  2416 ;;      Totals:         6      18       0       0       0       0       0       0       0       0       0       0       
      +0       0       0       0       0
  2417 ;;Total ram usage:       24 bytes
  2418 ;; Hardware stack levels used: 1
  2419 ;; Hardware stack levels required when called: 10
  2420 ;; This function calls:
  2421 ;;		_atoi
  2422 ;;		_efgtoa
  2423 ;;		_fputc
  2424 ;;		_isdigit
  2425 ;;		_isupper
  2426 ;;		_strncmp
  2427 ;;		_tolower
  2428 ;; This function is called by:
  2429 ;;		_vfprintf
  2430 ;; This function uses a non-reentrant model
  2431 ;;
  2432                           
  2433                           	psect	text9
  2434  001C84                     __ptext9:
  2435                           	callstack 0
  2436  001C84                     _vfpfcnvrt:
  2437                           	callstack 17
  2438  001C84                     
  2439                           ;C:\Program Files\Microchip\xc8\v2.32\pic\sources\c99\common\doprnt.c: 692: static int v
      +                          fpfcnvrt(FILE *fp, char *fmt[], va_list ap);C:\Program Files\Microchip\xc8\v2.32\pic\sou
      +                          rces\c99\common\doprnt.c: 693: {;C:\Program Files\Microchip\xc8\v2.32\pic\sources\c99\co
      +                          mmon\doprnt.c: 694:     char c, *cp, ct[3];;C:\Program Files\Microchip\xc8\v2.32\pic\sou
      +                          rces\c99\common\doprnt.c: 695:     int done, i;;C:\Program Files\Microchip\xc8\v2.32\pic
      +                          \sources\c99\common\doprnt.c: 696:     long long ll;;C:\Program Files\Microchip\xc8\v2.3
      +                          2\pic\sources\c99\common\doprnt.c: 697:     unsigned long long llu;
  2440  001C84  C049  FFD9         	movff	vfpfcnvrt@fmt,fsr2l
  2441  001C88  C04A  FFDA         	movff	vfpfcnvrt@fmt+1,fsr2h
  2442  001C8C  CFDE FFF6          	movff	postinc2,tblptrl
  2443  001C90  CFDD FFF7          	movff	postdec2,tblptrh
  2444  001C94                     	if	0	;tblptru may be non-zero
  2445  001C94                     	endif
  2446  001C94                     	if	1	;Program memory is > 0xFFFF, there are 3 active tblptr bytes
  2447  001C94  0E00               	movlw	low (__mediumconst shr (0+16))
  2448  001C96  6EF8               	movwf	tblptru,c
  2449  001C98                     	endif
  2450  001C98  0008               	tblrd		*
  2451  001C9A  50F5               	movf	tablat,w,c
  2452  001C9C  0A25               	xorlw	37
  2453  001C9E  A4D8               	btfss	status,2,c
  2454  001CA0  EF54  F00E         	goto	u8021
  2455  001CA4  EF56  F00E         	goto	u8020
  2456  001CA8                     u8021:
  2457  001CA8  EFF4  F010         	goto	l6369
  2458  001CAC                     u8020:
  2459  001CAC                     
  2460                           ;C:\Program Files\Microchip\xc8\v2.32\pic\sources\c99\common\doprnt.c: 703:         ++*f
      +                          mt;
  2461  001CAC  C049  FFD9         	movff	vfpfcnvrt@fmt,fsr2l
  2462  001CB0  C04A  FFDA         	movff	vfpfcnvrt@fmt+1,fsr2h
  2463  001CB4  2ADE               	incf	postinc2,f,c
  2464  001CB6  0E00               	movlw	0
  2465  001CB8  22DD               	addwfc	postdec2,f,c
  2466  001CBA                     
  2467                           ;C:\Program Files\Microchip\xc8\v2.32\pic\sources\c99\common\doprnt.c: 705:         flag
      +                          s = width = 0;
  2468  001CBA  0E00               	movlw	0
  2469  001CBC  0100               	movlb	0	; () banked
  2470  001CBE  6FC3               	movwf	(_width+1)& (0+255),b
  2471  001CC0  0E00               	movlw	0
  2472  001CC2  6FC2               	movwf	_width& (0+255),b
  2473  001CC4  C0C2  F051         	movff	_width,_flags
  2474  001CC8  C0C3  F052         	movff	_width+1,_flags+1
  2475  001CCC                     
  2476                           ; BSR set to: 0
  2477                           ;C:\Program Files\Microchip\xc8\v2.32\pic\sources\c99\common\doprnt.c: 706:         prec
      +                           = -1;
  2478  001CCC  684F               	setf	_prec^0,c
  2479  001CCE  6850               	setf	(_prec+1)^0,c
  2480  001CD0                     
  2481                           ; BSR set to: 0
  2482                           ;C:\Program Files\Microchip\xc8\v2.32\pic\sources\c99\common\doprnt.c: 745:         if (
      +                          (*fmt)[0] == '*') {
  2483  001CD0  C049  FFD9         	movff	vfpfcnvrt@fmt,fsr2l
  2484  001CD4  C04A  FFDA         	movff	vfpfcnvrt@fmt+1,fsr2h
  2485  001CD8  CFDE FFF6          	movff	postinc2,tblptrl
  2486  001CDC  CFDD FFF7          	movff	postdec2,tblptrh
  2487  001CE0                     	if	0	;tblptru may be non-zero
  2488  001CE0                     	endif
  2489  001CE0                     	if	1	;Program memory is > 0xFFFF, there are 3 active tblptr bytes
  2490  001CE0  0E00               	movlw	low (__mediumconst shr (0+16))
  2491  001CE2  6EF8               	movwf	tblptru,c
  2492  001CE4                     	endif
  2493  001CE4  0008               	tblrd		*
  2494  001CE6  50F5               	movf	tablat,w,c
  2495  001CE8  0A2A               	xorlw	42
  2496  001CEA  A4D8               	btfss	status,2,c
  2497  001CEC  EF7A  F00E         	goto	u8031
  2498  001CF0  EF7C  F00E         	goto	u8030
  2499  001CF4                     u8031:
  2500  001CF4  EFA5  F00E         	goto	l6285
  2501  001CF8                     u8030:
  2502  001CF8                     
  2503                           ; BSR set to: 0
  2504                           ;C:\Program Files\Microchip\xc8\v2.32\pic\sources\c99\common\doprnt.c: 746:             
      +                          ++*fmt;
  2505  001CF8  C049  FFD9         	movff	vfpfcnvrt@fmt,fsr2l
  2506  001CFC  C04A  FFDA         	movff	vfpfcnvrt@fmt+1,fsr2h
  2507  001D00  2ADE               	incf	postinc2,f,c
  2508  001D02  0E00               	movlw	0
  2509  001D04  22DD               	addwfc	postdec2,f,c
  2510                           
  2511                           ;C:\Program Files\Microchip\xc8\v2.32\pic\sources\c99\common\doprnt.c: 747:             
      +                          width = (*(int *)__va_arg(*(int **)ap, (int)0));
  2512  001D06  C04B  FFD9         	movff	vfpfcnvrt@ap,fsr2l
  2513  001D0A  C04C  FFDA         	movff	vfpfcnvrt@ap+1,fsr2h
  2514  001D0E  CFDF F098          	movff	indf2,??_vfpfcnvrt
  2515  001D12  0E02               	movlw	2
  2516  001D14  26DE               	addwf	postinc2,f,c
  2517  001D16  CFDF F099          	movff	indf2,??_vfpfcnvrt+1
  2518  001D1A  0E00               	movlw	0
  2519  001D1C  22DD               	addwfc	postdec2,f,c
  2520  001D1E  C098  FFD9         	movff	??_vfpfcnvrt,fsr2l
  2521  001D22  C099  FFDA         	movff	??_vfpfcnvrt+1,fsr2h
  2522  001D26  CFDE F0C2          	movff	postinc2,_width
  2523  001D2A  CFDD F0C3          	movff	postdec2,_width+1
  2524  001D2E                     
  2525                           ; BSR set to: 0
  2526                           ;C:\Program Files\Microchip\xc8\v2.32\pic\sources\c99\common\doprnt.c: 748:             
      +                          if (width < 0) {
  2527  001D2E  BFC3               	btfsc	(_width+1)& (0+255),7,b
  2528  001D30  EF9E  F00E         	goto	u8040
  2529  001D34  EF9C  F00E         	goto	u8041
  2530  001D38                     u8041:
  2531  001D38  EFEB  F00E         	goto	l6295
  2532  001D3C                     u8040:
  2533  001D3C                     
  2534                           ; BSR set to: 0
  2535                           ;C:\Program Files\Microchip\xc8\v2.32\pic\sources\c99\common\doprnt.c: 749:             
      +                              flags |= (1 << 0);
  2536  001D3C  8051               	bsf	_flags^0,0,c
  2537                           
  2538                           ;C:\Program Files\Microchip\xc8\v2.32\pic\sources\c99\common\doprnt.c: 750:             
      +                              width = -width;
  2539  001D3E  6DC2               	negf	_width& (0+255),b
  2540  001D40  1FC3               	comf	(_width+1)& (0+255),f,b
  2541  001D42  B0D8               	btfsc	status,0,c
  2542  001D44  2BC3               	incf	(_width+1)& (0+255),f,b
  2543  001D46  EFEB  F00E         	goto	l6295
  2544  001D4A                     l6285:
  2545                           
  2546                           ; BSR set to: 0
  2547                           ;C:\Program Files\Microchip\xc8\v2.32\pic\sources\c99\common\doprnt.c: 753:             
      +                          width = atoi(*fmt);
  2548  001D4A  C049  FFD9         	movff	vfpfcnvrt@fmt,fsr2l
  2549  001D4E  C04A  FFDA         	movff	vfpfcnvrt@fmt+1,fsr2h
  2550  001D52  CFDE F00F          	movff	postinc2,atoi@s
  2551  001D56  CFDD F010          	movff	postdec2,atoi@s+1
  2552  001D5A  EC0A  F01A         	call	_atoi	;wreg free
  2553  001D5E  C00F  F0C2         	movff	?_atoi,_width
  2554  001D62  C010  F0C3         	movff	?_atoi+1,_width+1
  2555                           
  2556                           ;C:\Program Files\Microchip\xc8\v2.32\pic\sources\c99\common\doprnt.c: 754:             
      +                          while ((0 ? isdigit((*fmt)[0]) : ((unsigned)((*fmt)[0])-'0') < 10)) {
  2557  001D66  EFBC  F00E         	goto	l6289
  2558  001D6A                     l6287:
  2559                           
  2560                           ; BSR set to: 0
  2561                           ;C:\Program Files\Microchip\xc8\v2.32\pic\sources\c99\common\doprnt.c: 755:             
      +                              ++*fmt;
  2562  001D6A  C049  FFD9         	movff	vfpfcnvrt@fmt,fsr2l
  2563  001D6E  C04A  FFDA         	movff	vfpfcnvrt@fmt+1,fsr2h
  2564  001D72  2ADE               	incf	postinc2,f,c
  2565  001D74  0E00               	movlw	0
  2566  001D76  22DD               	addwfc	postdec2,f,c
  2567  001D78                     l6289:
  2568  001D78  0ED0               	movlw	208
  2569  001D7A  0100               	movlb	0	; () banked
  2570  001D7C  6F98               	movwf	??_vfpfcnvrt& (0+255),b
  2571  001D7E  0EFF               	movlw	255
  2572  001D80  6F99               	movwf	(??_vfpfcnvrt+1)& (0+255),b
  2573  001D82  C049  FFD9         	movff	vfpfcnvrt@fmt,fsr2l
  2574  001D86  C04A  FFDA         	movff	vfpfcnvrt@fmt+1,fsr2h
  2575  001D8A  CFDE FFF6          	movff	postinc2,tblptrl
  2576  001D8E  CFDD FFF7          	movff	postdec2,tblptrh
  2577  001D92                     	if	0	;tblptru may be non-zero
  2578  001D92                     	endif
  2579  001D92                     	if	1	;Program memory is > 0xFFFF, there are 3 active tblptr bytes
  2580  001D92  0E00               	movlw	low (__mediumconst shr (0+16))
  2581  001D94  6EF8               	movwf	tblptru,c
  2582  001D96                     	endif
  2583  001D96  0008               	tblrd		*
  2584  001D98  50F5               	movf	tablat,w,c
  2585  001D9A  6F9A               	movwf	(??_vfpfcnvrt+2)& (0+255),b
  2586  001D9C  6B9B               	clrf	(??_vfpfcnvrt+3)& (0+255),b
  2587  001D9E  5198               	movf	??_vfpfcnvrt& (0+255),w,b
  2588  001DA0  279A               	addwf	(??_vfpfcnvrt+2)& (0+255),f,b
  2589  001DA2  5199               	movf	(??_vfpfcnvrt+1)& (0+255),w,b
  2590  001DA4  239B               	addwfc	(??_vfpfcnvrt+3)& (0+255),f,b
  2591  001DA6  519B               	movf	(??_vfpfcnvrt+3)& (0+255),w,b
  2592  001DA8  E10A               	bnz	u8050
  2593  001DAA  0E0A               	movlw	10
  2594  001DAC  5D9A               	subwf	(??_vfpfcnvrt+2)& (0+255),w,b
  2595  001DAE  A0D8               	btfss	status,0,c
  2596  001DB0  EFDC  F00E         	goto	u8051
  2597  001DB4  EFDF  F00E         	goto	u8050
  2598  001DB8                     u8051:
  2599  001DB8  0E01               	movlw	1
  2600  001DBA  EFE0  F00E         	goto	u8060
  2601  001DBE                     u8050:
  2602  001DBE  0E00               	movlw	0
  2603  001DC0                     u8060:
  2604  001DC0  6F9C               	movwf	_vfpfcnvrt$2326& (0+255),b
  2605  001DC2  6B9D               	clrf	(_vfpfcnvrt$2326+1)& (0+255),b
  2606  001DC4                     
  2607                           ; BSR set to: 0
  2608  001DC4  519C               	movf	_vfpfcnvrt$2326& (0+255),w,b
  2609  001DC6  119D               	iorwf	(_vfpfcnvrt$2326+1)& (0+255),w,b
  2610  001DC8  A4D8               	btfss	status,2,c
  2611  001DCA  EFE9  F00E         	goto	u8071
  2612  001DCE  EFEB  F00E         	goto	u8070
  2613  001DD2                     u8071:
  2614  001DD2  EFB5  F00E         	goto	l6287
  2615  001DD6                     u8070:
  2616  001DD6                     l6295:
  2617                           
  2618                           ; BSR set to: 0
  2619                           ;C:\Program Files\Microchip\xc8\v2.32\pic\sources\c99\common\doprnt.c: 762:         if (
      +                          (*fmt)[0] == '.') {
  2620  001DD6  C049  FFD9         	movff	vfpfcnvrt@fmt,fsr2l
  2621  001DDA  C04A  FFDA         	movff	vfpfcnvrt@fmt+1,fsr2h
  2622  001DDE  CFDE FFF6          	movff	postinc2,tblptrl
  2623  001DE2  CFDD FFF7          	movff	postdec2,tblptrh
  2624  001DE6                     	if	0	;tblptru may be non-zero
  2625  001DE6                     	endif
  2626  001DE6                     	if	1	;Program memory is > 0xFFFF, there are 3 active tblptr bytes
  2627  001DE6  0E00               	movlw	low (__mediumconst shr (0+16))
  2628  001DE8  6EF8               	movwf	tblptru,c
  2629  001DEA                     	endif
  2630  001DEA  0008               	tblrd		*
  2631  001DEC  50F5               	movf	tablat,w,c
  2632  001DEE  0A2E               	xorlw	46
  2633  001DF0  A4D8               	btfss	status,2,c
  2634  001DF2  EFFD  F00E         	goto	u8081
  2635  001DF6  EFFF  F00E         	goto	u8080
  2636  001DFA                     u8081:
  2637  001DFA  EF81  F00F         	goto	l6315
  2638  001DFE                     u8080:
  2639  001DFE                     
  2640                           ; BSR set to: 0
  2641                           ;C:\Program Files\Microchip\xc8\v2.32\pic\sources\c99\common\doprnt.c: 763:             
      +                          prec = 0;
  2642  001DFE  0E00               	movlw	0
  2643  001E00  6E50               	movwf	(_prec+1)^0,c
  2644  001E02  0E00               	movlw	0
  2645  001E04  6E4F               	movwf	_prec^0,c
  2646  001E06                     
  2647                           ; BSR set to: 0
  2648                           ;C:\Program Files\Microchip\xc8\v2.32\pic\sources\c99\common\doprnt.c: 764:             
      +                          ++*fmt;
  2649  001E06  C049  FFD9         	movff	vfpfcnvrt@fmt,fsr2l
  2650  001E0A  C04A  FFDA         	movff	vfpfcnvrt@fmt+1,fsr2h
  2651  001E0E  2ADE               	incf	postinc2,f,c
  2652  001E10  0E00               	movlw	0
  2653  001E12  22DD               	addwfc	postdec2,f,c
  2654  001E14                     
  2655                           ; BSR set to: 0
  2656                           ;C:\Program Files\Microchip\xc8\v2.32\pic\sources\c99\common\doprnt.c: 765:             
      +                          if ((*fmt)[0] == '*') {
  2657  001E14  C049  FFD9         	movff	vfpfcnvrt@fmt,fsr2l
  2658  001E18  C04A  FFDA         	movff	vfpfcnvrt@fmt+1,fsr2h
  2659  001E1C  CFDE FFF6          	movff	postinc2,tblptrl
  2660  001E20  CFDD FFF7          	movff	postdec2,tblptrh
  2661  001E24                     	if	0	;tblptru may be non-zero
  2662  001E24                     	endif
  2663  001E24                     	if	1	;Program memory is > 0xFFFF, there are 3 active tblptr bytes
  2664  001E24  0E00               	movlw	low (__mediumconst shr (0+16))
  2665  001E26  6EF8               	movwf	tblptru,c
  2666  001E28                     	endif
  2667  001E28  0008               	tblrd		*
  2668  001E2A  50F5               	movf	tablat,w,c
  2669  001E2C  0A2A               	xorlw	42
  2670  001E2E  A4D8               	btfss	status,2,c
  2671  001E30  EF1C  F00F         	goto	u8091
  2672  001E34  EF1E  F00F         	goto	u8090
  2673  001E38                     u8091:
  2674  001E38  EF3B  F00F         	goto	l6305
  2675  001E3C                     u8090:
  2676  001E3C                     
  2677                           ; BSR set to: 0
  2678                           ;C:\Program Files\Microchip\xc8\v2.32\pic\sources\c99\common\doprnt.c: 766:             
      +                              ++*fmt;
  2679  001E3C  C049  FFD9         	movff	vfpfcnvrt@fmt,fsr2l
  2680  001E40  C04A  FFDA         	movff	vfpfcnvrt@fmt+1,fsr2h
  2681  001E44  2ADE               	incf	postinc2,f,c
  2682  001E46  0E00               	movlw	0
  2683  001E48  22DD               	addwfc	postdec2,f,c
  2684                           
  2685                           ;C:\Program Files\Microchip\xc8\v2.32\pic\sources\c99\common\doprnt.c: 767:             
      +                              prec = (*(int *)__va_arg(*(int **)ap, (int)0));
  2686  001E4A  C04B  FFD9         	movff	vfpfcnvrt@ap,fsr2l
  2687  001E4E  C04C  FFDA         	movff	vfpfcnvrt@ap+1,fsr2h
  2688  001E52  CFDF F098          	movff	indf2,??_vfpfcnvrt
  2689  001E56  0E02               	movlw	2
  2690  001E58  26DE               	addwf	postinc2,f,c
  2691  001E5A  CFDF F099          	movff	indf2,??_vfpfcnvrt+1
  2692  001E5E  0E00               	movlw	0
  2693  001E60  22DD               	addwfc	postdec2,f,c
  2694  001E62  C098  FFD9         	movff	??_vfpfcnvrt,fsr2l
  2695  001E66  C099  FFDA         	movff	??_vfpfcnvrt+1,fsr2h
  2696  001E6A  CFDE F04F          	movff	postinc2,_prec
  2697  001E6E  CFDD F050          	movff	postdec2,_prec+1
  2698                           
  2699                           ;C:\Program Files\Microchip\xc8\v2.32\pic\sources\c99\common\doprnt.c: 768:             
      +                          } else {
  2700  001E72  EF81  F00F         	goto	l6315
  2701  001E76                     l6305:
  2702                           
  2703                           ; BSR set to: 0
  2704                           ;C:\Program Files\Microchip\xc8\v2.32\pic\sources\c99\common\doprnt.c: 769:             
      +                              prec = atoi(*fmt);
  2705  001E76  C049  FFD9         	movff	vfpfcnvrt@fmt,fsr2l
  2706  001E7A  C04A  FFDA         	movff	vfpfcnvrt@fmt+1,fsr2h
  2707  001E7E  CFDE F00F          	movff	postinc2,atoi@s
  2708  001E82  CFDD F010          	movff	postdec2,atoi@s+1
  2709  001E86  EC0A  F01A         	call	_atoi	;wreg free
  2710  001E8A  C00F  F04F         	movff	?_atoi,_prec
  2711  001E8E  C010  F050         	movff	?_atoi+1,_prec+1
  2712                           
  2713                           ;C:\Program Files\Microchip\xc8\v2.32\pic\sources\c99\common\doprnt.c: 770:             
      +                              while ((0 ? isdigit((*fmt)[0]) : ((unsigned)((*fmt)[0])-'0') < 10)) {
  2714  001E92  EF52  F00F         	goto	l6309
  2715  001E96                     l6307:
  2716                           
  2717                           ; BSR set to: 0
  2718                           ;C:\Program Files\Microchip\xc8\v2.32\pic\sources\c99\common\doprnt.c: 771:             
      +                                  ++*fmt;
  2719  001E96  C049  FFD9         	movff	vfpfcnvrt@fmt,fsr2l
  2720  001E9A  C04A  FFDA         	movff	vfpfcnvrt@fmt+1,fsr2h
  2721  001E9E  2ADE               	incf	postinc2,f,c
  2722  001EA0  0E00               	movlw	0
  2723  001EA2  22DD               	addwfc	postdec2,f,c
  2724  001EA4                     l6309:
  2725  001EA4  0ED0               	movlw	208
  2726  001EA6  0100               	movlb	0	; () banked
  2727  001EA8  6F98               	movwf	??_vfpfcnvrt& (0+255),b
  2728  001EAA  0EFF               	movlw	255
  2729  001EAC  6F99               	movwf	(??_vfpfcnvrt+1)& (0+255),b
  2730  001EAE  C049  FFD9         	movff	vfpfcnvrt@fmt,fsr2l
  2731  001EB2  C04A  FFDA         	movff	vfpfcnvrt@fmt+1,fsr2h
  2732  001EB6  CFDE FFF6          	movff	postinc2,tblptrl
  2733  001EBA  CFDD FFF7          	movff	postdec2,tblptrh
  2734  001EBE                     	if	0	;tblptru may be non-zero
  2735  001EBE                     	endif
  2736  001EBE                     	if	1	;Program memory is > 0xFFFF, there are 3 active tblptr bytes
  2737  001EBE  0E00               	movlw	low (__mediumconst shr (0+16))
  2738  001EC0  6EF8               	movwf	tblptru,c
  2739  001EC2                     	endif
  2740  001EC2  0008               	tblrd		*
  2741  001EC4  50F5               	movf	tablat,w,c
  2742  001EC6  6F9A               	movwf	(??_vfpfcnvrt+2)& (0+255),b
  2743  001EC8  6B9B               	clrf	(??_vfpfcnvrt+3)& (0+255),b
  2744  001ECA  5198               	movf	??_vfpfcnvrt& (0+255),w,b
  2745  001ECC  279A               	addwf	(??_vfpfcnvrt+2)& (0+255),f,b
  2746  001ECE  5199               	movf	(??_vfpfcnvrt+1)& (0+255),w,b
  2747  001ED0  239B               	addwfc	(??_vfpfcnvrt+3)& (0+255),f,b
  2748  001ED2  519B               	movf	(??_vfpfcnvrt+3)& (0+255),w,b
  2749  001ED4  E10A               	bnz	u8100
  2750  001ED6  0E0A               	movlw	10
  2751  001ED8  5D9A               	subwf	(??_vfpfcnvrt+2)& (0+255),w,b
  2752  001EDA  A0D8               	btfss	status,0,c
  2753  001EDC  EF72  F00F         	goto	u8101
  2754  001EE0  EF75  F00F         	goto	u8100
  2755  001EE4                     u8101:
  2756  001EE4  0E01               	movlw	1
  2757  001EE6  EF76  F00F         	goto	u8110
  2758  001EEA                     u8100:
  2759  001EEA  0E00               	movlw	0
  2760  001EEC                     u8110:
  2761  001EEC  6F9E               	movwf	_vfpfcnvrt$2327& (0+255),b
  2762  001EEE  6B9F               	clrf	(_vfpfcnvrt$2327+1)& (0+255),b
  2763  001EF0                     
  2764                           ; BSR set to: 0
  2765  001EF0  519E               	movf	_vfpfcnvrt$2327& (0+255),w,b
  2766  001EF2  119F               	iorwf	(_vfpfcnvrt$2327+1)& (0+255),w,b
  2767  001EF4  A4D8               	btfss	status,2,c
  2768  001EF6  EF7F  F00F         	goto	u8121
  2769  001EFA  EF81  F00F         	goto	u8120
  2770  001EFE                     u8121:
  2771  001EFE  EF4B  F00F         	goto	l6307
  2772  001F02                     u8120:
  2773  001F02                     l6315:
  2774                           
  2775                           ; BSR set to: 0
  2776                           ;C:\Program Files\Microchip\xc8\v2.32\pic\sources\c99\common\doprnt.c: 779:         ct[0
      +                          ] = (char)tolower((int)(*fmt)[0]);
  2777  001F02  C049  FFD9         	movff	vfpfcnvrt@fmt,fsr2l
  2778  001F06  C04A  FFDA         	movff	vfpfcnvrt@fmt+1,fsr2h
  2779  001F0A  CFDE FFF6          	movff	postinc2,tblptrl
  2780  001F0E  CFDD FFF7          	movff	postdec2,tblptrh
  2781  001F12                     	if	0	;tblptru may be non-zero
  2782  001F12                     	endif
  2783  001F12                     	if	1	;Program memory is > 0xFFFF, there are 3 active tblptr bytes
  2784  001F12  0E00               	movlw	low (__mediumconst shr (0+16))
  2785  001F14  6EF8               	movwf	tblptru,c
  2786  001F16                     	endif
  2787  001F16  0008               	tblrd		*
  2788  001F18  50F5               	movf	tablat,w,c
  2789  001F1A  6E0E               	movwf	tolower@c^0,c
  2790  001F1C  6A0F               	clrf	(tolower@c+1)^0,c
  2791  001F1E  EC78  F022         	call	_tolower	;wreg free
  2792  001F22  500E               	movf	?_tolower^0,w,c
  2793  001F24  0100               	movlb	0	; () banked
  2794  001F26  6FA6               	movwf	vfpfcnvrt@ct& (0+255),b
  2795  001F28                     
  2796                           ; BSR set to: 0
  2797                           ;C:\Program Files\Microchip\xc8\v2.32\pic\sources\c99\common\doprnt.c: 780:         if (
      +                          ct[0]) {
  2798  001F28  51A6               	movf	vfpfcnvrt@ct& (0+255),w,b
  2799  001F2A  B4D8               	btfsc	status,2,c
  2800  001F2C  EF9A  F00F         	goto	u8131
  2801  001F30  EF9C  F00F         	goto	u8130
  2802  001F34                     u8131:
  2803  001F34  EFDA  F00F         	goto	l6325
  2804  001F38                     u8130:
  2805  001F38                     
  2806                           ; BSR set to: 0
  2807                           ;C:\Program Files\Microchip\xc8\v2.32\pic\sources\c99\common\doprnt.c: 781:             
      +                          ct[1] = (char)tolower((int)(*fmt)[1]);
  2808  001F38  C049  FFD9         	movff	vfpfcnvrt@fmt,fsr2l
  2809  001F3C  C04A  FFDA         	movff	vfpfcnvrt@fmt+1,fsr2h
  2810  001F40  CFDE F098          	movff	postinc2,??_vfpfcnvrt
  2811  001F44  CFDD F099          	movff	postdec2,??_vfpfcnvrt+1
  2812  001F48  0E01               	movlw	1
  2813  001F4A  2798               	addwf	??_vfpfcnvrt& (0+255),f,b
  2814  001F4C  0E00               	movlw	0
  2815  001F4E  2399               	addwfc	(??_vfpfcnvrt+1)& (0+255),f,b
  2816  001F50  C098  FFF6         	movff	??_vfpfcnvrt,tblptrl
  2817  001F54  C099  FFF7         	movff	??_vfpfcnvrt+1,tblptrh
  2818  001F58                     	if	0	;tblptru may be non-zero
  2819  001F58                     	endif
  2820  001F58                     	if	1	;Program memory is > 0xFFFF, there are 3 active tblptr bytes
  2821  001F58  0E00               	movlw	low (__mediumconst shr (0+16))
  2822  001F5A  6EF8               	movwf	tblptru,c
  2823  001F5C                     	endif
  2824  001F5C  0008               	tblrd		*
  2825  001F5E  50F5               	movf	tablat,w,c
  2826  001F60  6E0E               	movwf	tolower@c^0,c
  2827  001F62  6A0F               	clrf	(tolower@c+1)^0,c
  2828  001F64  EC78  F022         	call	_tolower	;wreg free
  2829  001F68  500E               	movf	?_tolower^0,w,c
  2830  001F6A  0100               	movlb	0	; () banked
  2831  001F6C  6FA7               	movwf	(vfpfcnvrt@ct+1)& (0+255),b
  2832  001F6E                     
  2833                           ; BSR set to: 0
  2834                           ;C:\Program Files\Microchip\xc8\v2.32\pic\sources\c99\common\doprnt.c: 782:             
      +                          if (ct[1]) {
  2835  001F6E  51A7               	movf	(vfpfcnvrt@ct+1)& (0+255),w,b
  2836  001F70  B4D8               	btfsc	status,2,c
  2837  001F72  EFBD  F00F         	goto	u8141
  2838  001F76  EFBF  F00F         	goto	u8140
  2839  001F7A                     u8141:
  2840  001F7A  EFDA  F00F         	goto	l6325
  2841  001F7E                     u8140:
  2842  001F7E                     
  2843                           ; BSR set to: 0
  2844                           ;C:\Program Files\Microchip\xc8\v2.32\pic\sources\c99\common\doprnt.c: 783:             
      +                              ct[2] = (char)tolower((int)(*fmt)[2]);
  2845  001F7E  C049  FFD9         	movff	vfpfcnvrt@fmt,fsr2l
  2846  001F82  C04A  FFDA         	movff	vfpfcnvrt@fmt+1,fsr2h
  2847  001F86  CFDE F098          	movff	postinc2,??_vfpfcnvrt
  2848  001F8A  CFDD F099          	movff	postdec2,??_vfpfcnvrt+1
  2849  001F8E  0E02               	movlw	2
  2850  001F90  2798               	addwf	??_vfpfcnvrt& (0+255),f,b
  2851  001F92  0E00               	movlw	0
  2852  001F94  2399               	addwfc	(??_vfpfcnvrt+1)& (0+255),f,b
  2853  001F96  C098  FFF6         	movff	??_vfpfcnvrt,tblptrl
  2854  001F9A  C099  FFF7         	movff	??_vfpfcnvrt+1,tblptrh
  2855  001F9E                     	if	0	;tblptru may be non-zero
  2856  001F9E                     	endif
  2857  001F9E                     	if	1	;Program memory is > 0xFFFF, there are 3 active tblptr bytes
  2858  001F9E  0E00               	movlw	low (__mediumconst shr (0+16))
  2859  001FA0  6EF8               	movwf	tblptru,c
  2860  001FA2                     	endif
  2861  001FA2  0008               	tblrd		*
  2862  001FA4  50F5               	movf	tablat,w,c
  2863  001FA6  6E0E               	movwf	tolower@c^0,c
  2864  001FA8  6A0F               	clrf	(tolower@c+1)^0,c
  2865  001FAA  EC78  F022         	call	_tolower	;wreg free
  2866  001FAE  500E               	movf	?_tolower^0,w,c
  2867  001FB0  0100               	movlb	0	; () banked
  2868  001FB2  6FA8               	movwf	(vfpfcnvrt@ct+2)& (0+255),b
  2869  001FB4                     l6325:
  2870                           
  2871                           ; BSR set to: 0
  2872                           ;C:\Program Files\Microchip\xc8\v2.32\pic\sources\c99\common\doprnt.c: 942:         if (
      +                          ct[0] == 'f') {
  2873  001FB4  0E66               	movlw	102
  2874  001FB6  19A6               	xorwf	vfpfcnvrt@ct& (0+255),w,b
  2875  001FB8  A4D8               	btfss	status,2,c
  2876  001FBA  EFE1  F00F         	goto	u8151
  2877  001FBE  EFE3  F00F         	goto	u8150
  2878  001FC2                     u8151:
  2879  001FC2  EF25  F010         	goto	l6337
  2880  001FC6                     u8150:
  2881  001FC6                     
  2882                           ; BSR set to: 0
  2883                           ;C:\Program Files\Microchip\xc8\v2.32\pic\sources\c99\common\doprnt.c: 944:             
      +                          c = (*fmt)[0];
  2884  001FC6  C049  FFD9         	movff	vfpfcnvrt@fmt,fsr2l
  2885  001FCA  C04A  FFDA         	movff	vfpfcnvrt@fmt+1,fsr2h
  2886  001FCE  CFDE FFF6          	movff	postinc2,tblptrl
  2887  001FD2  CFDD FFF7          	movff	postdec2,tblptrh
  2888  001FD6                     	if	0	;tblptru may be non-zero
  2889  001FD6                     	endif
  2890  001FD6                     	if	1	;Program memory is > 0xFFFF, there are 3 active tblptr bytes
  2891  001FD6  0E00               	movlw	low (__mediumconst shr (0+16))
  2892  001FD8  6EF8               	movwf	tblptru,c
  2893  001FDA                     	endif
  2894  001FDA  0008               	tblrd		*
  2895  001FDC  CFF5 F0A9          	movff	tablat,vfpfcnvrt@c
  2896  001FE0                     
  2897                           ; BSR set to: 0
  2898                           ;C:\Program Files\Microchip\xc8\v2.32\pic\sources\c99\common\doprnt.c: 945:             
      +                          ++*fmt;
  2899  001FE0  C049  FFD9         	movff	vfpfcnvrt@fmt,fsr2l
  2900  001FE4  C04A  FFDA         	movff	vfpfcnvrt@fmt+1,fsr2h
  2901  001FE8  2ADE               	incf	postinc2,f,c
  2902  001FEA  0E00               	movlw	0
  2903  001FEC  22DD               	addwfc	postdec2,f,c
  2904  001FEE                     
  2905                           ; BSR set to: 0
  2906                           ;C:\Program Files\Microchip\xc8\v2.32\pic\sources\c99\common\doprnt.c: 946:             
      +                          f = (long double)(*(double *)__va_arg(*(double **)ap, (double)0));
  2907  001FEE  C04B  FFD9         	movff	vfpfcnvrt@ap,fsr2l
  2908  001FF2  C04C  FFDA         	movff	vfpfcnvrt@ap+1,fsr2h
  2909  001FF6  CFDF F098          	movff	indf2,??_vfpfcnvrt
  2910  001FFA  0E04               	movlw	4
  2911  001FFC  26DE               	addwf	postinc2,f,c
  2912  001FFE  CFDF F099          	movff	indf2,??_vfpfcnvrt+1
  2913  002002  0E00               	movlw	0
  2914  002004  22DD               	addwfc	postdec2,f,c
  2915  002006  C098  FFD9         	movff	??_vfpfcnvrt,fsr2l
  2916  00200A  C099  FFDA         	movff	??_vfpfcnvrt+1,fsr2h
  2917  00200E  CFDE F0A2          	movff	postinc2,vfpfcnvrt@f
  2918  002012  CFDE F0A3          	movff	postinc2,vfpfcnvrt@f+1
  2919  002016  CFDE F0A4          	movff	postinc2,vfpfcnvrt@f+2
  2920  00201A  CFDE F0A5          	movff	postinc2,vfpfcnvrt@f+3
  2921  00201E                     l6333:
  2922                           
  2923                           ; BSR set to: 0
  2924                           ;C:\Program Files\Microchip\xc8\v2.32\pic\sources\c99\common\doprnt.c: 948:             
      +                          return efgtoa(fp, f, c);
  2925  00201E  C047  F03B         	movff	vfpfcnvrt@fp,efgtoa@fp
  2926  002022  C048  F03C         	movff	vfpfcnvrt@fp+1,efgtoa@fp+1
  2927  002026  C0A2  F03D         	movff	vfpfcnvrt@f,efgtoa@f
  2928  00202A  C0A3  F03E         	movff	vfpfcnvrt@f+1,efgtoa@f+1
  2929  00202E  C0A4  F03F         	movff	vfpfcnvrt@f+2,efgtoa@f+2
  2930  002032  C0A5  F040         	movff	vfpfcnvrt@f+3,efgtoa@f+3
  2931  002036  C0A9  F041         	movff	vfpfcnvrt@c,efgtoa@c
  2932  00203A  EC15  F008         	call	_efgtoa	;wreg free
  2933  00203E  C03B  F047         	movff	?_efgtoa,?_vfpfcnvrt
  2934  002042  C03C  F048         	movff	?_efgtoa+1,?_vfpfcnvrt+1
  2935  002046  EF11  F011         	goto	l1287
  2936  00204A                     l6337:
  2937                           
  2938                           ; BSR set to: 0
  2939                           ;C:\Program Files\Microchip\xc8\v2.32\pic\sources\c99\common\doprnt.c: 950:         if (
      +                          !strncmp(ct, "lf", ((sizeof("lf")/sizeof("lf"[0]))-1))) {
  2940  00204A  0EA6               	movlw	low vfpfcnvrt@ct
  2941  00204C  6E08               	movwf	strncmp@_l^0,c
  2942  00204E  0E00               	movlw	high vfpfcnvrt@ct
  2943  002050  6E09               	movwf	(strncmp@_l+1)^0,c
  2944  002052  0E26               	movlw	low STR_11
  2945  002054  6E0A               	movwf	strncmp@_r^0,c
  2946  002056  0E10               	movlw	high STR_11
  2947  002058  6E0B               	movwf	(strncmp@_r+1)^0,c
  2948  00205A  0E00               	movlw	0
  2949  00205C  6E0D               	movwf	(strncmp@n+1)^0,c
  2950  00205E  0E02               	movlw	2
  2951  002060  6E0C               	movwf	strncmp@n^0,c
  2952  002062  EC69  F01D         	call	_strncmp	;wreg free
  2953  002066  5008               	movf	?_strncmp^0,w,c
  2954  002068  1009               	iorwf	(?_strncmp+1)^0,w,c
  2955  00206A  A4D8               	btfss	status,2,c
  2956  00206C  EF3A  F010         	goto	u8161
  2957  002070  EF3C  F010         	goto	u8160
  2958  002074                     u8161:
  2959  002074  EFBC  F010         	goto	l6353
  2960  002078                     u8160:
  2961  002078                     
  2962                           ;C:\Program Files\Microchip\xc8\v2.32\pic\sources\c99\common\doprnt.c: 953:             
      +                          if ((0 ? isupper((int)(*fmt)[0]) : ((unsigned)((int)(*fmt)[0])-'A') < 26)) {
  2963  002078  C049  FFD9         	movff	vfpfcnvrt@fmt,fsr2l
  2964  00207C  C04A  FFDA         	movff	vfpfcnvrt@fmt+1,fsr2h
  2965  002080  CFDE F098          	movff	postinc2,??_vfpfcnvrt
  2966  002084  CFDD F099          	movff	postdec2,??_vfpfcnvrt+1
  2967  002088  0E01               	movlw	1
  2968  00208A  0100               	movlb	0	; () banked
  2969  00208C  2798               	addwf	??_vfpfcnvrt& (0+255),f,b
  2970  00208E  0E00               	movlw	0
  2971  002090  2399               	addwfc	(??_vfpfcnvrt+1)& (0+255),f,b
  2972  002092  C098  FFF6         	movff	??_vfpfcnvrt,tblptrl
  2973  002096  C099  FFF7         	movff	??_vfpfcnvrt+1,tblptrh
  2974  00209A                     	if	0	;tblptru may be non-zero
  2975  00209A                     	endif
  2976  00209A                     	if	1	;Program memory is > 0xFFFF, there are 3 active tblptr bytes
  2977  00209A  0E00               	movlw	low (__mediumconst shr (0+16))
  2978  00209C  6EF8               	movwf	tblptru,c
  2979  00209E                     	endif
  2980  00209E  0008               	tblrd		*
  2981  0020A0  CFF5 F0A9          	movff	tablat,vfpfcnvrt@c
  2982  0020A4  0EBF               	movlw	191
  2983  0020A6  6F98               	movwf	??_vfpfcnvrt& (0+255),b
  2984  0020A8  0EFF               	movlw	255
  2985  0020AA  6F99               	movwf	(??_vfpfcnvrt+1)& (0+255),b
  2986  0020AC  C049  FFD9         	movff	vfpfcnvrt@fmt,fsr2l
  2987  0020B0  C04A  FFDA         	movff	vfpfcnvrt@fmt+1,fsr2h
  2988  0020B4  CFDE FFF6          	movff	postinc2,tblptrl
  2989  0020B8  CFDD FFF7          	movff	postdec2,tblptrh
  2990  0020BC                     	if	0	;tblptru may be non-zero
  2991  0020BC                     	endif
  2992  0020BC                     	if	1	;Program memory is > 0xFFFF, there are 3 active tblptr bytes
  2993  0020BC  0E00               	movlw	low (__mediumconst shr (0+16))
  2994  0020BE  6EF8               	movwf	tblptru,c
  2995  0020C0                     	endif
  2996  0020C0  0008               	tblrd		*
  2997  0020C2  50F5               	movf	tablat,w,c
  2998  0020C4  6F9A               	movwf	(??_vfpfcnvrt+2)& (0+255),b
  2999  0020C6  6B9B               	clrf	(??_vfpfcnvrt+3)& (0+255),b
  3000  0020C8  5198               	movf	??_vfpfcnvrt& (0+255),w,b
  3001  0020CA  279A               	addwf	(??_vfpfcnvrt+2)& (0+255),f,b
  3002  0020CC  5199               	movf	(??_vfpfcnvrt+1)& (0+255),w,b
  3003  0020CE  239B               	addwfc	(??_vfpfcnvrt+3)& (0+255),f,b
  3004  0020D0  519B               	movf	(??_vfpfcnvrt+3)& (0+255),w,b
  3005  0020D2  E10A               	bnz	u8170
  3006  0020D4  0E1A               	movlw	26
  3007  0020D6  5D9A               	subwf	(??_vfpfcnvrt+2)& (0+255),w,b
  3008  0020D8  A0D8               	btfss	status,0,c
  3009  0020DA  EF71  F010         	goto	u8171
  3010  0020DE  EF74  F010         	goto	u8170
  3011  0020E2                     u8171:
  3012  0020E2  0E01               	movlw	1
  3013  0020E4  EF75  F010         	goto	u8180
  3014  0020E8                     u8170:
  3015  0020E8  0E00               	movlw	0
  3016  0020EA                     u8180:
  3017  0020EA  6FA0               	movwf	_vfpfcnvrt$2331& (0+255),b
  3018  0020EC  6BA1               	clrf	(_vfpfcnvrt$2331+1)& (0+255),b
  3019  0020EE                     
  3020                           ; BSR set to: 0
  3021  0020EE  51A0               	movf	_vfpfcnvrt$2331& (0+255),w,b
  3022  0020F0  11A1               	iorwf	(_vfpfcnvrt$2331+1)& (0+255),w,b
  3023  0020F2  B4D8               	btfsc	status,2,c
  3024  0020F4  EF7E  F010         	goto	u8191
  3025  0020F8  EF80  F010         	goto	u8190
  3026  0020FC                     u8191:
  3027  0020FC  EF9A  F010         	goto	l6347
  3028  002100                     u8190:
  3029  002100                     
  3030                           ; BSR set to: 0
  3031                           ;C:\Program Files\Microchip\xc8\v2.32\pic\sources\c99\common\doprnt.c: 954:             
      +                              f = (*(long double *)__va_arg(*(long double **)ap, (long double)0));
  3032  002100  C04B  FFD9         	movff	vfpfcnvrt@ap,fsr2l
  3033  002104  C04C  FFDA         	movff	vfpfcnvrt@ap+1,fsr2h
  3034  002108  CFDF F098          	movff	indf2,??_vfpfcnvrt
  3035  00210C  0E04               	movlw	4
  3036  00210E  26DE               	addwf	postinc2,f,c
  3037  002110  CFDF F099          	movff	indf2,??_vfpfcnvrt+1
  3038  002114  0E00               	movlw	0
  3039  002116  22DD               	addwfc	postdec2,f,c
  3040  002118  C098  FFD9         	movff	??_vfpfcnvrt,fsr2l
  3041  00211C  C099  FFDA         	movff	??_vfpfcnvrt+1,fsr2h
  3042  002120  CFDE F0A2          	movff	postinc2,vfpfcnvrt@f
  3043  002124  CFDE F0A3          	movff	postinc2,vfpfcnvrt@f+1
  3044  002128  CFDE F0A4          	movff	postinc2,vfpfcnvrt@f+2
  3045  00212C  CFDE F0A5          	movff	postinc2,vfpfcnvrt@f+3
  3046                           
  3047                           ;C:\Program Files\Microchip\xc8\v2.32\pic\sources\c99\common\doprnt.c: 955:             
      +                          } else {
  3048  002130  EFB2  F010         	goto	l1294
  3049  002134                     l6347:
  3050                           
  3051                           ; BSR set to: 0
  3052                           ;C:\Program Files\Microchip\xc8\v2.32\pic\sources\c99\common\doprnt.c: 956:             
      +                              f = (long double)(*(double *)__va_arg(*(double **)ap, (double)0));
  3053  002134  C04B  FFD9         	movff	vfpfcnvrt@ap,fsr2l
  3054  002138  C04C  FFDA         	movff	vfpfcnvrt@ap+1,fsr2h
  3055  00213C  CFDF F098          	movff	indf2,??_vfpfcnvrt
  3056  002140  0E04               	movlw	4
  3057  002142  26DE               	addwf	postinc2,f,c
  3058  002144  CFDF F099          	movff	indf2,??_vfpfcnvrt+1
  3059  002148  0E00               	movlw	0
  3060  00214A  22DD               	addwfc	postdec2,f,c
  3061  00214C  C098  FFD9         	movff	??_vfpfcnvrt,fsr2l
  3062  002150  C099  FFDA         	movff	??_vfpfcnvrt+1,fsr2h
  3063  002154  CFDE F0A2          	movff	postinc2,vfpfcnvrt@f
  3064  002158  CFDE F0A3          	movff	postinc2,vfpfcnvrt@f+1
  3065  00215C  CFDE F0A4          	movff	postinc2,vfpfcnvrt@f+2
  3066  002160  CFDE F0A5          	movff	postinc2,vfpfcnvrt@f+3
  3067  002164                     l1294:
  3068                           
  3069                           ; BSR set to: 0
  3070                           ;C:\Program Files\Microchip\xc8\v2.32\pic\sources\c99\common\doprnt.c: 958:             
      +                          *fmt += ((sizeof("lf")/sizeof("lf"[0]))-1);
  3071  002164  0E02               	movlw	2
  3072  002166  C049  FFD9         	movff	vfpfcnvrt@fmt,fsr2l
  3073  00216A  C04A  FFDA         	movff	vfpfcnvrt@fmt+1,fsr2h
  3074  00216E  26DE               	addwf	postinc2,f,c
  3075  002170  0E00               	movlw	0
  3076  002172  22DD               	addwfc	postdec2,f,c
  3077  002174  EF0F  F010         	goto	l6333
  3078  002178                     l6353:
  3079                           
  3080                           ;C:\Program Files\Microchip\xc8\v2.32\pic\sources\c99\common\doprnt.c: 1372:         if 
      +                          ((*fmt)[0] == '%') {
  3081  002178  C049  FFD9         	movff	vfpfcnvrt@fmt,fsr2l
  3082  00217C  C04A  FFDA         	movff	vfpfcnvrt@fmt+1,fsr2h
  3083  002180  CFDE FFF6          	movff	postinc2,tblptrl
  3084  002184  CFDD FFF7          	movff	postdec2,tblptrh
  3085  002188                     	if	0	;tblptru may be non-zero
  3086  002188                     	endif
  3087  002188                     	if	1	;Program memory is > 0xFFFF, there are 3 active tblptr bytes
  3088  002188  0E00               	movlw	low (__mediumconst shr (0+16))
  3089  00218A  6EF8               	movwf	tblptru,c
  3090  00218C                     	endif
  3091  00218C  0008               	tblrd		*
  3092  00218E  50F5               	movf	tablat,w,c
  3093  002190  0A25               	xorlw	37
  3094  002192  A4D8               	btfss	status,2,c
  3095  002194  EFCE  F010         	goto	u8201
  3096  002198  EFD0  F010         	goto	u8200
  3097  00219C                     u8201:
  3098  00219C  EFE7  F010         	goto	l6363
  3099  0021A0                     u8200:
  3100  0021A0                     
  3101                           ;C:\Program Files\Microchip\xc8\v2.32\pic\sources\c99\common\doprnt.c: 1373:            
      +                           ++*fmt;
  3102  0021A0  C049  FFD9         	movff	vfpfcnvrt@fmt,fsr2l
  3103  0021A4  C04A  FFDA         	movff	vfpfcnvrt@fmt+1,fsr2h
  3104  0021A8  2ADE               	incf	postinc2,f,c
  3105  0021AA  0E00               	movlw	0
  3106  0021AC  22DD               	addwfc	postdec2,f,c
  3107  0021AE                     
  3108                           ;C:\Program Files\Microchip\xc8\v2.32\pic\sources\c99\common\doprnt.c: 1374:            
      +                           fputc((int)'%', fp);
  3109  0021AE  0E00               	movlw	0
  3110  0021B0  6E09               	movwf	(fputc@c+1)^0,c
  3111  0021B2  0E25               	movlw	37
  3112  0021B4  6E08               	movwf	fputc@c^0,c
  3113  0021B6  C047  F00A         	movff	vfpfcnvrt@fp,fputc@fp
  3114  0021BA  C048  F00B         	movff	vfpfcnvrt@fp+1,fputc@fp+1
  3115  0021BE  ECDA  F01D         	call	_fputc	;wreg free
  3116  0021C2                     l6359:
  3117                           
  3118                           ;C:\Program Files\Microchip\xc8\v2.32\pic\sources\c99\common\doprnt.c: 1375:            
      +                           return 1;
  3119  0021C2  0E00               	movlw	0
  3120  0021C4  6E48               	movwf	(?_vfpfcnvrt+1)^0,c
  3121  0021C6  0E01               	movlw	1
  3122  0021C8  6E47               	movwf	?_vfpfcnvrt^0,c
  3123  0021CA  EF11  F011         	goto	l1287
  3124  0021CE                     l6363:
  3125                           
  3126                           ;C:\Program Files\Microchip\xc8\v2.32\pic\sources\c99\common\doprnt.c: 1379:         ++*
      +                          fmt;
  3127  0021CE  C049  FFD9         	movff	vfpfcnvrt@fmt,fsr2l
  3128  0021D2  C04A  FFDA         	movff	vfpfcnvrt@fmt+1,fsr2h
  3129  0021D6  2ADE               	incf	postinc2,f,c
  3130  0021D8  0E00               	movlw	0
  3131  0021DA  22DD               	addwfc	postdec2,f,c
  3132  0021DC                     
  3133                           ;C:\Program Files\Microchip\xc8\v2.32\pic\sources\c99\common\doprnt.c: 1380:         ret
      +                          urn 0;
  3134  0021DC  0E00               	movlw	0
  3135  0021DE  6E48               	movwf	(?_vfpfcnvrt+1)^0,c
  3136  0021E0  0E00               	movlw	0
  3137  0021E2  6E47               	movwf	?_vfpfcnvrt^0,c
  3138  0021E4  EF11  F011         	goto	l1287
  3139  0021E8                     l6369:
  3140                           
  3141                           ;C:\Program Files\Microchip\xc8\v2.32\pic\sources\c99\common\doprnt.c: 1384:     fputc((
      +                          int)(*fmt)[0], fp);
  3142  0021E8  C049  FFD9         	movff	vfpfcnvrt@fmt,fsr2l
  3143  0021EC  C04A  FFDA         	movff	vfpfcnvrt@fmt+1,fsr2h
  3144  0021F0  CFDE FFF6          	movff	postinc2,tblptrl
  3145  0021F4  CFDD FFF7          	movff	postdec2,tblptrh
  3146  0021F8                     	if	0	;tblptru may be non-zero
  3147  0021F8                     	endif
  3148  0021F8                     	if	1	;Program memory is > 0xFFFF, there are 3 active tblptr bytes
  3149  0021F8  0E00               	movlw	low (__mediumconst shr (0+16))
  3150  0021FA  6EF8               	movwf	tblptru,c
  3151  0021FC                     	endif
  3152  0021FC  0008               	tblrd		*
  3153  0021FE  50F5               	movf	tablat,w,c
  3154  002200  6E08               	movwf	fputc@c^0,c
  3155  002202  6A09               	clrf	(fputc@c+1)^0,c
  3156  002204  C047  F00A         	movff	vfpfcnvrt@fp,fputc@fp
  3157  002208  C048  F00B         	movff	vfpfcnvrt@fp+1,fputc@fp+1
  3158  00220C  ECDA  F01D         	call	_fputc	;wreg free
  3159  002210                     
  3160                           ;C:\Program Files\Microchip\xc8\v2.32\pic\sources\c99\common\doprnt.c: 1385:     ++*fmt;
  3161  002210  C049  FFD9         	movff	vfpfcnvrt@fmt,fsr2l
  3162  002214  C04A  FFDA         	movff	vfpfcnvrt@fmt+1,fsr2h
  3163  002218  2ADE               	incf	postinc2,f,c
  3164  00221A  0E00               	movlw	0
  3165  00221C  22DD               	addwfc	postdec2,f,c
  3166  00221E  EFE1  F010         	goto	l6359
  3167  002222                     l1287:
  3168  002222  0012               	return		;funcret
  3169  002224                     __end_of_vfpfcnvrt:
  3170                           	callstack 0
  3171                           
  3172 ;; *************** function _strncmp *****************
  3173 ;; Defined at:
  3174 ;;		line 3 in file "C:\Program Files\Microchip\xc8\v2.32\pic\sources\c99\common\strncmp.c"
  3175 ;; Parameters:    Size  Location     Type
  3176 ;;  _l              2    7[COMRAM] PTR const unsigned char 
  3177 ;;		 -> vfpfcnvrt@ct(3), 
  3178 ;;  _r              2    9[COMRAM] PTR const unsigned char 
  3179 ;;		 -> STR_13(3), 
  3180 ;;  n               2   11[COMRAM] unsigned int 
  3181 ;; Auto vars:     Size  Location     Type
  3182 ;;  r               2   16[COMRAM] PTR const unsigned char 
  3183 ;;		 -> STR_13(3), 
  3184 ;;  l               2   14[COMRAM] PTR const unsigned char 
  3185 ;;		 -> vfpfcnvrt@ct(3), 
  3186 ;; Return value:  Size  Location     Type
  3187 ;;                  2    7[COMRAM] int 
  3188 ;; Registers used:
  3189 ;;		wreg, fsr2l, fsr2h, status,2, status,0, tblptrl, tblptrh, tblptru
  3190 ;; Tracked objects:
  3191 ;;		On entry : 0/0
  3192 ;;		On exit  : 0/0
  3193 ;;		Unchanged: 0/0
  3194 ;; Data sizes:     COMRAM   BANK0   BANK1   BANK2   BANK3   BANK4   BANK5   BANK6   BANK7   BANK8   BANK9  BANK10  BANK1
      +1  BANK12  BANK13  BANK14  BANK15
  3195 ;;      Params:         6       0       0       0       0       0       0       0       0       0       0       0       
      +0       0       0       0       0
  3196 ;;      Locals:         4       0       0       0       0       0       0       0       0       0       0       0       
      +0       0       0       0       0
  3197 ;;      Temps:          1       0       0       0       0       0       0       0       0       0       0       0       
      +0       0       0       0       0
  3198 ;;      Totals:        11       0       0       0       0       0       0       0       0       0       0       0       
      +0       0       0       0       0
  3199 ;;Total ram usage:       11 bytes
  3200 ;; Hardware stack levels used: 1
  3201 ;; Hardware stack levels required when called: 5
  3202 ;; This function calls:
  3203 ;;		Nothing
  3204 ;; This function is called by:
  3205 ;;		_vfpfcnvrt
  3206 ;; This function uses a non-reentrant model
  3207 ;;
  3208                           
  3209                           	psect	text10
  3210  003AD2                     __ptext10:
  3211                           	callstack 0
  3212  003AD2                     _strncmp:
  3213                           	callstack 21
  3214  003AD2  C008  F00F         	movff	strncmp@_l,strncmp@l
  3215  003AD6  C009  F010         	movff	strncmp@_l+1,strncmp@l+1
  3216  003ADA  C00A  F011         	movff	strncmp@_r,strncmp@r
  3217  003ADE  C00B  F012         	movff	strncmp@_r+1,strncmp@r+1
  3218  003AE2  060C               	decf	strncmp@n^0,f,c
  3219  003AE4  A0D8               	btfss	status,0,c
  3220  003AE6  060D               	decf	(strncmp@n+1)^0,f,c
  3221  003AE8  280C               	incf	strncmp@n^0,w,c
  3222  003AEA  E106               	bnz	u7971
  3223  003AEC  280D               	incf	(strncmp@n+1)^0,w,c
  3224  003AEE  A4D8               	btfss	status,2,c
  3225  003AF0  EF7C  F01D         	goto	u7971
  3226  003AF4  EF7E  F01D         	goto	u7970
  3227  003AF8                     u7971:
  3228  003AF8  EF8B  F01D         	goto	l6257
  3229  003AFC                     u7970:
  3230  003AFC  0E00               	movlw	0
  3231  003AFE  6E09               	movwf	(?_strncmp+1)^0,c
  3232  003B00  0E00               	movlw	0
  3233  003B02  6E08               	movwf	?_strncmp^0,c
  3234  003B04  EFD9  F01D         	goto	l1423
  3235  003B08                     l6255:
  3236  003B08  4A0F               	infsnz	strncmp@l^0,f,c
  3237  003B0A  2A10               	incf	(strncmp@l+1)^0,f,c
  3238  003B0C  4A11               	infsnz	strncmp@r^0,f,c
  3239  003B0E  2A12               	incf	(strncmp@r+1)^0,f,c
  3240  003B10  060C               	decf	strncmp@n^0,f,c
  3241  003B12  A0D8               	btfss	status,0,c
  3242  003B14  060D               	decf	(strncmp@n+1)^0,f,c
  3243  003B16                     l6257:
  3244  003B16  C00F  FFD9         	movff	strncmp@l,fsr2l
  3245  003B1A  C010  FFDA         	movff	strncmp@l+1,fsr2h
  3246  003B1E  50DF               	movf	indf2,w,c
  3247  003B20  B4D8               	btfsc	status,2,c
  3248  003B22  EF95  F01D         	goto	u7981
  3249  003B26  EF97  F01D         	goto	u7980
  3250  003B2A                     u7981:
  3251  003B2A  EFC6  F01D         	goto	l6265
  3252  003B2E                     u7980:
  3253  003B2E  C011  FFF6         	movff	strncmp@r,tblptrl
  3254  003B32  C012  FFF7         	movff	strncmp@r+1,tblptrh
  3255  003B36                     	if	0	;tblptru may be non-zero
  3256  003B36                     	endif
  3257  003B36                     	if	1	;Program memory is > 0xFFFF, there are 3 active tblptr bytes
  3258  003B36  0E00               	movlw	low (__mediumconst shr (0+16))
  3259  003B38  6EF8               	movwf	tblptru,c
  3260  003B3A                     	endif
  3261  003B3A  0008               	tblrd		*
  3262  003B3C  50F5               	movf	tablat,w,c
  3263  003B3E  0900               	iorlw	0
  3264  003B40  B4D8               	btfsc	status,2,c
  3265  003B42  EFA5  F01D         	goto	u7991
  3266  003B46  EFA7  F01D         	goto	u7990
  3267  003B4A                     u7991:
  3268  003B4A  EFC6  F01D         	goto	l6265
  3269  003B4E                     u7990:
  3270  003B4E  500C               	movf	strncmp@n^0,w,c
  3271  003B50  100D               	iorwf	(strncmp@n+1)^0,w,c
  3272  003B52  B4D8               	btfsc	status,2,c
  3273  003B54  EFAE  F01D         	goto	u8001
  3274  003B58  EFB0  F01D         	goto	u8000
  3275  003B5C                     u8001:
  3276  003B5C  EFC6  F01D         	goto	l6265
  3277  003B60                     u8000:
  3278  003B60  C00F  FFD9         	movff	strncmp@l,fsr2l
  3279  003B64  C010  FFDA         	movff	strncmp@l+1,fsr2h
  3280  003B68  50DF               	movf	indf2,w,c
  3281  003B6A  6E0E               	movwf	??_strncmp^0,c
  3282  003B6C  C011  FFF6         	movff	strncmp@r,tblptrl
  3283  003B70  C012  FFF7         	movff	strncmp@r+1,tblptrh
  3284  003B74                     	if	0	;tblptru may be non-zero
  3285  003B74                     	endif
  3286  003B74                     	if	1	;Program memory is > 0xFFFF, there are 3 active tblptr bytes
  3287  003B74  0E00               	movlw	low (__mediumconst shr (0+16))
  3288  003B76  6EF8               	movwf	tblptru,c
  3289  003B78                     	endif
  3290  003B78  0008               	tblrd		*
  3291  003B7A  50F5               	movf	tablat,w,c
  3292  003B7C  180E               	xorwf	??_strncmp^0,w,c
  3293  003B7E  B4D8               	btfsc	status,2,c
  3294  003B80  EFC4  F01D         	goto	u8011
  3295  003B84  EFC6  F01D         	goto	u8010
  3296  003B88                     u8011:
  3297  003B88  EF84  F01D         	goto	l6255
  3298  003B8C                     u8010:
  3299  003B8C                     l6265:
  3300  003B8C  C00F  FFD9         	movff	strncmp@l,fsr2l
  3301  003B90  C010  FFDA         	movff	strncmp@l+1,fsr2h
  3302  003B94  50DF               	movf	indf2,w,c
  3303  003B96  6E0E               	movwf	??_strncmp^0,c
  3304  003B98  C011  FFF6         	movff	strncmp@r,tblptrl
  3305  003B9C  C012  FFF7         	movff	strncmp@r+1,tblptrh
  3306  003BA0                     	if	0	;tblptru may be non-zero
  3307  003BA0                     	endif
  3308  003BA0                     	if	1	;Program memory is > 0xFFFF, there are 3 active tblptr bytes
  3309  003BA0  0E00               	movlw	low (__mediumconst shr (0+16))
  3310  003BA2  6EF8               	movwf	tblptru,c
  3311  003BA4                     	endif
  3312  003BA4  0008               	tblrd		*
  3313  003BA6  50F5               	movf	tablat,w,c
  3314  003BA8  5C0E               	subwf	??_strncmp^0,w,c
  3315  003BAA  6E08               	movwf	?_strncmp^0,c
  3316  003BAC  6A09               	clrf	(?_strncmp+1)^0,c
  3317  003BAE  A0D8               	btfss	status,0,c
  3318  003BB0  0609               	decf	(?_strncmp+1)^0,f,c
  3319  003BB2                     l1423:
  3320  003BB2  0012               	return		;funcret
  3321  003BB4                     __end_of_strncmp:
  3322                           	callstack 0
  3323                           
  3324 ;; *************** function _efgtoa *****************
  3325 ;; Defined at:
  3326 ;;		line 332 in file "C:\Program Files\Microchip\xc8\v2.32\pic\sources\c99\common\doprnt.c"
  3327 ;; Parameters:    Size  Location     Type
  3328 ;;  fp              2   58[COMRAM] PTR struct _IO_FILE
  3329 ;;		 -> sprintf@f(6), 
  3330 ;;  f               4   60[COMRAM] PTR struct _IO_FILE
  3331 ;;  c               1   64[COMRAM] unsigned char 
  3332 ;; Auto vars:     Size  Location     Type
  3333 ;;  u               4   52[BANK0 ] unsigned char 
  3334 ;;  g               4   44[BANK0 ] unsigned char 
  3335 ;;  l               4   38[BANK0 ] unsigned char 
  3336 ;;  h               4   34[BANK0 ] unsigned char 
  3337 ;;  ou              4   20[BANK0 ] unsigned char 
  3338 ;;  n               2   50[BANK0 ] int 
  3339 ;;  e               2   48[BANK0 ] int 
  3340 ;;  i               2   42[BANK0 ] int 
  3341 ;;  w               2   30[BANK0 ] int 
  3342 ;;  p               2   28[BANK0 ] int 
  3343 ;;  sign            2   26[BANK0 ] int 
  3344 ;;  d               2   24[BANK0 ] int 
  3345 ;;  m               2   18[BANK0 ] int 
  3346 ;;  ne              2   16[BANK0 ] int 
  3347 ;;  pp              2   14[BANK0 ] int 
  3348 ;;  t               2   12[BANK0 ] int 
  3349 ;;  mode            1   33[BANK0 ] unsigned char 
  3350 ;;  nmode           1   32[BANK0 ] unsigned char 
  3351 ;; Return value:  Size  Location     Type
  3352 ;;                  2   58[COMRAM] int 
  3353 ;; Registers used:
  3354 ;;		wreg, fsr1l, fsr1h, fsr2l, fsr2h, status,2, status,0, tblptrl, tblptrh, tblptru, prodl, prodh, cstack
  3355 ;; Tracked objects:
  3356 ;;		On entry : 0/0
  3357 ;;		On exit  : 0/0
  3358 ;;		Unchanged: 0/0
  3359 ;; Data sizes:     COMRAM   BANK0   BANK1   BANK2   BANK3   BANK4   BANK5   BANK6   BANK7   BANK8   BANK9  BANK10  BANK1
      +1  BANK12  BANK13  BANK14  BANK15
  3360 ;;      Params:         7       0       0       0       0       0       0       0       0       0       0       0       
      +0       0       0       0       0
  3361 ;;      Locals:         0      56       0       0       0       0       0       0       0       0       0       0       
      +0       0       0       0       0
  3362 ;;      Temps:          5       0       0       0       0       0       0       0       0       0       0       0       
      +0       0       0       0       0
  3363 ;;      Totals:        12      56       0       0       0       0       0       0       0       0       0       0       
      +0       0       0       0       0
  3364 ;;Total ram usage:       68 bytes
  3365 ;; Hardware stack levels used: 1
  3366 ;; Hardware stack levels required when called: 9
  3367 ;; This function calls:
  3368 ;;		___awdiv
  3369 ;;		___awmod
  3370 ;;		___fladd
  3371 ;;		___fldiv
  3372 ;;		___fleq
  3373 ;;		___flge
  3374 ;;		___flmul
  3375 ;;		___flneg
  3376 ;;		___flsub
  3377 ;;		___fltol
  3378 ;;		___fpclassifyf
  3379 ;;		_floorf
  3380 ;;		_isupper
  3381 ;;		_pad
  3382 ;;		_strcpy
  3383 ;;		_tolower
  3384 ;; This function is called by:
  3385 ;;		_vfpfcnvrt
  3386 ;; This function uses a non-reentrant model
  3387 ;;
  3388                           
  3389                           	psect	text11
  3390  00102A                     __ptext11:
  3391                           	callstack 0
  3392  00102A                     _efgtoa:
  3393                           	callstack 17
  3394  00102A                     
  3395                           ;C:\Program Files\Microchip\xc8\v2.32\pic\sources\c99\common\doprnt.c: 332: static int e
      +                          fgtoa(FILE *fp, long double f, char c);C:\Program Files\Microchip\xc8\v2.32\pic\sources\
      +                          c99\common\doprnt.c: 333: {;C:\Program Files\Microchip\xc8\v2.32\pic\sources\c99\common\
      +                          doprnt.c: 334:     char mode, nmode;;C:\Program Files\Microchip\xc8\v2.32\pic\sources\c9
      +                          9\common\doprnt.c: 335:     int d, e, i, m, n, ne, p, pp, sign, t, w;;C:\Program Files\M
      +                          icrochip\xc8\v2.32\pic\sources\c99\common\doprnt.c: 336:     long double g, h, l, ou, u;
  3396  00102A  0E00               	movlw	0
  3397  00102C  0100               	movlb	0	; () banked
  3398  00102E  6F7B               	movwf	(efgtoa@sign+1)& (0+255),b
  3399  001030  0E00               	movlw	0
  3400  001032  6F7A               	movwf	efgtoa@sign& (0+255),b
  3401  001034                     
  3402                           ; BSR set to: 0
  3403                           ;C:\Program Files\Microchip\xc8\v2.32\pic\sources\c99\common\doprnt.c: 340:     g = f;
  3404  001034  C03D  F08C         	movff	efgtoa@f,efgtoa@g
  3405  001038  C03E  F08D         	movff	efgtoa@f+1,efgtoa@g+1
  3406  00103C  C03F  F08E         	movff	efgtoa@f+2,efgtoa@g+2
  3407  001040  C040  F08F         	movff	efgtoa@f+3,efgtoa@g+3
  3408  001044                     
  3409                           ; BSR set to: 0
  3410                           ;C:\Program Files\Microchip\xc8\v2.32\pic\sources\c99\common\doprnt.c: 341:     if (g < 
      +                          0.0) {
  3411  001044  BF8F               	btfsc	(efgtoa@g+3)& (0+255),7,b
  3412  001046  EF29  F008         	goto	u7360
  3413  00104A  EF27  F008         	goto	u7361
  3414  00104E                     u7361:
  3415  00104E  EF3F  F008         	goto	l5909
  3416  001052                     u7360:
  3417  001052                     
  3418                           ; BSR set to: 0
  3419                           ;C:\Program Files\Microchip\xc8\v2.32\pic\sources\c99\common\doprnt.c: 342:         sign
      +                           = 1;
  3420  001052  0E00               	movlw	0
  3421  001054  6F7B               	movwf	(efgtoa@sign+1)& (0+255),b
  3422  001056  0E01               	movlw	1
  3423  001058  6F7A               	movwf	efgtoa@sign& (0+255),b
  3424  00105A                     
  3425                           ; BSR set to: 0
  3426                           ;C:\Program Files\Microchip\xc8\v2.32\pic\sources\c99\common\doprnt.c: 343:         g = 
      +                          -g;
  3427  00105A  C08C  F008         	movff	efgtoa@g,___flneg@f1
  3428  00105E  C08D  F009         	movff	efgtoa@g+1,___flneg@f1+1
  3429  001062  C08E  F00A         	movff	efgtoa@g+2,___flneg@f1+2
  3430  001066  C08F  F00B         	movff	efgtoa@g+3,___flneg@f1+3
  3431  00106A  EC2B  F024         	call	___flneg	;wreg free
  3432  00106E  C008  F08C         	movff	?___flneg,efgtoa@g
  3433  001072  C009  F08D         	movff	?___flneg+1,efgtoa@g+1
  3434  001076  C00A  F08E         	movff	?___flneg+2,efgtoa@g+2
  3435  00107A  C00B  F08F         	movff	?___flneg+3,efgtoa@g+3
  3436  00107E                     l5909:
  3437                           
  3438                           ;C:\Program Files\Microchip\xc8\v2.32\pic\sources\c99\common\doprnt.c: 347:     n = 0;
  3439  00107E  0E00               	movlw	0
  3440  001080  0100               	movlb	0	; () banked
  3441  001082  6F93               	movwf	(efgtoa@n+1)& (0+255),b
  3442  001084  0E00               	movlw	0
  3443  001086  6F92               	movwf	efgtoa@n& (0+255),b
  3444  001088                     
  3445                           ; BSR set to: 0
  3446                           ;C:\Program Files\Microchip\xc8\v2.32\pic\sources\c99\common\doprnt.c: 348:     w = widt
      +                          h;
  3447  001088  C0C2  F07E         	movff	_width,efgtoa@w
  3448  00108C  C0C3  F07F         	movff	_width+1,efgtoa@w+1
  3449  001090                     
  3450                           ; BSR set to: 0
  3451                           ;C:\Program Files\Microchip\xc8\v2.32\pic\sources\c99\common\doprnt.c: 349:     if (sign
      +                           || (flags & (1 << 2))) {
  3452  001090  517A               	movf	efgtoa@sign& (0+255),w,b
  3453  001092  117B               	iorwf	(efgtoa@sign+1)& (0+255),w,b
  3454  001094  A4D8               	btfss	status,2,c
  3455  001096  EF4F  F008         	goto	u7371
  3456  00109A  EF51  F008         	goto	u7370
  3457  00109E                     u7371:
  3458  00109E  EF58  F008         	goto	l5917
  3459  0010A2                     u7370:
  3460  0010A2                     
  3461                           ; BSR set to: 0
  3462  0010A2  A451               	btfss	_flags^0,2,c
  3463  0010A4  EF56  F008         	goto	u7381
  3464  0010A8  EF58  F008         	goto	u7380
  3465  0010AC                     u7381:
  3466  0010AC  EF72  F008         	goto	l5929
  3467  0010B0                     u7380:
  3468  0010B0                     l5917:
  3469                           
  3470                           ; BSR set to: 0
  3471                           ;C:\Program Files\Microchip\xc8\v2.32\pic\sources\c99\common\doprnt.c: 350:         dbuf
      +                          [n] = sign ? '-' : '+';
  3472  0010B0  517A               	movf	efgtoa@sign& (0+255),w,b
  3473  0010B2  117B               	iorwf	(efgtoa@sign+1)& (0+255),w,b
  3474  0010B4  A4D8               	btfss	status,2,c
  3475  0010B6  EF5F  F008         	goto	u7391
  3476  0010BA  EF61  F008         	goto	u7390
  3477  0010BE                     u7391:
  3478  0010BE  EF67  F008         	goto	l5921
  3479  0010C2                     u7390:
  3480  0010C2                     
  3481                           ; BSR set to: 0
  3482  0010C2  0E00               	movlw	0
  3483  0010C4  6F61               	movwf	(_efgtoa$2300+1)& (0+255),b
  3484  0010C6  0E2B               	movlw	43
  3485  0010C8  6F60               	movwf	_efgtoa$2300& (0+255),b
  3486  0010CA  EF6B  F008         	goto	l5923
  3487  0010CE                     l5921:
  3488                           
  3489                           ; BSR set to: 0
  3490  0010CE  0E00               	movlw	0
  3491  0010D0  6F61               	movwf	(_efgtoa$2300+1)& (0+255),b
  3492  0010D2  0E2D               	movlw	45
  3493  0010D4  6F60               	movwf	_efgtoa$2300& (0+255),b
  3494  0010D6                     l5923:
  3495                           
  3496                           ; BSR set to: 0
  3497  0010D6  C060  F10C         	movff	_efgtoa$2300,_dbuf
  3498  0010DA                     
  3499                           ; BSR set to: 0
  3500                           ;C:\Program Files\Microchip\xc8\v2.32\pic\sources\c99\common\doprnt.c: 351:         ++n;
  3501  0010DA  4B92               	infsnz	efgtoa@n& (0+255),f,b
  3502  0010DC  2B93               	incf	(efgtoa@n+1)& (0+255),f,b
  3503  0010DE                     
  3504                           ; BSR set to: 0
  3505                           ;C:\Program Files\Microchip\xc8\v2.32\pic\sources\c99\common\doprnt.c: 352:         --w;
  3506  0010DE  077E               	decf	efgtoa@w& (0+255),f,b
  3507  0010E0  A0D8               	btfss	status,0,c
  3508  0010E2  077F               	decf	(efgtoa@w+1)& (0+255),f,b
  3509  0010E4                     l5929:
  3510                           
  3511                           ; BSR set to: 0
  3512                           ;C:\Program Files\Microchip\xc8\v2.32\pic\sources\c99\common\doprnt.c: 357:         if (
      +                          (0 ? isupper((int)c) : ((unsigned)((int)c)-'A') < 26)) {
  3513  0010E4  C08C  F008         	movff	efgtoa@g,___fpclassifyf@x
  3514  0010E8  C08D  F009         	movff	efgtoa@g+1,___fpclassifyf@x+1
  3515  0010EC  C08E  F00A         	movff	efgtoa@g+2,___fpclassifyf@x+2
  3516  0010F0  C08F  F00B         	movff	efgtoa@g+3,___fpclassifyf@x+3
  3517  0010F4  ECEA  F01C         	call	___fpclassifyf	;wreg free
  3518  0010F8  0408               	decf	?___fpclassifyf^0,w,c
  3519  0010FA  1009               	iorwf	(?___fpclassifyf+1)^0,w,c
  3520  0010FC  A4D8               	btfss	status,2,c
  3521  0010FE  EF83  F008         	goto	u7401
  3522  001102  EF85  F008         	goto	u7400
  3523  001106                     u7401:
  3524  001106  EFDC  F008         	goto	l5947
  3525  00110A                     u7400:
  3526  00110A  0EBF               	movlw	191
  3527  00110C  6E42               	movwf	??_efgtoa^0,c
  3528  00110E  0EFF               	movlw	255
  3529  001110  6E43               	movwf	(??_efgtoa+1)^0,c
  3530  001112  5041               	movf	efgtoa@c^0,w,c
  3531  001114  6E44               	movwf	(??_efgtoa+2)^0,c
  3532  001116  6A45               	clrf	(??_efgtoa+3)^0,c
  3533  001118  5042               	movf	??_efgtoa^0,w,c
  3534  00111A  2644               	addwf	(??_efgtoa+2)^0,f,c
  3535  00111C  5043               	movf	(??_efgtoa+1)^0,w,c
  3536  00111E  2245               	addwfc	(??_efgtoa+3)^0,f,c
  3537  001120  5045               	movf	(??_efgtoa+3)^0,w,c
  3538  001122  E10A               	bnz	u7410
  3539  001124  0E1A               	movlw	26
  3540  001126  5C44               	subwf	(??_efgtoa+2)^0,w,c
  3541  001128  A0D8               	btfss	status,0,c
  3542  00112A  EF99  F008         	goto	u7411
  3543  00112E  EF9C  F008         	goto	u7410
  3544  001132                     u7411:
  3545  001132  0E01               	movlw	1
  3546  001134  EF9D  F008         	goto	u7420
  3547  001138                     u7410:
  3548  001138  0E00               	movlw	0
  3549  00113A                     u7420:
  3550  00113A  0100               	movlb	0	; () banked
  3551  00113C  6F62               	movwf	_efgtoa$2301& (0+255),b
  3552  00113E  6B63               	clrf	(_efgtoa$2301+1)& (0+255),b
  3553  001140                     
  3554                           ; BSR set to: 0
  3555  001140  5162               	movf	_efgtoa$2301& (0+255),w,b
  3556  001142  1163               	iorwf	(_efgtoa$2301+1)& (0+255),w,b
  3557  001144  B4D8               	btfsc	status,2,c
  3558  001146  EFA7  F008         	goto	u7431
  3559  00114A  EFA9  F008         	goto	u7430
  3560  00114E                     u7431:
  3561  00114E  EFB7  F008         	goto	l5939
  3562  001152                     u7430:
  3563  001152                     
  3564                           ; BSR set to: 0
  3565                           ;C:\Program Files\Microchip\xc8\v2.32\pic\sources\c99\common\doprnt.c: 358:             
      +                          strcpy(&dbuf[n], "INF");
  3566  001152  0E0C               	movlw	low _dbuf
  3567  001154  2592               	addwf	efgtoa@n& (0+255),w,b
  3568  001156  6E08               	movwf	strcpy@dest^0,c
  3569  001158  0E01               	movlw	high _dbuf
  3570  00115A  2193               	addwfc	(efgtoa@n+1)& (0+255),w,b
  3571  00115C  6E09               	movwf	(strcpy@dest+1)^0,c
  3572  00115E  0E16               	movlw	low STR_3
  3573  001160  6E0A               	movwf	strcpy@src^0,c
  3574  001162  0E10               	movlw	high STR_3
  3575  001164  6E0B               	movwf	(strcpy@src+1)^0,c
  3576  001166  ECA8  F022         	call	_strcpy	;wreg free
  3577                           
  3578                           ;C:\Program Files\Microchip\xc8\v2.32\pic\sources\c99\common\doprnt.c: 359:         } el
      +                          se {
  3579  00116A  EFC3  F008         	goto	l5941
  3580  00116E                     l5939:
  3581                           
  3582                           ; BSR set to: 0
  3583                           ;C:\Program Files\Microchip\xc8\v2.32\pic\sources\c99\common\doprnt.c: 360:             
      +                          strcpy(&dbuf[n], "inf");
  3584  00116E  0E0C               	movlw	low _dbuf
  3585  001170  2592               	addwf	efgtoa@n& (0+255),w,b
  3586  001172  6E08               	movwf	strcpy@dest^0,c
  3587  001174  0E01               	movlw	high _dbuf
  3588  001176  2193               	addwfc	(efgtoa@n+1)& (0+255),w,b
  3589  001178  6E09               	movwf	(strcpy@dest+1)^0,c
  3590  00117A  0E1E               	movlw	low STR_4
  3591  00117C  6E0A               	movwf	strcpy@src^0,c
  3592  00117E  0E10               	movlw	high STR_4
  3593  001180  6E0B               	movwf	(strcpy@src+1)^0,c
  3594  001182  ECA8  F022         	call	_strcpy	;wreg free
  3595  001186                     l5941:
  3596                           
  3597                           ;C:\Program Files\Microchip\xc8\v2.32\pic\sources\c99\common\doprnt.c: 362:         w -=
      +                           ((sizeof("inf")/sizeof("inf"[0]))-1);
  3598  001186  0100               	movlb	0	; () banked
  3599  001188  0EFD               	movlw	253
  3600  00118A  277E               	addwf	efgtoa@w& (0+255),f,b
  3601  00118C  0EFF               	movlw	255
  3602  00118E  237F               	addwfc	(efgtoa@w+1)& (0+255),f,b
  3603  001190                     l5943:
  3604                           
  3605                           ;C:\Program Files\Microchip\xc8\v2.32\pic\sources\c99\common\doprnt.c: 363:         retu
      +                          rn pad(fp, &dbuf[0], w);
  3606  001190  C03B  F018         	movff	efgtoa@fp,pad@fp
  3607  001194  C03C  F019         	movff	efgtoa@fp+1,pad@fp+1
  3608  001198  0E0C               	movlw	low _dbuf
  3609  00119A  6E1A               	movwf	pad@buf^0,c
  3610  00119C  0E01               	movlw	high _dbuf
  3611  00119E  6E1B               	movwf	(pad@buf+1)^0,c
  3612  0011A0  C07E  F01C         	movff	efgtoa@w,pad@p
  3613  0011A4  C07F  F01D         	movff	efgtoa@w+1,pad@p+1
  3614  0011A8  ECA1  F01E         	call	_pad	;wreg free
  3615  0011AC  C018  F03B         	movff	?_pad,?_efgtoa
  3616  0011B0  C019  F03C         	movff	?_pad+1,?_efgtoa+1
  3617  0011B4  EF41  F00E         	goto	l1185
  3618  0011B8                     l5947:
  3619                           
  3620                           ;C:\Program Files\Microchip\xc8\v2.32\pic\sources\c99\common\doprnt.c: 366:         if (
      +                          (0 ? isupper((int)c) : ((unsigned)((int)c)-'A') < 26)) {
  3621  0011B8  C08C  F008         	movff	efgtoa@g,___fpclassifyf@x
  3622  0011BC  C08D  F009         	movff	efgtoa@g+1,___fpclassifyf@x+1
  3623  0011C0  C08E  F00A         	movff	efgtoa@g+2,___fpclassifyf@x+2
  3624  0011C4  C08F  F00B         	movff	efgtoa@g+3,___fpclassifyf@x+3
  3625  0011C8  ECEA  F01C         	call	___fpclassifyf	;wreg free
  3626  0011CC  5008               	movf	?___fpclassifyf^0,w,c
  3627  0011CE  1009               	iorwf	(?___fpclassifyf+1)^0,w,c
  3628  0011D0  A4D8               	btfss	status,2,c
  3629  0011D2  EFED  F008         	goto	u7441
  3630  0011D6  EFEF  F008         	goto	u7440
  3631  0011DA                     u7441:
  3632  0011DA  EF2F  F009         	goto	l5965
  3633  0011DE                     u7440:
  3634  0011DE  0EBF               	movlw	191
  3635  0011E0  6E42               	movwf	??_efgtoa^0,c
  3636  0011E2  0EFF               	movlw	255
  3637  0011E4  6E43               	movwf	(??_efgtoa+1)^0,c
  3638  0011E6  5041               	movf	efgtoa@c^0,w,c
  3639  0011E8  6E44               	movwf	(??_efgtoa+2)^0,c
  3640  0011EA  6A45               	clrf	(??_efgtoa+3)^0,c
  3641  0011EC  5042               	movf	??_efgtoa^0,w,c
  3642  0011EE  2644               	addwf	(??_efgtoa+2)^0,f,c
  3643  0011F0  5043               	movf	(??_efgtoa+1)^0,w,c
  3644  0011F2  2245               	addwfc	(??_efgtoa+3)^0,f,c
  3645  0011F4  5045               	movf	(??_efgtoa+3)^0,w,c
  3646  0011F6  E10A               	bnz	u7450
  3647  0011F8  0E1A               	movlw	26
  3648  0011FA  5C44               	subwf	(??_efgtoa+2)^0,w,c
  3649  0011FC  A0D8               	btfss	status,0,c
  3650  0011FE  EF03  F009         	goto	u7451
  3651  001202  EF06  F009         	goto	u7450
  3652  001206                     u7451:
  3653  001206  0E01               	movlw	1
  3654  001208  EF07  F009         	goto	u7460
  3655  00120C                     u7450:
  3656  00120C  0E00               	movlw	0
  3657  00120E                     u7460:
  3658  00120E  0100               	movlb	0	; () banked
  3659  001210  6F64               	movwf	_efgtoa$2306& (0+255),b
  3660  001212  6B65               	clrf	(_efgtoa$2306+1)& (0+255),b
  3661  001214                     
  3662                           ; BSR set to: 0
  3663  001214  5164               	movf	_efgtoa$2306& (0+255),w,b
  3664  001216  1165               	iorwf	(_efgtoa$2306+1)& (0+255),w,b
  3665  001218  B4D8               	btfsc	status,2,c
  3666  00121A  EF11  F009         	goto	u7471
  3667  00121E  EF13  F009         	goto	u7470
  3668  001222                     u7471:
  3669  001222  EF21  F009         	goto	l5957
  3670  001226                     u7470:
  3671  001226                     
  3672                           ; BSR set to: 0
  3673                           ;C:\Program Files\Microchip\xc8\v2.32\pic\sources\c99\common\doprnt.c: 367:             
      +                          strcpy(&dbuf[n], "NAN");
  3674  001226  0E0C               	movlw	low _dbuf
  3675  001228  2592               	addwf	efgtoa@n& (0+255),w,b
  3676  00122A  6E08               	movwf	strcpy@dest^0,c
  3677  00122C  0E01               	movlw	high _dbuf
  3678  00122E  2193               	addwfc	(efgtoa@n+1)& (0+255),w,b
  3679  001230  6E09               	movwf	(strcpy@dest+1)^0,c
  3680  001232  0E1A               	movlw	low STR_7
  3681  001234  6E0A               	movwf	strcpy@src^0,c
  3682  001236  0E10               	movlw	high STR_7
  3683  001238  6E0B               	movwf	(strcpy@src+1)^0,c
  3684  00123A  ECA8  F022         	call	_strcpy	;wreg free
  3685                           
  3686                           ;C:\Program Files\Microchip\xc8\v2.32\pic\sources\c99\common\doprnt.c: 368:         } el
      +                          se {
  3687  00123E  EFC3  F008         	goto	l5941
  3688  001242                     l5957:
  3689                           
  3690                           ; BSR set to: 0
  3691                           ;C:\Program Files\Microchip\xc8\v2.32\pic\sources\c99\common\doprnt.c: 369:             
      +                          strcpy(&dbuf[n], "nan");
  3692  001242  0E0C               	movlw	low _dbuf
  3693  001244  2592               	addwf	efgtoa@n& (0+255),w,b
  3694  001246  6E08               	movwf	strcpy@dest^0,c
  3695  001248  0E01               	movlw	high _dbuf
  3696  00124A  2193               	addwfc	(efgtoa@n+1)& (0+255),w,b
  3697  00124C  6E09               	movwf	(strcpy@dest+1)^0,c
  3698  00124E  0E22               	movlw	low STR_8
  3699  001250  6E0A               	movwf	strcpy@src^0,c
  3700  001252  0E10               	movlw	high STR_8
  3701  001254  6E0B               	movwf	(strcpy@src+1)^0,c
  3702  001256  ECA8  F022         	call	_strcpy	;wreg free
  3703  00125A  EFC3  F008         	goto	l5941
  3704  00125E                     l5965:
  3705                           
  3706                           ;C:\Program Files\Microchip\xc8\v2.32\pic\sources\c99\common\doprnt.c: 376:     u = 1.0;
  3707  00125E  0E00               	movlw	0
  3708  001260  0100               	movlb	0	; () banked
  3709  001262  6F94               	movwf	efgtoa@u& (0+255),b
  3710  001264  0E00               	movlw	0
  3711  001266  6F95               	movwf	(efgtoa@u+1)& (0+255),b
  3712  001268  0E80               	movlw	128
  3713  00126A  6F96               	movwf	(efgtoa@u+2)& (0+255),b
  3714  00126C  0E3F               	movlw	63
  3715  00126E  6F97               	movwf	(efgtoa@u+3)& (0+255),b
  3716                           
  3717                           ;C:\Program Files\Microchip\xc8\v2.32\pic\sources\c99\common\doprnt.c: 377:     e = 0;
  3718  001270  0E00               	movlw	0
  3719  001272  6F91               	movwf	(efgtoa@e+1)& (0+255),b
  3720  001274  0E00               	movlw	0
  3721  001276  6F90               	movwf	efgtoa@e& (0+255),b
  3722  001278                     
  3723                           ; BSR set to: 0
  3724                           ;C:\Program Files\Microchip\xc8\v2.32\pic\sources\c99\common\doprnt.c: 378:     if (!(g 
      +                          == 0.0)) {
  3725  001278  C08C  F008         	movff	efgtoa@g,___fleq@ff1
  3726  00127C  C08D  F009         	movff	efgtoa@g+1,___fleq@ff1+1
  3727  001280  C08E  F00A         	movff	efgtoa@g+2,___fleq@ff1+2
  3728  001284  C08F  F00B         	movff	efgtoa@g+3,___fleq@ff1+3
  3729  001288  0E00               	movlw	0
  3730  00128A  6E0C               	movwf	___fleq@ff2^0,c
  3731  00128C  0E00               	movlw	0
  3732  00128E  6E0D               	movwf	(___fleq@ff2+1)^0,c
  3733  001290  0E00               	movlw	0
  3734  001292  6E0E               	movwf	(___fleq@ff2+2)^0,c
  3735  001294  0E00               	movlw	0
  3736  001296  6E0F               	movwf	(___fleq@ff2+3)^0,c
  3737  001298  ECC5  F020         	call	___fleq	;wreg free
  3738  00129C  B0D8               	btfsc	status,0,c
  3739  00129E  EF53  F009         	goto	u7481
  3740  0012A2  EF55  F009         	goto	u7480
  3741  0012A6                     u7481:
  3742  0012A6  EFD8  F009         	goto	l5983
  3743  0012AA                     u7480:
  3744  0012AA  EF74  F009         	goto	l5975
  3745  0012AE                     l5971:
  3746                           
  3747                           ;C:\Program Files\Microchip\xc8\v2.32\pic\sources\c99\common\doprnt.c: 380:             
      +                          u = u*10.0;
  3748  0012AE  C094  F016         	movff	efgtoa@u,___flmul@b
  3749  0012B2  C095  F017         	movff	efgtoa@u+1,___flmul@b+1
  3750  0012B6  C096  F018         	movff	efgtoa@u+2,___flmul@b+2
  3751  0012BA  C097  F019         	movff	efgtoa@u+3,___flmul@b+3
  3752  0012BE  0E00               	movlw	0
  3753  0012C0  6E1A               	movwf	___flmul@a^0,c
  3754  0012C2  0E00               	movlw	0
  3755  0012C4  6E1B               	movwf	(___flmul@a+1)^0,c
  3756  0012C6  0E20               	movlw	32
  3757  0012C8  6E1C               	movwf	(___flmul@a+2)^0,c
  3758  0012CA  0E41               	movlw	65
  3759  0012CC  6E1D               	movwf	(___flmul@a+3)^0,c
  3760  0012CE  EC72  F013         	call	___flmul	;wreg free
  3761  0012D2  C016  F094         	movff	?___flmul,efgtoa@u
  3762  0012D6  C017  F095         	movff	?___flmul+1,efgtoa@u+1
  3763  0012DA  C018  F096         	movff	?___flmul+2,efgtoa@u+2
  3764  0012DE  C019  F097         	movff	?___flmul+3,efgtoa@u+3
  3765  0012E2                     
  3766                           ;C:\Program Files\Microchip\xc8\v2.32\pic\sources\c99\common\doprnt.c: 381:             
      +                          ++e;
  3767  0012E2  0100               	movlb	0	; () banked
  3768  0012E4  4B90               	infsnz	efgtoa@e& (0+255),f,b
  3769  0012E6  2B91               	incf	(efgtoa@e+1)& (0+255),f,b
  3770  0012E8                     l5975:
  3771                           
  3772                           ;C:\Program Files\Microchip\xc8\v2.32\pic\sources\c99\common\doprnt.c: 379:         whil
      +                          e (!(g < (u*10.0))) {
  3773  0012E8  C08C  F02F         	movff	efgtoa@g,___flge@ff1
  3774  0012EC  C08D  F030         	movff	efgtoa@g+1,___flge@ff1+1
  3775  0012F0  C08E  F031         	movff	efgtoa@g+2,___flge@ff1+2
  3776  0012F4  C08F  F032         	movff	efgtoa@g+3,___flge@ff1+3
  3777  0012F8  0E00               	movlw	0
  3778  0012FA  6E1A               	movwf	___flmul@a^0,c
  3779  0012FC  0E00               	movlw	0
  3780  0012FE  6E1B               	movwf	(___flmul@a+1)^0,c
  3781  001300  0E20               	movlw	32
  3782  001302  6E1C               	movwf	(___flmul@a+2)^0,c
  3783  001304  0E41               	movlw	65
  3784  001306  6E1D               	movwf	(___flmul@a+3)^0,c
  3785  001308  C094  F016         	movff	efgtoa@u,___flmul@b
  3786  00130C  C095  F017         	movff	efgtoa@u+1,___flmul@b+1
  3787  001310  C096  F018         	movff	efgtoa@u+2,___flmul@b+2
  3788  001314  C097  F019         	movff	efgtoa@u+3,___flmul@b+3
  3789  001318  EC72  F013         	call	___flmul	;wreg free
  3790  00131C  C016  F033         	movff	?___flmul,___flge@ff2
  3791  001320  C017  F034         	movff	?___flmul+1,___flge@ff2+1
  3792  001324  C018  F035         	movff	?___flmul+2,___flge@ff2+2
  3793  001328  C019  F036         	movff	?___flmul+3,___flge@ff2+3
  3794  00132C  ECE8  F01B         	call	___flge	;wreg free
  3795  001330  B0D8               	btfsc	status,0,c
  3796  001332  EF9D  F009         	goto	u7491
  3797  001336  EF9F  F009         	goto	u7490
  3798  00133A                     u7491:
  3799  00133A  EF57  F009         	goto	l5971
  3800  00133E                     u7490:
  3801  00133E  EFBF  F009         	goto	l5981
  3802  001342                     l5977:
  3803                           
  3804                           ;C:\Program Files\Microchip\xc8\v2.32\pic\sources\c99\common\doprnt.c: 384:             
      +                          u = u/10.0;
  3805  001342  C094  F008         	movff	efgtoa@u,___fldiv@b
  3806  001346  C095  F009         	movff	efgtoa@u+1,___fldiv@b+1
  3807  00134A  C096  F00A         	movff	efgtoa@u+2,___fldiv@b+2
  3808  00134E  C097  F00B         	movff	efgtoa@u+3,___fldiv@b+3
  3809  001352  0E00               	movlw	0
  3810  001354  6E0C               	movwf	___fldiv@a^0,c
  3811  001356  0E00               	movlw	0
  3812  001358  6E0D               	movwf	(___fldiv@a+1)^0,c
  3813  00135A  0E20               	movlw	32
  3814  00135C  6E0E               	movwf	(___fldiv@a+2)^0,c
  3815  00135E  0E41               	movlw	65
  3816  001360  6E0F               	movwf	(___fldiv@a+3)^0,c
  3817  001362  EC87  F015         	call	___fldiv	;wreg free
  3818  001366  C008  F094         	movff	?___fldiv,efgtoa@u
  3819  00136A  C009  F095         	movff	?___fldiv+1,efgtoa@u+1
  3820  00136E  C00A  F096         	movff	?___fldiv+2,efgtoa@u+2
  3821  001372  C00B  F097         	movff	?___fldiv+3,efgtoa@u+3
  3822  001376                     
  3823                           ;C:\Program Files\Microchip\xc8\v2.32\pic\sources\c99\common\doprnt.c: 385:             
      +                          --e;
  3824  001376  0100               	movlb	0	; () banked
  3825  001378  0790               	decf	efgtoa@e& (0+255),f,b
  3826  00137A  A0D8               	btfss	status,0,c
  3827  00137C  0791               	decf	(efgtoa@e+1)& (0+255),f,b
  3828  00137E                     l5981:
  3829                           
  3830                           ;C:\Program Files\Microchip\xc8\v2.32\pic\sources\c99\common\doprnt.c: 383:         whil
      +                          e (g < u) {
  3831  00137E  C08C  F02F         	movff	efgtoa@g,___flge@ff1
  3832  001382  C08D  F030         	movff	efgtoa@g+1,___flge@ff1+1
  3833  001386  C08E  F031         	movff	efgtoa@g+2,___flge@ff1+2
  3834  00138A  C08F  F032         	movff	efgtoa@g+3,___flge@ff1+3
  3835  00138E  C094  F033         	movff	efgtoa@u,___flge@ff2
  3836  001392  C095  F034         	movff	efgtoa@u+1,___flge@ff2+1
  3837  001396  C096  F035         	movff	efgtoa@u+2,___flge@ff2+2
  3838  00139A  C097  F036         	movff	efgtoa@u+3,___flge@ff2+3
  3839  00139E  ECE8  F01B         	call	___flge	;wreg free
  3840  0013A2  A0D8               	btfss	status,0,c
  3841  0013A4  EFD6  F009         	goto	u7501
  3842  0013A8  EFD8  F009         	goto	u7500
  3843  0013AC                     u7501:
  3844  0013AC  EFA1  F009         	goto	l5977
  3845  0013B0                     u7500:
  3846  0013B0                     l5983:
  3847                           
  3848                           ;C:\Program Files\Microchip\xc8\v2.32\pic\sources\c99\common\doprnt.c: 390:     mode = (
      +                          char)tolower((int)c);
  3849  0013B0  C041  F00E         	movff	efgtoa@c,tolower@c
  3850  0013B4  6A0F               	clrf	(tolower@c+1)^0,c
  3851  0013B6  EC78  F022         	call	_tolower	;wreg free
  3852  0013BA  500E               	movf	?_tolower^0,w,c
  3853  0013BC  0100               	movlb	0	; () banked
  3854  0013BE  6F81               	movwf	efgtoa@mode& (0+255),b
  3855  0013C0                     
  3856                           ; BSR set to: 0
  3857                           ;C:\Program Files\Microchip\xc8\v2.32\pic\sources\c99\common\doprnt.c: 391:     nmode = 
      +                          mode;
  3858  0013C0  C081  F080         	movff	efgtoa@mode,efgtoa@nmode
  3859  0013C4                     
  3860                           ; BSR set to: 0
  3861                           ;C:\Program Files\Microchip\xc8\v2.32\pic\sources\c99\common\doprnt.c: 392:     if (mode
      +                           == 'g') {
  3862  0013C4  0E67               	movlw	103
  3863  0013C6  1981               	xorwf	efgtoa@mode& (0+255),w,b
  3864  0013C8  A4D8               	btfss	status,2,c
  3865  0013CA  EFE9  F009         	goto	u7511
  3866  0013CE  EFEB  F009         	goto	u7510
  3867  0013D2                     u7511:
  3868  0013D2  EF11  F00A         	goto	l5997
  3869  0013D6                     u7510:
  3870  0013D6                     
  3871                           ; BSR set to: 0
  3872                           ;C:\Program Files\Microchip\xc8\v2.32\pic\sources\c99\common\doprnt.c: 393:   if (prec =
      +                          = 0) {
  3873  0013D6  504F               	movf	_prec^0,w,c
  3874  0013D8  1050               	iorwf	(_prec+1)^0,w,c
  3875  0013DA  A4D8               	btfss	status,2,c
  3876  0013DC  EFF2  F009         	goto	u7521
  3877  0013E0  EFF4  F009         	goto	u7520
  3878  0013E4                     u7521:
  3879  0013E4  EFF8  F009         	goto	l5993
  3880  0013E8                     u7520:
  3881  0013E8                     
  3882                           ; BSR set to: 0
  3883                           ;C:\Program Files\Microchip\xc8\v2.32\pic\sources\c99\common\doprnt.c: 394:    prec = 1;
  3884  0013E8  0E00               	movlw	0
  3885  0013EA  6E50               	movwf	(_prec+1)^0,c
  3886  0013EC  0E01               	movlw	1
  3887  0013EE  6E4F               	movwf	_prec^0,c
  3888  0013F0                     l5993:
  3889                           
  3890                           ; BSR set to: 0
  3891                           ;C:\Program Files\Microchip\xc8\v2.32\pic\sources\c99\common\doprnt.c: 396:         p = 
      +                          (0 < prec) ? prec : 6;
  3892  0013F0  BE50               	btfsc	(_prec+1)^0,7,c
  3893  0013F2  EF05  F00A         	goto	u7530
  3894  0013F6  5050               	movf	(_prec+1)^0,w,c
  3895  0013F8  E106               	bnz	u7531
  3896  0013FA  044F               	decf	_prec^0,w,c
  3897  0013FC  B0D8               	btfsc	status,0,c
  3898  0013FE  EF03  F00A         	goto	u7531
  3899  001402  EF05  F00A         	goto	u7530
  3900  001406                     u7531:
  3901  001406  EF0B  F00A         	goto	l1203
  3902  00140A                     u7530:
  3903  00140A                     l5995:
  3904                           
  3905                           ; BSR set to: 0
  3906  00140A  0E00               	movlw	0
  3907  00140C  6F7D               	movwf	(efgtoa@p+1)& (0+255),b
  3908  00140E  0E06               	movlw	6
  3909  001410  6F7C               	movwf	efgtoa@p& (0+255),b
  3910  001412  EF1A  F00A         	goto	l6003
  3911  001416                     l1203:
  3912                           
  3913                           ; BSR set to: 0
  3914  001416  C04F  F07C         	movff	_prec,efgtoa@p
  3915  00141A  C050  F07D         	movff	_prec+1,efgtoa@p+1
  3916  00141E  EF1A  F00A         	goto	l6003
  3917  001422                     l5997:
  3918                           
  3919                           ; BSR set to: 0
  3920                           ;C:\Program Files\Microchip\xc8\v2.32\pic\sources\c99\common\doprnt.c: 398:         p = 
      +                          (prec < 0) ? 6 : prec;
  3921  001422  BE50               	btfsc	(_prec+1)^0,7,c
  3922  001424  EF16  F00A         	goto	u7541
  3923  001428  EF18  F00A         	goto	u7540
  3924  00142C                     u7541:
  3925  00142C  EF05  F00A         	goto	l5995
  3926  001430                     u7540:
  3927  001430  EF0B  F00A         	goto	l1203
  3928  001434                     l6003:
  3929                           
  3930                           ; BSR set to: 0
  3931                           ;C:\Program Files\Microchip\xc8\v2.32\pic\sources\c99\common\doprnt.c: 402:     if (mode
      +                           == 'g') {
  3932  001434  0E67               	movlw	103
  3933  001436  1981               	xorwf	efgtoa@mode& (0+255),w,b
  3934  001438  A4D8               	btfss	status,2,c
  3935  00143A  EF21  F00A         	goto	u7551
  3936  00143E  EF23  F00A         	goto	u7550
  3937  001442                     u7551:
  3938  001442  EF52  F00A         	goto	l6013
  3939  001446                     u7550:
  3940  001446                     
  3941                           ; BSR set to: 0
  3942                           ;C:\Program Files\Microchip\xc8\v2.32\pic\sources\c99\common\doprnt.c: 403:         if (
      +                          !(e < -4) && !((p - 1) < e)) {
  3943  001446  AF91               	btfss	(efgtoa@e+1)& (0+255),7,b
  3944  001448  EF31  F00A         	goto	u7560
  3945  00144C  0EFC               	movlw	252
  3946  00144E  5D90               	subwf	efgtoa@e& (0+255),w,b
  3947  001450  0EFF               	movlw	255
  3948  001452  5991               	subwfb	(efgtoa@e+1)& (0+255),w,b
  3949  001454  A0D8               	btfss	status,0,c
  3950  001456  EF2F  F00A         	goto	u7561
  3951  00145A  EF31  F00A         	goto	u7560
  3952  00145E                     u7561:
  3953  00145E  EF50  F00A         	goto	l6011
  3954  001462                     u7560:
  3955  001462                     
  3956                           ; BSR set to: 0
  3957  001462  0EFF               	movlw	255
  3958  001464  6E42               	movwf	??_efgtoa^0,c
  3959  001466  0EFF               	movlw	255
  3960  001468  6E43               	movwf	(??_efgtoa+1)^0,c
  3961  00146A  C07C  F044         	movff	efgtoa@p,??_efgtoa+2
  3962  00146E  C07D  F045         	movff	efgtoa@p+1,??_efgtoa+3
  3963  001472  5042               	movf	??_efgtoa^0,w,c
  3964  001474  2644               	addwf	(??_efgtoa+2)^0,f,c
  3965  001476  5043               	movf	(??_efgtoa+1)^0,w,c
  3966  001478  2245               	addwfc	(??_efgtoa+3)^0,f,c
  3967  00147A  5190               	movf	efgtoa@e& (0+255),w,b
  3968  00147C  5C44               	subwf	(??_efgtoa+2)^0,w,c
  3969  00147E  5045               	movf	(??_efgtoa+3)^0,w,c
  3970  001480  0A80               	xorlw	128
  3971  001482  6E46               	movwf	(??_efgtoa+4)^0,c
  3972  001484  5191               	movf	(efgtoa@e+1)& (0+255),w,b
  3973  001486  0A80               	xorlw	128
  3974  001488  5846               	subwfb	(??_efgtoa+4)^0,w,c
  3975  00148A  A0D8               	btfss	status,0,c
  3976  00148C  EF4A  F00A         	goto	u7571
  3977  001490  EF4C  F00A         	goto	u7570
  3978  001494                     u7571:
  3979  001494  EF50  F00A         	goto	l6011
  3980  001498                     u7570:
  3981  001498                     
  3982                           ; BSR set to: 0
  3983                           ;C:\Program Files\Microchip\xc8\v2.32\pic\sources\c99\common\doprnt.c: 404:             
      +                          nmode = 'f';
  3984  001498  0E66               	movlw	102
  3985  00149A  6F80               	movwf	efgtoa@nmode& (0+255),b
  3986                           
  3987                           ;C:\Program Files\Microchip\xc8\v2.32\pic\sources\c99\common\doprnt.c: 405:         } el
      +                          se {
  3988  00149C  EF52  F00A         	goto	l6013
  3989  0014A0                     l6011:
  3990                           
  3991                           ; BSR set to: 0
  3992                           ;C:\Program Files\Microchip\xc8\v2.32\pic\sources\c99\common\doprnt.c: 406:             
      +                          nmode = 'e';
  3993  0014A0  0E65               	movlw	101
  3994  0014A2  6F80               	movwf	efgtoa@nmode& (0+255),b
  3995  0014A4                     l6013:
  3996                           
  3997                           ; BSR set to: 0
  3998                           ;C:\Program Files\Microchip\xc8\v2.32\pic\sources\c99\common\doprnt.c: 411:     m = p;
  3999  0014A4  C07C  F072         	movff	efgtoa@p,efgtoa@m
  4000  0014A8  C07D  F073         	movff	efgtoa@p+1,efgtoa@m+1
  4001  0014AC                     
  4002                           ; BSR set to: 0
  4003                           ;C:\Program Files\Microchip\xc8\v2.32\pic\sources\c99\common\doprnt.c: 412:     if (!(mo
      +                          de == 'g') || ((nmode == 'f') && (e < 0))) {
  4004  0014AC  0E67               	movlw	103
  4005  0014AE  1981               	xorwf	efgtoa@mode& (0+255),w,b
  4006  0014B0  A4D8               	btfss	status,2,c
  4007  0014B2  EF5D  F00A         	goto	u7581
  4008  0014B6  EF5F  F00A         	goto	u7580
  4009  0014BA                     u7581:
  4010  0014BA  EF6F  F00A         	goto	l6021
  4011  0014BE                     u7580:
  4012  0014BE                     
  4013                           ; BSR set to: 0
  4014  0014BE  0E66               	movlw	102
  4015  0014C0  1980               	xorwf	efgtoa@nmode& (0+255),w,b
  4016  0014C2  A4D8               	btfss	status,2,c
  4017  0014C4  EF66  F00A         	goto	u7591
  4018  0014C8  EF68  F00A         	goto	u7590
  4019  0014CC                     u7591:
  4020  0014CC  EF71  F00A         	goto	l6023
  4021  0014D0                     u7590:
  4022  0014D0                     
  4023                           ; BSR set to: 0
  4024  0014D0  BF91               	btfsc	(efgtoa@e+1)& (0+255),7,b
  4025  0014D2  EF6F  F00A         	goto	u7600
  4026  0014D6  EF6D  F00A         	goto	u7601
  4027  0014DA                     u7601:
  4028  0014DA  EF71  F00A         	goto	l6023
  4029  0014DE                     u7600:
  4030  0014DE                     l6021:
  4031                           
  4032                           ; BSR set to: 0
  4033                           ;C:\Program Files\Microchip\xc8\v2.32\pic\sources\c99\common\doprnt.c: 413:         ++m;
  4034  0014DE  4B72               	infsnz	efgtoa@m& (0+255),f,b
  4035  0014E0  2B73               	incf	(efgtoa@m+1)& (0+255),f,b
  4036  0014E2                     l6023:
  4037                           
  4038                           ; BSR set to: 0
  4039                           ;C:\Program Files\Microchip\xc8\v2.32\pic\sources\c99\common\doprnt.c: 417:     if (nmod
      +                          e == 'f') {
  4040  0014E2  0E66               	movlw	102
  4041  0014E4  1980               	xorwf	efgtoa@nmode& (0+255),w,b
  4042  0014E6  A4D8               	btfss	status,2,c
  4043  0014E8  EF78  F00A         	goto	u7611
  4044  0014EC  EF7A  F00A         	goto	u7610
  4045  0014F0                     u7611:
  4046  0014F0  EF9A  F00A         	goto	l6033
  4047  0014F4                     u7610:
  4048  0014F4                     
  4049                           ; BSR set to: 0
  4050                           ;C:\Program Files\Microchip\xc8\v2.32\pic\sources\c99\common\doprnt.c: 418:         if (
      +                          e < 0) {
  4051  0014F4  BF91               	btfsc	(efgtoa@e+1)& (0+255),7,b
  4052  0014F6  EF81  F00A         	goto	u7620
  4053  0014FA  EF7F  F00A         	goto	u7621
  4054  0014FE                     u7621:
  4055  0014FE  EF8D  F00A         	goto	l6029
  4056  001502                     u7620:
  4057  001502                     
  4058                           ; BSR set to: 0
  4059                           ;C:\Program Files\Microchip\xc8\v2.32\pic\sources\c99\common\doprnt.c: 419:             
      +                          u = 1.0;
  4060  001502  0E00               	movlw	0
  4061  001504  6F94               	movwf	efgtoa@u& (0+255),b
  4062  001506  0E00               	movlw	0
  4063  001508  6F95               	movwf	(efgtoa@u+1)& (0+255),b
  4064  00150A  0E80               	movlw	128
  4065  00150C  6F96               	movwf	(efgtoa@u+2)& (0+255),b
  4066  00150E  0E3F               	movlw	63
  4067  001510  6F97               	movwf	(efgtoa@u+3)& (0+255),b
  4068                           
  4069                           ;C:\Program Files\Microchip\xc8\v2.32\pic\sources\c99\common\doprnt.c: 420:             
      +                          e = 0;
  4070  001512  0E00               	movlw	0
  4071  001514  6F91               	movwf	(efgtoa@e+1)& (0+255),b
  4072  001516  0E00               	movlw	0
  4073  001518  6F90               	movwf	efgtoa@e& (0+255),b
  4074  00151A                     l6029:
  4075                           
  4076                           ; BSR set to: 0
  4077                           ;C:\Program Files\Microchip\xc8\v2.32\pic\sources\c99\common\doprnt.c: 422:         if (
      +                          !(mode == 'g')) {
  4078  00151A  0E67               	movlw	103
  4079  00151C  1981               	xorwf	efgtoa@mode& (0+255),w,b
  4080  00151E  B4D8               	btfsc	status,2,c
  4081  001520  EF94  F00A         	goto	u7631
  4082  001524  EF96  F00A         	goto	u7630
  4083  001528                     u7631:
  4084  001528  EF9A  F00A         	goto	l6033
  4085  00152C                     u7630:
  4086  00152C                     
  4087                           ; BSR set to: 0
  4088                           ;C:\Program Files\Microchip\xc8\v2.32\pic\sources\c99\common\doprnt.c: 423:             
      +                          m += e;
  4089  00152C  5190               	movf	efgtoa@e& (0+255),w,b
  4090  00152E  2772               	addwf	efgtoa@m& (0+255),f,b
  4091  001530  5191               	movf	(efgtoa@e+1)& (0+255),w,b
  4092  001532  2373               	addwfc	(efgtoa@m+1)& (0+255),f,b
  4093  001534                     l6033:
  4094                           
  4095                           ; BSR set to: 0
  4096                           ;C:\Program Files\Microchip\xc8\v2.32\pic\sources\c99\common\doprnt.c: 428:     i = 0;
  4097  001534  0E00               	movlw	0
  4098  001536  6F8B               	movwf	(efgtoa@i+1)& (0+255),b
  4099  001538  0E00               	movlw	0
  4100  00153A  6F8A               	movwf	efgtoa@i& (0+255),b
  4101  00153C                     
  4102                           ; BSR set to: 0
  4103                           ;C:\Program Files\Microchip\xc8\v2.32\pic\sources\c99\common\doprnt.c: 429:     h = g;
  4104  00153C  C08C  F082         	movff	efgtoa@g,efgtoa@h
  4105  001540  C08D  F083         	movff	efgtoa@g+1,efgtoa@h+1
  4106  001544  C08E  F084         	movff	efgtoa@g+2,efgtoa@h+2
  4107  001548  C08F  F085         	movff	efgtoa@g+3,efgtoa@h+3
  4108  00154C                     
  4109                           ; BSR set to: 0
  4110                           ;C:\Program Files\Microchip\xc8\v2.32\pic\sources\c99\common\doprnt.c: 430:     ou = u;
  4111  00154C  C094  F074         	movff	efgtoa@u,efgtoa@ou
  4112  001550  C095  F075         	movff	efgtoa@u+1,efgtoa@ou+1
  4113  001554  C096  F076         	movff	efgtoa@u+2,efgtoa@ou+2
  4114  001558  C097  F077         	movff	efgtoa@u+3,efgtoa@ou+3
  4115                           
  4116                           ;C:\Program Files\Microchip\xc8\v2.32\pic\sources\c99\common\doprnt.c: 431:     while (i
      +                           < m) {
  4117  00155C  EF2B  F00B         	goto	l6047
  4118  001560                     l6039:
  4119                           
  4120                           ; BSR set to: 0
  4121                           ;C:\Program Files\Microchip\xc8\v2.32\pic\sources\c99\common\doprnt.c: 432:         l = 
      +                          floorf(h/u);
  4122  001560  C082  F008         	movff	efgtoa@h,___fldiv@b
  4123  001564  C083  F009         	movff	efgtoa@h+1,___fldiv@b+1
  4124  001568  C084  F00A         	movff	efgtoa@h+2,___fldiv@b+2
  4125  00156C  C085  F00B         	movff	efgtoa@h+3,___fldiv@b+3
  4126  001570  C094  F00C         	movff	efgtoa@u,___fldiv@a
  4127  001574  C095  F00D         	movff	efgtoa@u+1,___fldiv@a+1
  4128  001578  C096  F00E         	movff	efgtoa@u+2,___fldiv@a+2
  4129  00157C  C097  F00F         	movff	efgtoa@u+3,___fldiv@a+3
  4130  001580  EC87  F015         	call	___fldiv	;wreg free
  4131  001584  C008  F021         	movff	?___fldiv,floorf@x
  4132  001588  C009  F022         	movff	?___fldiv+1,floorf@x+1
  4133  00158C  C00A  F023         	movff	?___fldiv+2,floorf@x+2
  4134  001590  C00B  F024         	movff	?___fldiv+3,floorf@x+3
  4135  001594  EC54  F017         	call	_floorf	;wreg free
  4136  001598  C021  F086         	movff	?_floorf,efgtoa@l
  4137  00159C  C022  F087         	movff	?_floorf+1,efgtoa@l+1
  4138  0015A0  C023  F088         	movff	?_floorf+2,efgtoa@l+2
  4139  0015A4  C024  F089         	movff	?_floorf+3,efgtoa@l+3
  4140                           
  4141                           ;C:\Program Files\Microchip\xc8\v2.32\pic\sources\c99\common\doprnt.c: 433:         d = 
      +                          (int)l;
  4142  0015A8  C086  F008         	movff	efgtoa@l,___fltol@f1
  4143  0015AC  C087  F009         	movff	efgtoa@l+1,___fltol@f1+1
  4144  0015B0  C088  F00A         	movff	efgtoa@l+2,___fltol@f1+2
  4145  0015B4  C089  F00B         	movff	efgtoa@l+3,___fltol@f1+3
  4146  0015B8  EC65  F01B         	call	___fltol	;wreg free
  4147  0015BC  C008  F078         	movff	?___fltol,efgtoa@d
  4148  0015C0  C009  F079         	movff	?___fltol+1,efgtoa@d+1
  4149  0015C4                     
  4150                           ;C:\Program Files\Microchip\xc8\v2.32\pic\sources\c99\common\doprnt.c: 434:         h -=
      +                           l*u;
  4151  0015C4  C082  F02F         	movff	efgtoa@h,___flsub@b
  4152  0015C8  C083  F030         	movff	efgtoa@h+1,___flsub@b+1
  4153  0015CC  C084  F031         	movff	efgtoa@h+2,___flsub@b+2
  4154  0015D0  C085  F032         	movff	efgtoa@h+3,___flsub@b+3
  4155  0015D4  C094  F01A         	movff	efgtoa@u,___flmul@a
  4156  0015D8  C095  F01B         	movff	efgtoa@u+1,___flmul@a+1
  4157  0015DC  C096  F01C         	movff	efgtoa@u+2,___flmul@a+2
  4158  0015E0  C097  F01D         	movff	efgtoa@u+3,___flmul@a+3
  4159  0015E4  C086  F016         	movff	efgtoa@l,___flmul@b
  4160  0015E8  C087  F017         	movff	efgtoa@l+1,___flmul@b+1
  4161  0015EC  C088  F018         	movff	efgtoa@l+2,___flmul@b+2
  4162  0015F0  C089  F019         	movff	efgtoa@l+3,___flmul@b+3
  4163  0015F4  EC72  F013         	call	___flmul	;wreg free
  4164  0015F8  C016  F033         	movff	?___flmul,___flsub@a
  4165  0015FC  C017  F034         	movff	?___flmul+1,___flsub@a+1
  4166  001600  C018  F035         	movff	?___flmul+2,___flsub@a+2
  4167  001604  C019  F036         	movff	?___flmul+3,___flsub@a+3
  4168  001608  ECCA  F023         	call	___flsub	;wreg free
  4169  00160C  C02F  F082         	movff	?___flsub,efgtoa@h
  4170  001610  C030  F083         	movff	?___flsub+1,efgtoa@h+1
  4171  001614  C031  F084         	movff	?___flsub+2,efgtoa@h+2
  4172  001618  C032  F085         	movff	?___flsub+3,efgtoa@h+3
  4173  00161C                     
  4174                           ;C:\Program Files\Microchip\xc8\v2.32\pic\sources\c99\common\doprnt.c: 435:         u = 
      +                          u/10.0;
  4175  00161C  C094  F008         	movff	efgtoa@u,___fldiv@b
  4176  001620  C095  F009         	movff	efgtoa@u+1,___fldiv@b+1
  4177  001624  C096  F00A         	movff	efgtoa@u+2,___fldiv@b+2
  4178  001628  C097  F00B         	movff	efgtoa@u+3,___fldiv@b+3
  4179  00162C  0E00               	movlw	0
  4180  00162E  6E0C               	movwf	___fldiv@a^0,c
  4181  001630  0E00               	movlw	0
  4182  001632  6E0D               	movwf	(___fldiv@a+1)^0,c
  4183  001634  0E20               	movlw	32
  4184  001636  6E0E               	movwf	(___fldiv@a+2)^0,c
  4185  001638  0E41               	movlw	65
  4186  00163A  6E0F               	movwf	(___fldiv@a+3)^0,c
  4187  00163C  EC87  F015         	call	___fldiv	;wreg free
  4188  001640  C008  F094         	movff	?___fldiv,efgtoa@u
  4189  001644  C009  F095         	movff	?___fldiv+1,efgtoa@u+1
  4190  001648  C00A  F096         	movff	?___fldiv+2,efgtoa@u+2
  4191  00164C  C00B  F097         	movff	?___fldiv+3,efgtoa@u+3
  4192  001650                     
  4193                           ;C:\Program Files\Microchip\xc8\v2.32\pic\sources\c99\common\doprnt.c: 436:         ++i;
  4194  001650  0100               	movlb	0	; () banked
  4195  001652  4B8A               	infsnz	efgtoa@i& (0+255),f,b
  4196  001654  2B8B               	incf	(efgtoa@i+1)& (0+255),f,b
  4197  001656                     l6047:
  4198                           
  4199                           ; BSR set to: 0
  4200                           ;C:\Program Files\Microchip\xc8\v2.32\pic\sources\c99\common\doprnt.c: 431:     while (i
      +                           < m) {
  4201  001656  5172               	movf	efgtoa@m& (0+255),w,b
  4202  001658  5D8A               	subwf	efgtoa@i& (0+255),w,b
  4203  00165A  518B               	movf	(efgtoa@i+1)& (0+255),w,b
  4204  00165C  0A80               	xorlw	128
  4205  00165E  6E42               	movwf	??_efgtoa^0,c
  4206  001660  5173               	movf	(efgtoa@m+1)& (0+255),w,b
  4207  001662  0A80               	xorlw	128
  4208  001664  5842               	subwfb	??_efgtoa^0,w,c
  4209  001666  A0D8               	btfss	status,0,c
  4210  001668  EF38  F00B         	goto	u7641
  4211  00166C  EF3A  F00B         	goto	u7640
  4212  001670                     u7641:
  4213  001670  EFB0  F00A         	goto	l6039
  4214  001674                     u7640:
  4215  001674                     
  4216                           ; BSR set to: 0
  4217                           ;C:\Program Files\Microchip\xc8\v2.32\pic\sources\c99\common\doprnt.c: 440:     l = u*5.
      +                          0;
  4218  001674  C094  F016         	movff	efgtoa@u,___flmul@b
  4219  001678  C095  F017         	movff	efgtoa@u+1,___flmul@b+1
  4220  00167C  C096  F018         	movff	efgtoa@u+2,___flmul@b+2
  4221  001680  C097  F019         	movff	efgtoa@u+3,___flmul@b+3
  4222  001684  0E00               	movlw	0
  4223  001686  6E1A               	movwf	___flmul@a^0,c
  4224  001688  0E00               	movlw	0
  4225  00168A  6E1B               	movwf	(___flmul@a+1)^0,c
  4226  00168C  0EA0               	movlw	160
  4227  00168E  6E1C               	movwf	(___flmul@a+2)^0,c
  4228  001690  0E40               	movlw	64
  4229  001692  6E1D               	movwf	(___flmul@a+3)^0,c
  4230  001694  EC72  F013         	call	___flmul	;wreg free
  4231  001698  C016  F086         	movff	?___flmul,efgtoa@l
  4232  00169C  C017  F087         	movff	?___flmul+1,efgtoa@l+1
  4233  0016A0  C018  F088         	movff	?___flmul+2,efgtoa@l+2
  4234  0016A4  C019  F089         	movff	?___flmul+3,efgtoa@l+3
  4235  0016A8                     
  4236                           ;C:\Program Files\Microchip\xc8\v2.32\pic\sources\c99\common\doprnt.c: 441:     if (h < 
      +                          l) {
  4237  0016A8  C082  F02F         	movff	efgtoa@h,___flge@ff1
  4238  0016AC  C083  F030         	movff	efgtoa@h+1,___flge@ff1+1
  4239  0016B0  C084  F031         	movff	efgtoa@h+2,___flge@ff1+2
  4240  0016B4  C085  F032         	movff	efgtoa@h+3,___flge@ff1+3
  4241  0016B8  C086  F033         	movff	efgtoa@l,___flge@ff2
  4242  0016BC  C087  F034         	movff	efgtoa@l+1,___flge@ff2+1
  4243  0016C0  C088  F035         	movff	efgtoa@l+2,___flge@ff2+2
  4244  0016C4  C089  F036         	movff	efgtoa@l+3,___flge@ff2+3
  4245  0016C8  ECE8  F01B         	call	___flge	;wreg free
  4246  0016CC  B0D8               	btfsc	status,0,c
  4247  0016CE  EF6B  F00B         	goto	u7651
  4248  0016D2  EF6D  F00B         	goto	u7650
  4249  0016D6                     u7651:
  4250  0016D6  EF78  F00B         	goto	l6055
  4251  0016DA                     u7650:
  4252  0016DA                     
  4253                           ;C:\Program Files\Microchip\xc8\v2.32\pic\sources\c99\common\doprnt.c: 442:         l = 
      +                          0.0;
  4254  0016DA  0E00               	movlw	0
  4255  0016DC  0100               	movlb	0	; () banked
  4256  0016DE  6F86               	movwf	efgtoa@l& (0+255),b
  4257  0016E0  0E00               	movlw	0
  4258  0016E2  6F87               	movwf	(efgtoa@l+1)& (0+255),b
  4259  0016E4  0E00               	movlw	0
  4260  0016E6  6F88               	movwf	(efgtoa@l+2)& (0+255),b
  4261  0016E8  0E00               	movlw	0
  4262  0016EA  6F89               	movwf	(efgtoa@l+3)& (0+255),b
  4263                           
  4264                           ;C:\Program Files\Microchip\xc8\v2.32\pic\sources\c99\common\doprnt.c: 443:     } else {
  4265  0016EC  EFA1  F00B         	goto	l6061
  4266  0016F0                     l6055:
  4267                           
  4268                           ;C:\Program Files\Microchip\xc8\v2.32\pic\sources\c99\common\doprnt.c: 445:         if (
      +                          (h == l) && !(d % 2)) {
  4269  0016F0  C082  F008         	movff	efgtoa@h,___fleq@ff1
  4270  0016F4  C083  F009         	movff	efgtoa@h+1,___fleq@ff1+1
  4271  0016F8  C084  F00A         	movff	efgtoa@h+2,___fleq@ff1+2
  4272  0016FC  C085  F00B         	movff	efgtoa@h+3,___fleq@ff1+3
  4273  001700  C086  F00C         	movff	efgtoa@l,___fleq@ff2
  4274  001704  C087  F00D         	movff	efgtoa@l+1,___fleq@ff2+1
  4275  001708  C088  F00E         	movff	efgtoa@l+2,___fleq@ff2+2
  4276  00170C  C089  F00F         	movff	efgtoa@l+3,___fleq@ff2+3
  4277  001710  ECC5  F020         	call	___fleq	;wreg free
  4278  001714  A0D8               	btfss	status,0,c
  4279  001716  EF8F  F00B         	goto	u7661
  4280  00171A  EF91  F00B         	goto	u7660
  4281  00171E                     u7661:
  4282  00171E  EFA1  F00B         	goto	l6061
  4283  001722                     u7660:
  4284  001722  0100               	movlb	0	; () banked
  4285  001724  B178               	btfsc	efgtoa@d& (0+255),0,b
  4286  001726  EF97  F00B         	goto	u7671
  4287  00172A  EF99  F00B         	goto	u7670
  4288  00172E                     u7671:
  4289  00172E  EFA1  F00B         	goto	l6061
  4290  001732                     u7670:
  4291  001732                     
  4292                           ; BSR set to: 0
  4293                           ;C:\Program Files\Microchip\xc8\v2.32\pic\sources\c99\common\doprnt.c: 446:             
      +                          l = 0.0;
  4294  001732  0E00               	movlw	0
  4295  001734  6F86               	movwf	efgtoa@l& (0+255),b
  4296  001736  0E00               	movlw	0
  4297  001738  6F87               	movwf	(efgtoa@l+1)& (0+255),b
  4298  00173A  0E00               	movlw	0
  4299  00173C  6F88               	movwf	(efgtoa@l+2)& (0+255),b
  4300  00173E  0E00               	movlw	0
  4301  001740  6F89               	movwf	(efgtoa@l+3)& (0+255),b
  4302  001742                     l6061:
  4303                           
  4304                           ;C:\Program Files\Microchip\xc8\v2.32\pic\sources\c99\common\doprnt.c: 451:     h = g + 
      +                          l;
  4305  001742  C08C  F008         	movff	efgtoa@g,___fladd@b
  4306  001746  C08D  F009         	movff	efgtoa@g+1,___fladd@b+1
  4307  00174A  C08E  F00A         	movff	efgtoa@g+2,___fladd@b+2
  4308  00174E  C08F  F00B         	movff	efgtoa@g+3,___fladd@b+3
  4309  001752  C086  F00C         	movff	efgtoa@l,___fladd@a
  4310  001756  C087  F00D         	movff	efgtoa@l+1,___fladd@a+1
  4311  00175A  C088  F00E         	movff	efgtoa@l+2,___fladd@a+2
  4312  00175E  C089  F00F         	movff	efgtoa@l+3,___fladd@a+3
  4313  001762  EC12  F011         	call	___fladd	;wreg free
  4314  001766  C008  F082         	movff	?___fladd,efgtoa@h
  4315  00176A  C009  F083         	movff	?___fladd+1,efgtoa@h+1
  4316  00176E  C00A  F084         	movff	?___fladd+2,efgtoa@h+2
  4317  001772  C00B  F085         	movff	?___fladd+3,efgtoa@h+3
  4318  001776                     
  4319                           ;C:\Program Files\Microchip\xc8\v2.32\pic\sources\c99\common\doprnt.c: 453:  if (h >= (o
      +                          u*10.0)) {
  4320  001776  C082  F02F         	movff	efgtoa@h,___flge@ff1
  4321  00177A  C083  F030         	movff	efgtoa@h+1,___flge@ff1+1
  4322  00177E  C084  F031         	movff	efgtoa@h+2,___flge@ff1+2
  4323  001782  C085  F032         	movff	efgtoa@h+3,___flge@ff1+3
  4324  001786  0E00               	movlw	0
  4325  001788  6E1A               	movwf	___flmul@a^0,c
  4326  00178A  0E00               	movlw	0
  4327  00178C  6E1B               	movwf	(___flmul@a+1)^0,c
  4328  00178E  0E20               	movlw	32
  4329  001790  6E1C               	movwf	(___flmul@a+2)^0,c
  4330  001792  0E41               	movlw	65
  4331  001794  6E1D               	movwf	(___flmul@a+3)^0,c
  4332  001796  C074  F016         	movff	efgtoa@ou,___flmul@b
  4333  00179A  C075  F017         	movff	efgtoa@ou+1,___flmul@b+1
  4334  00179E  C076  F018         	movff	efgtoa@ou+2,___flmul@b+2
  4335  0017A2  C077  F019         	movff	efgtoa@ou+3,___flmul@b+3
  4336  0017A6  EC72  F013         	call	___flmul	;wreg free
  4337  0017AA  C016  F033         	movff	?___flmul,___flge@ff2
  4338  0017AE  C017  F034         	movff	?___flmul+1,___flge@ff2+1
  4339  0017B2  C018  F035         	movff	?___flmul+2,___flge@ff2+2
  4340  0017B6  C019  F036         	movff	?___flmul+3,___flge@ff2+3
  4341  0017BA  ECE8  F01B         	call	___flge	;wreg free
  4342  0017BE  A0D8               	btfss	status,0,c
  4343  0017C0  EFE4  F00B         	goto	u7681
  4344  0017C4  EFE6  F00B         	goto	u7680
  4345  0017C8                     u7681:
  4346  0017C8  EF0F  F00C         	goto	l6073
  4347  0017CC                     u7680:
  4348  0017CC                     
  4349                           ;C:\Program Files\Microchip\xc8\v2.32\pic\sources\c99\common\doprnt.c: 454:   e++;
  4350  0017CC  0100               	movlb	0	; () banked
  4351  0017CE  4B90               	infsnz	efgtoa@e& (0+255),f,b
  4352  0017D0  2B91               	incf	(efgtoa@e+1)& (0+255),f,b
  4353  0017D2                     
  4354                           ; BSR set to: 0
  4355                           ;C:\Program Files\Microchip\xc8\v2.32\pic\sources\c99\common\doprnt.c: 455:   ou *= 10.0
      +                          ;
  4356  0017D2  C074  F016         	movff	efgtoa@ou,___flmul@b
  4357  0017D6  C075  F017         	movff	efgtoa@ou+1,___flmul@b+1
  4358  0017DA  C076  F018         	movff	efgtoa@ou+2,___flmul@b+2
  4359  0017DE  C077  F019         	movff	efgtoa@ou+3,___flmul@b+3
  4360  0017E2  0E00               	movlw	0
  4361  0017E4  6E1A               	movwf	___flmul@a^0,c
  4362  0017E6  0E00               	movlw	0
  4363  0017E8  6E1B               	movwf	(___flmul@a+1)^0,c
  4364  0017EA  0E20               	movlw	32
  4365  0017EC  6E1C               	movwf	(___flmul@a+2)^0,c
  4366  0017EE  0E41               	movlw	65
  4367  0017F0  6E1D               	movwf	(___flmul@a+3)^0,c
  4368  0017F2  EC72  F013         	call	___flmul	;wreg free
  4369  0017F6  C016  F074         	movff	?___flmul,efgtoa@ou
  4370  0017FA  C017  F075         	movff	?___flmul+1,efgtoa@ou+1
  4371  0017FE  C018  F076         	movff	?___flmul+2,efgtoa@ou+2
  4372  001802  C019  F077         	movff	?___flmul+3,efgtoa@ou+3
  4373  001806                     
  4374                           ;C:\Program Files\Microchip\xc8\v2.32\pic\sources\c99\common\doprnt.c: 456:   if (nmode 
      +                          == 'f') {
  4375  001806  0E66               	movlw	102
  4376  001808  0100               	movlb	0	; () banked
  4377  00180A  1980               	xorwf	efgtoa@nmode& (0+255),w,b
  4378  00180C  A4D8               	btfss	status,2,c
  4379  00180E  EF0B  F00C         	goto	u7691
  4380  001812  EF0D  F00C         	goto	u7690
  4381  001816                     u7691:
  4382  001816  EF0F  F00C         	goto	l6073
  4383  00181A                     u7690:
  4384  00181A                     
  4385                           ; BSR set to: 0
  4386                           ;C:\Program Files\Microchip\xc8\v2.32\pic\sources\c99\common\doprnt.c: 458:    m++;
  4387  00181A  4B72               	infsnz	efgtoa@m& (0+255),f,b
  4388  00181C  2B73               	incf	(efgtoa@m+1)& (0+255),f,b
  4389  00181E                     l6073:
  4390                           
  4391                           ;C:\Program Files\Microchip\xc8\v2.32\pic\sources\c99\common\doprnt.c: 463:     u = ou;
  4392  00181E  C074  F094         	movff	efgtoa@ou,efgtoa@u
  4393  001822  C075  F095         	movff	efgtoa@ou+1,efgtoa@u+1
  4394  001826  C076  F096         	movff	efgtoa@ou+2,efgtoa@u+2
  4395  00182A  C077  F097         	movff	efgtoa@ou+3,efgtoa@u+3
  4396  00182E                     
  4397                           ;C:\Program Files\Microchip\xc8\v2.32\pic\sources\c99\common\doprnt.c: 464:     ne = (nm
      +                          ode == 'e') ? 0 : e;
  4398  00182E  0E65               	movlw	101
  4399  001830  0100               	movlb	0	; () banked
  4400  001832  1980               	xorwf	efgtoa@nmode& (0+255),w,b
  4401  001834  B4D8               	btfsc	status,2,c
  4402  001836  EF1F  F00C         	goto	u7701
  4403  00183A  EF21  F00C         	goto	u7700
  4404  00183E                     u7701:
  4405  00183E  EF27  F00C         	goto	l6079
  4406  001842                     u7700:
  4407  001842                     
  4408                           ; BSR set to: 0
  4409  001842  C090  F070         	movff	efgtoa@e,efgtoa@ne
  4410  001846  C091  F071         	movff	efgtoa@e+1,efgtoa@ne+1
  4411  00184A  EF2B  F00C         	goto	l1231
  4412  00184E                     l6079:
  4413                           
  4414                           ; BSR set to: 0
  4415  00184E  0E00               	movlw	0
  4416  001850  6F71               	movwf	(efgtoa@ne+1)& (0+255),b
  4417  001852  0E00               	movlw	0
  4418  001854  6F70               	movwf	efgtoa@ne& (0+255),b
  4419  001856                     l1231:
  4420                           
  4421                           ; BSR set to: 0
  4422                           ;C:\Program Files\Microchip\xc8\v2.32\pic\sources\c99\common\doprnt.c: 465:     pp = 0;
  4423  001856  0E00               	movlw	0
  4424  001858  6F6F               	movwf	(efgtoa@pp+1)& (0+255),b
  4425  00185A  0E00               	movlw	0
  4426  00185C  6F6E               	movwf	efgtoa@pp& (0+255),b
  4427                           
  4428                           ;C:\Program Files\Microchip\xc8\v2.32\pic\sources\c99\common\doprnt.c: 466:     t = 0;
  4429  00185E  0E00               	movlw	0
  4430  001860  6F6D               	movwf	(efgtoa@t+1)& (0+255),b
  4431  001862  0E00               	movlw	0
  4432  001864  6F6C               	movwf	efgtoa@t& (0+255),b
  4433                           
  4434                           ;C:\Program Files\Microchip\xc8\v2.32\pic\sources\c99\common\doprnt.c: 467:     i = 0;
  4435  001866  0E00               	movlw	0
  4436  001868  6F8B               	movwf	(efgtoa@i+1)& (0+255),b
  4437  00186A  0E00               	movlw	0
  4438  00186C  6F8A               	movwf	efgtoa@i& (0+255),b
  4439                           
  4440                           ;C:\Program Files\Microchip\xc8\v2.32\pic\sources\c99\common\doprnt.c: 468:     while ((
      +                          i < m) && (n < (80 - 5))) {
  4441  00186E  EF27  F00D         	goto	l6129
  4442  001872                     l6081:
  4443                           
  4444                           ; BSR set to: 0
  4445                           ;C:\Program Files\Microchip\xc8\v2.32\pic\sources\c99\common\doprnt.c: 469:         l = 
      +                          floorf(h/u);
  4446  001872  C082  F008         	movff	efgtoa@h,___fldiv@b
  4447  001876  C083  F009         	movff	efgtoa@h+1,___fldiv@b+1
  4448  00187A  C084  F00A         	movff	efgtoa@h+2,___fldiv@b+2
  4449  00187E  C085  F00B         	movff	efgtoa@h+3,___fldiv@b+3
  4450  001882  C094  F00C         	movff	efgtoa@u,___fldiv@a
  4451  001886  C095  F00D         	movff	efgtoa@u+1,___fldiv@a+1
  4452  00188A  C096  F00E         	movff	efgtoa@u+2,___fldiv@a+2
  4453  00188E  C097  F00F         	movff	efgtoa@u+3,___fldiv@a+3
  4454  001892  EC87  F015         	call	___fldiv	;wreg free
  4455  001896  C008  F021         	movff	?___fldiv,floorf@x
  4456  00189A  C009  F022         	movff	?___fldiv+1,floorf@x+1
  4457  00189E  C00A  F023         	movff	?___fldiv+2,floorf@x+2
  4458  0018A2  C00B  F024         	movff	?___fldiv+3,floorf@x+3
  4459  0018A6  EC54  F017         	call	_floorf	;wreg free
  4460  0018AA  C021  F086         	movff	?_floorf,efgtoa@l
  4461  0018AE  C022  F087         	movff	?_floorf+1,efgtoa@l+1
  4462  0018B2  C023  F088         	movff	?_floorf+2,efgtoa@l+2
  4463  0018B6  C024  F089         	movff	?_floorf+3,efgtoa@l+3
  4464                           
  4465                           ;C:\Program Files\Microchip\xc8\v2.32\pic\sources\c99\common\doprnt.c: 470:         d = 
      +                          (int)l;
  4466  0018BA  C086  F008         	movff	efgtoa@l,___fltol@f1
  4467  0018BE  C087  F009         	movff	efgtoa@l+1,___fltol@f1+1
  4468  0018C2  C088  F00A         	movff	efgtoa@l+2,___fltol@f1+2
  4469  0018C6  C089  F00B         	movff	efgtoa@l+3,___fltol@f1+3
  4470  0018CA  EC65  F01B         	call	___fltol	;wreg free
  4471  0018CE  C008  F078         	movff	?___fltol,efgtoa@d
  4472  0018D2  C009  F079         	movff	?___fltol+1,efgtoa@d+1
  4473  0018D6                     
  4474                           ;C:\Program Files\Microchip\xc8\v2.32\pic\sources\c99\common\doprnt.c: 471:         if (
      +                          !(flags & (1 << 4)) && !d && (mode == 'g') && (ne < 0)) {
  4475  0018D6  B851               	btfsc	_flags^0,4,c
  4476  0018D8  EF70  F00C         	goto	u7711
  4477  0018DC  EF72  F00C         	goto	u7710
  4478  0018E0                     u7711:
  4479  0018E0  EF90  F00C         	goto	l6093
  4480  0018E4                     u7710:
  4481  0018E4  0100               	movlb	0	; () banked
  4482  0018E6  5178               	movf	efgtoa@d& (0+255),w,b
  4483  0018E8  1179               	iorwf	(efgtoa@d+1)& (0+255),w,b
  4484  0018EA  A4D8               	btfss	status,2,c
  4485  0018EC  EF7A  F00C         	goto	u7721
  4486  0018F0  EF7C  F00C         	goto	u7720
  4487  0018F4                     u7721:
  4488  0018F4  EF90  F00C         	goto	l6093
  4489  0018F8                     u7720:
  4490  0018F8                     
  4491                           ; BSR set to: 0
  4492  0018F8  0E67               	movlw	103
  4493  0018FA  1981               	xorwf	efgtoa@mode& (0+255),w,b
  4494  0018FC  A4D8               	btfss	status,2,c
  4495  0018FE  EF83  F00C         	goto	u7731
  4496  001902  EF85  F00C         	goto	u7730
  4497  001906                     u7731:
  4498  001906  EF90  F00C         	goto	l6093
  4499  00190A                     u7730:
  4500  00190A                     
  4501                           ; BSR set to: 0
  4502  00190A  BF71               	btfsc	(efgtoa@ne+1)& (0+255),7,b
  4503  00190C  EF8C  F00C         	goto	u7740
  4504  001910  EF8A  F00C         	goto	u7741
  4505  001914                     u7741:
  4506  001914  EF90  F00C         	goto	l6093
  4507  001918                     u7740:
  4508  001918                     
  4509                           ; BSR set to: 0
  4510                           ;C:\Program Files\Microchip\xc8\v2.32\pic\sources\c99\common\doprnt.c: 472:             
      +                          ++t;
  4511  001918  4B6C               	infsnz	efgtoa@t& (0+255),f,b
  4512  00191A  2B6D               	incf	(efgtoa@t+1)& (0+255),f,b
  4513                           
  4514                           ;C:\Program Files\Microchip\xc8\v2.32\pic\sources\c99\common\doprnt.c: 473:         } el
      +                          se {
  4515  00191C  EFDB  F00C         	goto	l6121
  4516  001920                     l6093:
  4517                           
  4518                           ;C:\Program Files\Microchip\xc8\v2.32\pic\sources\c99\common\doprnt.c: 474:             
      +                          if (!pp && (ne < 0)) {
  4519  001920  0100               	movlb	0	; () banked
  4520  001922  516E               	movf	efgtoa@pp& (0+255),w,b
  4521  001924  116F               	iorwf	(efgtoa@pp+1)& (0+255),w,b
  4522  001926  A4D8               	btfss	status,2,c
  4523  001928  EF98  F00C         	goto	u7751
  4524  00192C  EF9A  F00C         	goto	u7750
  4525  001930                     u7751:
  4526  001930  EFC4  F00C         	goto	l6113
  4527  001934                     u7750:
  4528  001934                     
  4529                           ; BSR set to: 0
  4530  001934  BF71               	btfsc	(efgtoa@ne+1)& (0+255),7,b
  4531  001936  EFA1  F00C         	goto	u7760
  4532  00193A  EF9F  F00C         	goto	u7761
  4533  00193E                     u7761:
  4534  00193E  EFC4  F00C         	goto	l6113
  4535  001942                     u7760:
  4536  001942                     
  4537                           ; BSR set to: 0
  4538                           ;C:\Program Files\Microchip\xc8\v2.32\pic\sources\c99\common\doprnt.c: 475:             
      +                              dbuf[n++] = '.';
  4539  001942  0E0C               	movlw	low _dbuf
  4540  001944  2592               	addwf	efgtoa@n& (0+255),w,b
  4541  001946  6ED9               	movwf	fsr2l,c
  4542  001948  0E01               	movlw	high _dbuf
  4543  00194A  2193               	addwfc	(efgtoa@n+1)& (0+255),w,b
  4544  00194C  6EDA               	movwf	fsr2h,c
  4545  00194E  0E2E               	movlw	46
  4546  001950  6EDF               	movwf	indf2,c
  4547  001952                     
  4548                           ; BSR set to: 0
  4549  001952  4B92               	infsnz	efgtoa@n& (0+255),f,b
  4550  001954  2B93               	incf	(efgtoa@n+1)& (0+255),f,b
  4551  001956                     
  4552                           ; BSR set to: 0
  4553                           ;C:\Program Files\Microchip\xc8\v2.32\pic\sources\c99\common\doprnt.c: 476:             
      +                              --w;
  4554  001956  077E               	decf	efgtoa@w& (0+255),f,b
  4555  001958  A0D8               	btfss	status,0,c
  4556  00195A  077F               	decf	(efgtoa@w+1)& (0+255),f,b
  4557  00195C                     
  4558                           ; BSR set to: 0
  4559                           ;C:\Program Files\Microchip\xc8\v2.32\pic\sources\c99\common\doprnt.c: 477:             
      +                              pp = 1;
  4560  00195C  0E00               	movlw	0
  4561  00195E  6F6F               	movwf	(efgtoa@pp+1)& (0+255),b
  4562  001960  0E01               	movlw	1
  4563  001962  6F6E               	movwf	efgtoa@pp& (0+255),b
  4564  001964  EFC4  F00C         	goto	l6113
  4565  001968                     l6105:
  4566                           
  4567                           ; BSR set to: 0
  4568                           ;C:\Program Files\Microchip\xc8\v2.32\pic\sources\c99\common\doprnt.c: 480:             
      +                              dbuf[n++] = '0';
  4569  001968  0E0C               	movlw	low _dbuf
  4570  00196A  2592               	addwf	efgtoa@n& (0+255),w,b
  4571  00196C  6ED9               	movwf	fsr2l,c
  4572  00196E  0E01               	movlw	high _dbuf
  4573  001970  2193               	addwfc	(efgtoa@n+1)& (0+255),w,b
  4574  001972  6EDA               	movwf	fsr2h,c
  4575  001974  0E30               	movlw	48
  4576  001976  6EDF               	movwf	indf2,c
  4577  001978                     
  4578                           ; BSR set to: 0
  4579  001978  4B92               	infsnz	efgtoa@n& (0+255),f,b
  4580  00197A  2B93               	incf	(efgtoa@n+1)& (0+255),f,b
  4581  00197C                     
  4582                           ; BSR set to: 0
  4583                           ;C:\Program Files\Microchip\xc8\v2.32\pic\sources\c99\common\doprnt.c: 481:             
      +                              --w;
  4584  00197C  077E               	decf	efgtoa@w& (0+255),f,b
  4585  00197E  A0D8               	btfss	status,0,c
  4586  001980  077F               	decf	(efgtoa@w+1)& (0+255),f,b
  4587  001982                     
  4588                           ; BSR set to: 0
  4589                           ;C:\Program Files\Microchip\xc8\v2.32\pic\sources\c99\common\doprnt.c: 482:             
      +                              --t;
  4590  001982  076C               	decf	efgtoa@t& (0+255),f,b
  4591  001984  A0D8               	btfss	status,0,c
  4592  001986  076D               	decf	(efgtoa@t+1)& (0+255),f,b
  4593  001988                     l6113:
  4594                           
  4595                           ; BSR set to: 0
  4596                           ;C:\Program Files\Microchip\xc8\v2.32\pic\sources\c99\common\doprnt.c: 479:             
      +                          while (t) {
  4597  001988  516C               	movf	efgtoa@t& (0+255),w,b
  4598  00198A  116D               	iorwf	(efgtoa@t+1)& (0+255),w,b
  4599  00198C  A4D8               	btfss	status,2,c
  4600  00198E  EFCB  F00C         	goto	u7771
  4601  001992  EFCD  F00C         	goto	u7770
  4602  001996                     u7771:
  4603  001996  EFB4  F00C         	goto	l6105
  4604  00199A                     u7770:
  4605  00199A                     
  4606                           ; BSR set to: 0
  4607                           ;C:\Program Files\Microchip\xc8\v2.32\pic\sources\c99\common\doprnt.c: 484:             
      +                          dbuf[n++] = (char)((int)'0' + d);
  4608  00199A  0E0C               	movlw	low _dbuf
  4609  00199C  2592               	addwf	efgtoa@n& (0+255),w,b
  4610  00199E  6ED9               	movwf	fsr2l,c
  4611  0019A0  0E01               	movlw	high _dbuf
  4612  0019A2  2193               	addwfc	(efgtoa@n+1)& (0+255),w,b
  4613  0019A4  6EDA               	movwf	fsr2h,c
  4614  0019A6  5178               	movf	efgtoa@d& (0+255),w,b
  4615  0019A8  0F30               	addlw	48
  4616  0019AA  6EDF               	movwf	indf2,c
  4617  0019AC                     
  4618                           ; BSR set to: 0
  4619  0019AC  4B92               	infsnz	efgtoa@n& (0+255),f,b
  4620  0019AE  2B93               	incf	(efgtoa@n+1)& (0+255),f,b
  4621  0019B0                     
  4622                           ; BSR set to: 0
  4623                           ;C:\Program Files\Microchip\xc8\v2.32\pic\sources\c99\common\doprnt.c: 485:             
      +                          --w;
  4624  0019B0  077E               	decf	efgtoa@w& (0+255),f,b
  4625  0019B2  A0D8               	btfss	status,0,c
  4626  0019B4  077F               	decf	(efgtoa@w+1)& (0+255),f,b
  4627  0019B6                     l6121:
  4628                           
  4629                           ; BSR set to: 0
  4630                           ;C:\Program Files\Microchip\xc8\v2.32\pic\sources\c99\common\doprnt.c: 487:         h -=
      +                           l*u;
  4631  0019B6  C082  F02F         	movff	efgtoa@h,___flsub@b
  4632  0019BA  C083  F030         	movff	efgtoa@h+1,___flsub@b+1
  4633  0019BE  C084  F031         	movff	efgtoa@h+2,___flsub@b+2
  4634  0019C2  C085  F032         	movff	efgtoa@h+3,___flsub@b+3
  4635  0019C6  C094  F01A         	movff	efgtoa@u,___flmul@a
  4636  0019CA  C095  F01B         	movff	efgtoa@u+1,___flmul@a+1
  4637  0019CE  C096  F01C         	movff	efgtoa@u+2,___flmul@a+2
  4638  0019D2  C097  F01D         	movff	efgtoa@u+3,___flmul@a+3
  4639  0019D6  C086  F016         	movff	efgtoa@l,___flmul@b
  4640  0019DA  C087  F017         	movff	efgtoa@l+1,___flmul@b+1
  4641  0019DE  C088  F018         	movff	efgtoa@l+2,___flmul@b+2
  4642  0019E2  C089  F019         	movff	efgtoa@l+3,___flmul@b+3
  4643  0019E6  EC72  F013         	call	___flmul	;wreg free
  4644  0019EA  C016  F033         	movff	?___flmul,___flsub@a
  4645  0019EE  C017  F034         	movff	?___flmul+1,___flsub@a+1
  4646  0019F2  C018  F035         	movff	?___flmul+2,___flsub@a+2
  4647  0019F6  C019  F036         	movff	?___flmul+3,___flsub@a+3
  4648  0019FA  ECCA  F023         	call	___flsub	;wreg free
  4649  0019FE  C02F  F082         	movff	?___flsub,efgtoa@h
  4650  001A02  C030  F083         	movff	?___flsub+1,efgtoa@h+1
  4651  001A06  C031  F084         	movff	?___flsub+2,efgtoa@h+2
  4652  001A0A  C032  F085         	movff	?___flsub+3,efgtoa@h+3
  4653  001A0E                     
  4654                           ;C:\Program Files\Microchip\xc8\v2.32\pic\sources\c99\common\doprnt.c: 488:         u = 
      +                          u/10.0;
  4655  001A0E  C094  F008         	movff	efgtoa@u,___fldiv@b
  4656  001A12  C095  F009         	movff	efgtoa@u+1,___fldiv@b+1
  4657  001A16  C096  F00A         	movff	efgtoa@u+2,___fldiv@b+2
  4658  001A1A  C097  F00B         	movff	efgtoa@u+3,___fldiv@b+3
  4659  001A1E  0E00               	movlw	0
  4660  001A20  6E0C               	movwf	___fldiv@a^0,c
  4661  001A22  0E00               	movlw	0
  4662  001A24  6E0D               	movwf	(___fldiv@a+1)^0,c
  4663  001A26  0E20               	movlw	32
  4664  001A28  6E0E               	movwf	(___fldiv@a+2)^0,c
  4665  001A2A  0E41               	movlw	65
  4666  001A2C  6E0F               	movwf	(___fldiv@a+3)^0,c
  4667  001A2E  EC87  F015         	call	___fldiv	;wreg free
  4668  001A32  C008  F094         	movff	?___fldiv,efgtoa@u
  4669  001A36  C009  F095         	movff	?___fldiv+1,efgtoa@u+1
  4670  001A3A  C00A  F096         	movff	?___fldiv+2,efgtoa@u+2
  4671  001A3E  C00B  F097         	movff	?___fldiv+3,efgtoa@u+3
  4672  001A42                     
  4673                           ;C:\Program Files\Microchip\xc8\v2.32\pic\sources\c99\common\doprnt.c: 489:         --ne
      +                          ;
  4674  001A42  0100               	movlb	0	; () banked
  4675  001A44  0770               	decf	efgtoa@ne& (0+255),f,b
  4676  001A46  A0D8               	btfss	status,0,c
  4677  001A48  0771               	decf	(efgtoa@ne+1)& (0+255),f,b
  4678  001A4A                     
  4679                           ; BSR set to: 0
  4680                           ;C:\Program Files\Microchip\xc8\v2.32\pic\sources\c99\common\doprnt.c: 490:         ++i;
  4681  001A4A  4B8A               	infsnz	efgtoa@i& (0+255),f,b
  4682  001A4C  2B8B               	incf	(efgtoa@i+1)& (0+255),f,b
  4683  001A4E                     l6129:
  4684                           
  4685                           ; BSR set to: 0
  4686                           ;C:\Program Files\Microchip\xc8\v2.32\pic\sources\c99\common\doprnt.c: 468:     while ((
      +                          i < m) && (n < (80 - 5))) {
  4687  001A4E  5172               	movf	efgtoa@m& (0+255),w,b
  4688  001A50  5D8A               	subwf	efgtoa@i& (0+255),w,b
  4689  001A52  518B               	movf	(efgtoa@i+1)& (0+255),w,b
  4690  001A54  0A80               	xorlw	128
  4691  001A56  6E42               	movwf	??_efgtoa^0,c
  4692  001A58  5173               	movf	(efgtoa@m+1)& (0+255),w,b
  4693  001A5A  0A80               	xorlw	128
  4694  001A5C  5842               	subwfb	??_efgtoa^0,w,c
  4695  001A5E  B0D8               	btfsc	status,0,c
  4696  001A60  EF34  F00D         	goto	u7781
  4697  001A64  EF36  F00D         	goto	u7780
  4698  001A68                     u7781:
  4699  001A68  EF44  F00D         	goto	l6133
  4700  001A6C                     u7780:
  4701  001A6C                     
  4702                           ; BSR set to: 0
  4703  001A6C  BF93               	btfsc	(efgtoa@n+1)& (0+255),7,b
  4704  001A6E  EF42  F00D         	goto	u7791
  4705  001A72  5193               	movf	(efgtoa@n+1)& (0+255),w,b
  4706  001A74  E109               	bnz	u7790
  4707  001A76  0E4B               	movlw	75
  4708  001A78  5D92               	subwf	efgtoa@n& (0+255),w,b
  4709  001A7A  A0D8               	btfss	status,0,c
  4710  001A7C  EF42  F00D         	goto	u7791
  4711  001A80  EF44  F00D         	goto	u7790
  4712  001A84                     u7791:
  4713  001A84  EF39  F00C         	goto	l6081
  4714  001A88                     u7790:
  4715  001A88                     l6133:
  4716                           
  4717                           ; BSR set to: 0
  4718                           ;C:\Program Files\Microchip\xc8\v2.32\pic\sources\c99\common\doprnt.c: 492:     if (!pp 
      +                          && (flags & (1 << 4))) {
  4719  001A88  516E               	movf	efgtoa@pp& (0+255),w,b
  4720  001A8A  116F               	iorwf	(efgtoa@pp+1)& (0+255),w,b
  4721  001A8C  A4D8               	btfss	status,2,c
  4722  001A8E  EF4B  F00D         	goto	u7801
  4723  001A92  EF4D  F00D         	goto	u7800
  4724  001A96                     u7801:
  4725  001A96  EF5E  F00D         	goto	l6141
  4726  001A9A                     u7800:
  4727  001A9A                     
  4728                           ; BSR set to: 0
  4729  001A9A  A851               	btfss	_flags^0,4,c
  4730  001A9C  EF52  F00D         	goto	u7811
  4731  001AA0  EF54  F00D         	goto	u7810
  4732  001AA4                     u7811:
  4733  001AA4  EF5E  F00D         	goto	l6141
  4734  001AA8                     u7810:
  4735  001AA8                     
  4736                           ; BSR set to: 0
  4737                           ;C:\Program Files\Microchip\xc8\v2.32\pic\sources\c99\common\doprnt.c: 493:         dbuf
      +                          [n++] = '.';
  4738  001AA8  0E0C               	movlw	low _dbuf
  4739  001AAA  2592               	addwf	efgtoa@n& (0+255),w,b
  4740  001AAC  6ED9               	movwf	fsr2l,c
  4741  001AAE  0E01               	movlw	high _dbuf
  4742  001AB0  2193               	addwfc	(efgtoa@n+1)& (0+255),w,b
  4743  001AB2  6EDA               	movwf	fsr2h,c
  4744  001AB4  0E2E               	movlw	46
  4745  001AB6  6EDF               	movwf	indf2,c
  4746  001AB8                     
  4747                           ; BSR set to: 0
  4748  001AB8  4B92               	infsnz	efgtoa@n& (0+255),f,b
  4749  001ABA  2B93               	incf	(efgtoa@n+1)& (0+255),f,b
  4750  001ABC                     l6141:
  4751                           
  4752                           ; BSR set to: 0
  4753                           ;C:\Program Files\Microchip\xc8\v2.32\pic\sources\c99\common\doprnt.c: 495:     dbuf[n] 
      +                          = '\0';
  4754  001ABC  0E0C               	movlw	low _dbuf
  4755  001ABE  2592               	addwf	efgtoa@n& (0+255),w,b
  4756  001AC0  6ED9               	movwf	fsr2l,c
  4757  001AC2  0E01               	movlw	high _dbuf
  4758  001AC4  2193               	addwfc	(efgtoa@n+1)& (0+255),w,b
  4759  001AC6  6EDA               	movwf	fsr2h,c
  4760  001AC8  0E00               	movlw	0
  4761  001ACA  6EDF               	movwf	indf2,c
  4762  001ACC                     
  4763                           ; BSR set to: 0
  4764                           ;C:\Program Files\Microchip\xc8\v2.32\pic\sources\c99\common\doprnt.c: 498:     if (nmod
      +                          e == 'e') {
  4765  001ACC  0E65               	movlw	101
  4766  001ACE  1980               	xorwf	efgtoa@nmode& (0+255),w,b
  4767  001AD0  A4D8               	btfss	status,2,c
  4768  001AD2  EF6D  F00D         	goto	u7821
  4769  001AD6  EF6F  F00D         	goto	u7820
  4770  001ADA                     u7821:
  4771  001ADA  EFC8  F008         	goto	l5943
  4772  001ADE                     u7820:
  4773  001ADE                     
  4774                           ; BSR set to: 0
  4775                           ;C:\Program Files\Microchip\xc8\v2.32\pic\sources\c99\common\doprnt.c: 499:         i = 
      +                          sizeof(dbuf) - 1;
  4776  001ADE  0E00               	movlw	0
  4777  001AE0  6F8B               	movwf	(efgtoa@i+1)& (0+255),b
  4778  001AE2  0E4F               	movlw	79
  4779  001AE4  6F8A               	movwf	efgtoa@i& (0+255),b
  4780  001AE6                     
  4781                           ; BSR set to: 0
  4782                           ;C:\Program Files\Microchip\xc8\v2.32\pic\sources\c99\common\doprnt.c: 500:         dbuf
      +                          [i] = '\0';
  4783  001AE6  0E0C               	movlw	low _dbuf
  4784  001AE8  258A               	addwf	efgtoa@i& (0+255),w,b
  4785  001AEA  6ED9               	movwf	fsr2l,c
  4786  001AEC  0E01               	movlw	high _dbuf
  4787  001AEE  218B               	addwfc	(efgtoa@i+1)& (0+255),w,b
  4788  001AF0  6EDA               	movwf	fsr2h,c
  4789  001AF2  0E00               	movlw	0
  4790  001AF4  6EDF               	movwf	indf2,c
  4791  001AF6                     
  4792                           ; BSR set to: 0
  4793                           ;C:\Program Files\Microchip\xc8\v2.32\pic\sources\c99\common\doprnt.c: 501:         sign
      +                           = 0;
  4794  001AF6  0E00               	movlw	0
  4795  001AF8  6F7B               	movwf	(efgtoa@sign+1)& (0+255),b
  4796  001AFA  0E00               	movlw	0
  4797  001AFC  6F7A               	movwf	efgtoa@sign& (0+255),b
  4798  001AFE                     
  4799                           ; BSR set to: 0
  4800                           ;C:\Program Files\Microchip\xc8\v2.32\pic\sources\c99\common\doprnt.c: 502:         if (
      +                          e < 0) {
  4801  001AFE  BF91               	btfsc	(efgtoa@e+1)& (0+255),7,b
  4802  001B00  EF86  F00D         	goto	u7830
  4803  001B04  EF84  F00D         	goto	u7831
  4804  001B08                     u7831:
  4805  001B08  EF8E  F00D         	goto	l6157
  4806  001B0C                     u7830:
  4807  001B0C                     
  4808                           ; BSR set to: 0
  4809                           ;C:\Program Files\Microchip\xc8\v2.32\pic\sources\c99\common\doprnt.c: 503:             
      +                          sign = 1;
  4810  001B0C  0E00               	movlw	0
  4811  001B0E  6F7B               	movwf	(efgtoa@sign+1)& (0+255),b
  4812  001B10  0E01               	movlw	1
  4813  001B12  6F7A               	movwf	efgtoa@sign& (0+255),b
  4814  001B14                     
  4815                           ; BSR set to: 0
  4816                           ;C:\Program Files\Microchip\xc8\v2.32\pic\sources\c99\common\doprnt.c: 504:             
      +                          e = -e;
  4817  001B14  6D90               	negf	efgtoa@e& (0+255),b
  4818  001B16  1F91               	comf	(efgtoa@e+1)& (0+255),f,b
  4819  001B18  B0D8               	btfsc	status,0,c
  4820  001B1A  2B91               	incf	(efgtoa@e+1)& (0+255),f,b
  4821  001B1C                     l6157:
  4822                           
  4823                           ; BSR set to: 0
  4824                           ;C:\Program Files\Microchip\xc8\v2.32\pic\sources\c99\common\doprnt.c: 506:         p = 
      +                          2;
  4825  001B1C  0E00               	movlw	0
  4826  001B1E  6F7D               	movwf	(efgtoa@p+1)& (0+255),b
  4827  001B20  0E02               	movlw	2
  4828  001B22  6F7C               	movwf	efgtoa@p& (0+255),b
  4829                           
  4830                           ;C:\Program Files\Microchip\xc8\v2.32\pic\sources\c99\common\doprnt.c: 507:         whil
      +                          e (e || (0 < p)) {
  4831  001B24  EFBF  F00D         	goto	l6169
  4832  001B28                     l6159:
  4833                           
  4834                           ; BSR set to: 0
  4835                           ;C:\Program Files\Microchip\xc8\v2.32\pic\sources\c99\common\doprnt.c: 508:             
      +                          --i;
  4836  001B28  078A               	decf	efgtoa@i& (0+255),f,b
  4837  001B2A  A0D8               	btfss	status,0,c
  4838  001B2C  078B               	decf	(efgtoa@i+1)& (0+255),f,b
  4839  001B2E                     
  4840                           ; BSR set to: 0
  4841                           ;C:\Program Files\Microchip\xc8\v2.32\pic\sources\c99\common\doprnt.c: 509:             
      +                          dbuf[i] = '0' + (e % 10);
  4842  001B2E  0E0C               	movlw	low _dbuf
  4843  001B30  258A               	addwf	efgtoa@i& (0+255),w,b
  4844  001B32  6ED9               	movwf	fsr2l,c
  4845  001B34  0E01               	movlw	high _dbuf
  4846  001B36  218B               	addwfc	(efgtoa@i+1)& (0+255),w,b
  4847  001B38  6EDA               	movwf	fsr2h,c
  4848  001B3A  C090  F008         	movff	efgtoa@e,___awmod@dividend
  4849  001B3E  C091  F009         	movff	efgtoa@e+1,___awmod@dividend+1
  4850  001B42  0E00               	movlw	0
  4851  001B44  6E0B               	movwf	(___awmod@divisor+1)^0,c
  4852  001B46  0E0A               	movlw	10
  4853  001B48  6E0A               	movwf	___awmod@divisor^0,c
  4854  001B4A  EC15  F020         	call	___awmod	;wreg free
  4855  001B4E  5008               	movf	?___awmod^0,w,c
  4856  001B50  0F30               	addlw	48
  4857  001B52  6EDF               	movwf	indf2,c
  4858  001B54                     
  4859                           ;C:\Program Files\Microchip\xc8\v2.32\pic\sources\c99\common\doprnt.c: 510:             
      +                          e = e / 10;
  4860  001B54  C090  F008         	movff	efgtoa@e,___awdiv@dividend
  4861  001B58  C091  F009         	movff	efgtoa@e+1,___awdiv@dividend+1
  4862  001B5C  0E00               	movlw	0
  4863  001B5E  6E0B               	movwf	(___awdiv@divisor+1)^0,c
  4864  001B60  0E0A               	movlw	10
  4865  001B62  6E0A               	movwf	___awdiv@divisor^0,c
  4866  001B64  EC3F  F01E         	call	___awdiv	;wreg free
  4867  001B68  C008  F090         	movff	?___awdiv,efgtoa@e
  4868  001B6C  C009  F091         	movff	?___awdiv+1,efgtoa@e+1
  4869  001B70                     
  4870                           ;C:\Program Files\Microchip\xc8\v2.32\pic\sources\c99\common\doprnt.c: 511:             
      +                          --p;
  4871  001B70  0100               	movlb	0	; () banked
  4872  001B72  077C               	decf	efgtoa@p& (0+255),f,b
  4873  001B74  A0D8               	btfss	status,0,c
  4874  001B76  077D               	decf	(efgtoa@p+1)& (0+255),f,b
  4875  001B78                     
  4876                           ; BSR set to: 0
  4877                           ;C:\Program Files\Microchip\xc8\v2.32\pic\sources\c99\common\doprnt.c: 512:             
      +                          --w;
  4878  001B78  077E               	decf	efgtoa@w& (0+255),f,b
  4879  001B7A  A0D8               	btfss	status,0,c
  4880  001B7C  077F               	decf	(efgtoa@w+1)& (0+255),f,b
  4881  001B7E                     l6169:
  4882                           
  4883                           ; BSR set to: 0
  4884                           ;C:\Program Files\Microchip\xc8\v2.32\pic\sources\c99\common\doprnt.c: 507:         whil
      +                          e (e || (0 < p)) {
  4885  001B7E  5190               	movf	efgtoa@e& (0+255),w,b
  4886  001B80  1191               	iorwf	(efgtoa@e+1)& (0+255),w,b
  4887  001B82  A4D8               	btfss	status,2,c
  4888  001B84  EFC6  F00D         	goto	u7841
  4889  001B88  EFC8  F00D         	goto	u7840
  4890  001B8C                     u7841:
  4891  001B8C  EF94  F00D         	goto	l6159
  4892  001B90                     u7840:
  4893  001B90                     
  4894                           ; BSR set to: 0
  4895  001B90  BF7D               	btfsc	(efgtoa@p+1)& (0+255),7,b
  4896  001B92  EFD5  F00D         	goto	u7850
  4897  001B96  517D               	movf	(efgtoa@p+1)& (0+255),w,b
  4898  001B98  E106               	bnz	u7851
  4899  001B9A  057C               	decf	efgtoa@p& (0+255),w,b
  4900  001B9C  B0D8               	btfsc	status,0,c
  4901  001B9E  EFD3  F00D         	goto	u7851
  4902  001BA2  EFD5  F00D         	goto	u7850
  4903  001BA6                     u7851:
  4904  001BA6  EF94  F00D         	goto	l6159
  4905  001BAA                     u7850:
  4906  001BAA                     
  4907                           ; BSR set to: 0
  4908                           ;C:\Program Files\Microchip\xc8\v2.32\pic\sources\c99\common\doprnt.c: 514:         --i;
  4909  001BAA  078A               	decf	efgtoa@i& (0+255),f,b
  4910  001BAC  A0D8               	btfss	status,0,c
  4911  001BAE  078B               	decf	(efgtoa@i+1)& (0+255),f,b
  4912  001BB0                     
  4913                           ; BSR set to: 0
  4914                           ;C:\Program Files\Microchip\xc8\v2.32\pic\sources\c99\common\doprnt.c: 515:         dbuf
      +                          [i] = sign ? '-' : '+';
  4915  001BB0  517A               	movf	efgtoa@sign& (0+255),w,b
  4916  001BB2  117B               	iorwf	(efgtoa@sign+1)& (0+255),w,b
  4917  001BB4  A4D8               	btfss	status,2,c
  4918  001BB6  EFDF  F00D         	goto	u7861
  4919  001BBA  EFE1  F00D         	goto	u7860
  4920  001BBE                     u7861:
  4921  001BBE  EFE7  F00D         	goto	l6179
  4922  001BC2                     u7860:
  4923  001BC2                     
  4924                           ; BSR set to: 0
  4925  001BC2  0E00               	movlw	0
  4926  001BC4  6F67               	movwf	(_efgtoa$2310+1)& (0+255),b
  4927  001BC6  0E2B               	movlw	43
  4928  001BC8  6F66               	movwf	_efgtoa$2310& (0+255),b
  4929  001BCA  EFEB  F00D         	goto	l6181
  4930  001BCE                     l6179:
  4931                           
  4932                           ; BSR set to: 0
  4933  001BCE  0E00               	movlw	0
  4934  001BD0  6F67               	movwf	(_efgtoa$2310+1)& (0+255),b
  4935  001BD2  0E2D               	movlw	45
  4936  001BD4  6F66               	movwf	_efgtoa$2310& (0+255),b
  4937  001BD6                     l6181:
  4938                           
  4939                           ; BSR set to: 0
  4940  001BD6  0E0C               	movlw	low _dbuf
  4941  001BD8  258A               	addwf	efgtoa@i& (0+255),w,b
  4942  001BDA  6ED9               	movwf	fsr2l,c
  4943  001BDC  0E01               	movlw	high _dbuf
  4944  001BDE  218B               	addwfc	(efgtoa@i+1)& (0+255),w,b
  4945  001BE0  6EDA               	movwf	fsr2h,c
  4946  001BE2  C066  FFDF         	movff	_efgtoa$2310,indf2
  4947  001BE6                     
  4948                           ; BSR set to: 0
  4949                           ;C:\Program Files\Microchip\xc8\v2.32\pic\sources\c99\common\doprnt.c: 516:         --w;
  4950  001BE6  077E               	decf	efgtoa@w& (0+255),f,b
  4951  001BE8  A0D8               	btfss	status,0,c
  4952  001BEA  077F               	decf	(efgtoa@w+1)& (0+255),f,b
  4953  001BEC                     
  4954                           ; BSR set to: 0
  4955                           ;C:\Program Files\Microchip\xc8\v2.32\pic\sources\c99\common\doprnt.c: 518:         dbuf
      +                          [i] = (0 ? isupper((int)c) : ((unsigned)((int)c)-'A') < 26) ? 'E' : 'e';
  4956  001BEC  078A               	decf	efgtoa@i& (0+255),f,b
  4957  001BEE  A0D8               	btfss	status,0,c
  4958  001BF0  078B               	decf	(efgtoa@i+1)& (0+255),f,b
  4959  001BF2                     
  4960                           ; BSR set to: 0
  4961  001BF2  0EBF               	movlw	191
  4962  001BF4  6E42               	movwf	??_efgtoa^0,c
  4963  001BF6  0EFF               	movlw	255
  4964  001BF8  6E43               	movwf	(??_efgtoa+1)^0,c
  4965  001BFA  5041               	movf	efgtoa@c^0,w,c
  4966  001BFC  6E44               	movwf	(??_efgtoa+2)^0,c
  4967  001BFE  6A45               	clrf	(??_efgtoa+3)^0,c
  4968  001C00  5042               	movf	??_efgtoa^0,w,c
  4969  001C02  2644               	addwf	(??_efgtoa+2)^0,f,c
  4970  001C04  5043               	movf	(??_efgtoa+1)^0,w,c
  4971  001C06  2245               	addwfc	(??_efgtoa+3)^0,f,c
  4972  001C08  5045               	movf	(??_efgtoa+3)^0,w,c
  4973  001C0A  E10A               	bnz	u7870
  4974  001C0C  0E1A               	movlw	26
  4975  001C0E  5C44               	subwf	(??_efgtoa+2)^0,w,c
  4976  001C10  A0D8               	btfss	status,0,c
  4977  001C12  EF0D  F00E         	goto	u7871
  4978  001C16  EF10  F00E         	goto	u7870
  4979  001C1A                     u7871:
  4980  001C1A  0E01               	movlw	1
  4981  001C1C  EF11  F00E         	goto	u7880
  4982  001C20                     u7870:
  4983  001C20  0E00               	movlw	0
  4984  001C22                     u7880:
  4985  001C22  6F6A               	movwf	_efgtoa$2312& (0+255),b
  4986  001C24  6B6B               	clrf	(_efgtoa$2312+1)& (0+255),b
  4987  001C26                     
  4988                           ; BSR set to: 0
  4989  001C26  516A               	movf	_efgtoa$2312& (0+255),w,b
  4990  001C28  116B               	iorwf	(_efgtoa$2312+1)& (0+255),w,b
  4991  001C2A  A4D8               	btfss	status,2,c
  4992  001C2C  EF1A  F00E         	goto	u7891
  4993  001C30  EF1C  F00E         	goto	u7890
  4994  001C34                     u7891:
  4995  001C34  EF22  F00E         	goto	l6195
  4996  001C38                     u7890:
  4997  001C38                     
  4998                           ; BSR set to: 0
  4999  001C38  0E00               	movlw	0
  5000  001C3A  6F69               	movwf	(_efgtoa$2311+1)& (0+255),b
  5001  001C3C  0E65               	movlw	101
  5002  001C3E  6F68               	movwf	_efgtoa$2311& (0+255),b
  5003  001C40  EF26  F00E         	goto	l6197
  5004  001C44                     l6195:
  5005                           
  5006                           ; BSR set to: 0
  5007  001C44  0E00               	movlw	0
  5008  001C46  6F69               	movwf	(_efgtoa$2311+1)& (0+255),b
  5009  001C48  0E45               	movlw	69
  5010  001C4A  6F68               	movwf	_efgtoa$2311& (0+255),b
  5011  001C4C                     l6197:
  5012                           
  5013                           ; BSR set to: 0
  5014  001C4C  0E0C               	movlw	low _dbuf
  5015  001C4E  258A               	addwf	efgtoa@i& (0+255),w,b
  5016  001C50  6ED9               	movwf	fsr2l,c
  5017  001C52  0E01               	movlw	high _dbuf
  5018  001C54  218B               	addwfc	(efgtoa@i+1)& (0+255),w,b
  5019  001C56  6EDA               	movwf	fsr2h,c
  5020  001C58  C068  FFDF         	movff	_efgtoa$2311,indf2
  5021  001C5C                     
  5022                           ; BSR set to: 0
  5023                           ;C:\Program Files\Microchip\xc8\v2.32\pic\sources\c99\common\doprnt.c: 519:         --w;
  5024  001C5C  077E               	decf	efgtoa@w& (0+255),f,b
  5025  001C5E  A0D8               	btfss	status,0,c
  5026  001C60  077F               	decf	(efgtoa@w+1)& (0+255),f,b
  5027  001C62                     
  5028                           ; BSR set to: 0
  5029                           ;C:\Program Files\Microchip\xc8\v2.32\pic\sources\c99\common\doprnt.c: 520:         strc
      +                          py(&dbuf[n], &dbuf[i]);
  5030  001C62  0E0C               	movlw	low _dbuf
  5031  001C64  2592               	addwf	efgtoa@n& (0+255),w,b
  5032  001C66  6E08               	movwf	strcpy@dest^0,c
  5033  001C68  0E01               	movlw	high _dbuf
  5034  001C6A  2193               	addwfc	(efgtoa@n+1)& (0+255),w,b
  5035  001C6C  6E09               	movwf	(strcpy@dest+1)^0,c
  5036  001C6E  0E0C               	movlw	low _dbuf
  5037  001C70  258A               	addwf	efgtoa@i& (0+255),w,b
  5038  001C72  6E0A               	movwf	strcpy@src^0,c
  5039  001C74  0E01               	movlw	high _dbuf
  5040  001C76  218B               	addwfc	(efgtoa@i+1)& (0+255),w,b
  5041  001C78  6E0B               	movwf	(strcpy@src+1)^0,c
  5042  001C7A  ECA8  F022         	call	_strcpy	;wreg free
  5043  001C7E  EFC8  F008         	goto	l5943
  5044  001C82                     l1185:
  5045  001C82  0012               	return		;funcret
  5046  001C84                     __end_of_efgtoa:
  5047                           	callstack 0
  5048                           
  5049 ;; *************** function _tolower *****************
  5050 ;; Defined at:
  5051 ;;		line 4 in file "C:\Program Files\Microchip\xc8\v2.32\pic\sources\c99\common\tolower.c"
  5052 ;; Parameters:    Size  Location     Type
  5053 ;;  c               2   13[COMRAM] int 
  5054 ;; Auto vars:     Size  Location     Type
  5055 ;;		None
  5056 ;; Return value:  Size  Location     Type
  5057 ;;                  2   13[COMRAM] int 
  5058 ;; Registers used:
  5059 ;;		wreg, status,2, status,0
  5060 ;; Tracked objects:
  5061 ;;		On entry : 0/0
  5062 ;;		On exit  : 0/0
  5063 ;;		Unchanged: 0/0
  5064 ;; Data sizes:     COMRAM   BANK0   BANK1   BANK2   BANK3   BANK4   BANK5   BANK6   BANK7   BANK8   BANK9  BANK10  BANK1
      +1  BANK12  BANK13  BANK14  BANK15
  5065 ;;      Params:         2       0       0       0       0       0       0       0       0       0       0       0       
      +0       0       0       0       0
  5066 ;;      Locals:         2       0       0       0       0       0       0       0       0       0       0       0       
      +0       0       0       0       0
  5067 ;;      Temps:          4       0       0       0       0       0       0       0       0       0       0       0       
      +0       0       0       0       0
  5068 ;;      Totals:         8       0       0       0       0       0       0       0       0       0       0       0       
      +0       0       0       0       0
  5069 ;;Total ram usage:        8 bytes
  5070 ;; Hardware stack levels used: 1
  5071 ;; Hardware stack levels required when called: 6
  5072 ;; This function calls:
  5073 ;;		_isupper
  5074 ;; This function is called by:
  5075 ;;		_efgtoa
  5076 ;;		_vfpfcnvrt
  5077 ;; This function uses a non-reentrant model
  5078 ;;
  5079                           
  5080                           	psect	text12
  5081  0044F0                     __ptext12:
  5082                           	callstack 0
  5083  0044F0                     _tolower:
  5084                           	callstack 20
  5085  0044F0  0EBF               	movlw	191
  5086  0044F2  6E10               	movwf	??_tolower^0,c
  5087  0044F4  0EFF               	movlw	255
  5088  0044F6  6E11               	movwf	(??_tolower+1)^0,c
  5089  0044F8  C00E  F012         	movff	tolower@c,??_tolower+2
  5090  0044FC  C00F  F013         	movff	tolower@c+1,??_tolower+3
  5091  004500  5010               	movf	??_tolower^0,w,c
  5092  004502  2612               	addwf	(??_tolower+2)^0,f,c
  5093  004504  5011               	movf	(??_tolower+1)^0,w,c
  5094  004506  2213               	addwfc	(??_tolower+3)^0,f,c
  5095  004508  5013               	movf	(??_tolower+3)^0,w,c
  5096  00450A  E10A               	bnz	u7190
  5097  00450C  0E1A               	movlw	26
  5098  00450E  5C12               	subwf	(??_tolower+2)^0,w,c
  5099  004510  A0D8               	btfss	status,0,c
  5100  004512  EF8D  F022         	goto	u7191
  5101  004516  EF90  F022         	goto	u7190
  5102  00451A                     u7191:
  5103  00451A  0E01               	movlw	1
  5104  00451C  EF91  F022         	goto	u7200
  5105  004520                     u7190:
  5106  004520  0E00               	movlw	0
  5107  004522                     u7200:
  5108  004522  6E14               	movwf	_tolower$2463^0,c
  5109  004524  6A15               	clrf	(_tolower$2463+1)^0,c
  5110  004526  5014               	movf	_tolower$2463^0,w,c
  5111  004528  1015               	iorwf	(_tolower$2463+1)^0,w,c
  5112  00452A  B4D8               	btfsc	status,2,c
  5113  00452C  EF9A  F022         	goto	u7211
  5114  004530  EF9C  F022         	goto	u7210
  5115  004534                     u7211:
  5116  004534  EFA3  F022         	goto	l1433
  5117  004538                     u7210:
  5118  004538  0E20               	movlw	32
  5119  00453A  100E               	iorwf	tolower@c^0,w,c
  5120  00453C  6E0E               	movwf	?_tolower^0,c
  5121  00453E  500F               	movf	(tolower@c+1)^0,w,c
  5122  004540  6E0F               	movwf	(?_tolower+1)^0,c
  5123  004542  EFA7  F022         	goto	l1438
  5124  004546                     l1433:
  5125  004546  C00E  F00E         	movff	tolower@c,?_tolower
  5126  00454A  C00F  F00F         	movff	tolower@c+1,?_tolower+1
  5127  00454E                     l1438:
  5128  00454E  0012               	return		;funcret
  5129  004550                     __end_of_tolower:
  5130                           	callstack 0
  5131                           
  5132 ;; *************** function _isupper *****************
  5133 ;; Defined at:
  5134 ;;		line 5 in file "C:\Program Files\Microchip\xc8\v2.32\pic\sources\c99\common\isupper.c"
  5135 ;; Parameters:    Size  Location     Type
  5136 ;;  c               2    7[COMRAM] int 
  5137 ;; Auto vars:     Size  Location     Type
  5138 ;;		None
  5139 ;; Return value:  Size  Location     Type
  5140 ;;                  2    7[COMRAM] int 
  5141 ;; Registers used:
  5142 ;;		wreg, status,2, status,0
  5143 ;; Tracked objects:
  5144 ;;		On entry : 0/0
  5145 ;;		On exit  : 0/0
  5146 ;;		Unchanged: 0/0
  5147 ;; Data sizes:     COMRAM   BANK0   BANK1   BANK2   BANK3   BANK4   BANK5   BANK6   BANK7   BANK8   BANK9  BANK10  BANK1
      +1  BANK12  BANK13  BANK14  BANK15
  5148 ;;      Params:         2       0       0       0       0       0       0       0       0       0       0       0       
      +0       0       0       0       0
  5149 ;;      Locals:         0       0       0       0       0       0       0       0       0       0       0       0       
      +0       0       0       0       0
  5150 ;;      Temps:          4       0       0       0       0       0       0       0       0       0       0       0       
      +0       0       0       0       0
  5151 ;;      Totals:         6       0       0       0       0       0       0       0       0       0       0       0       
      +0       0       0       0       0
  5152 ;;Total ram usage:        6 bytes
  5153 ;; Hardware stack levels used: 1
  5154 ;; Hardware stack levels required when called: 5
  5155 ;; This function calls:
  5156 ;;		Nothing
  5157 ;; This function is called by:
  5158 ;;		_efgtoa
  5159 ;;		_vfpfcnvrt
  5160 ;;		_tolower
  5161 ;; This function uses a non-reentrant model
  5162 ;;
  5163                           
  5164                           	psect	text13
  5165  00481E                     __ptext13:
  5166                           	callstack 0
  5167  00481E                     _isupper:
  5168                           	callstack 20
  5169  00481E  0EBF               	movlw	191
  5170  004820  6E0A               	movwf	??_isupper^0,c
  5171  004822  0EFF               	movlw	255
  5172  004824  6E0B               	movwf	(??_isupper+1)^0,c
  5173  004826  C008  F00C         	movff	isupper@c,??_isupper+2
  5174  00482A  C009  F00D         	movff	isupper@c+1,??_isupper+3
  5175  00482E  500A               	movf	??_isupper^0,w,c
  5176  004830  260C               	addwf	(??_isupper+2)^0,f,c
  5177  004832  500B               	movf	(??_isupper+1)^0,w,c
  5178  004834  220D               	addwfc	(??_isupper+3)^0,f,c
  5179  004836  500D               	movf	(??_isupper+3)^0,w,c
  5180  004838  E10A               	bnz	u6340
  5181  00483A  0E1A               	movlw	26
  5182  00483C  5C0C               	subwf	(??_isupper+2)^0,w,c
  5183  00483E  A0D8               	btfss	status,0,c
  5184  004840  EF24  F024         	goto	u6341
  5185  004844  EF27  F024         	goto	u6340
  5186  004848                     u6341:
  5187  004848  0E01               	movlw	1
  5188  00484A  EF28  F024         	goto	u6350
  5189  00484E                     u6340:
  5190  00484E  0E00               	movlw	0
  5191  004850                     u6350:
  5192  004850  6E08               	movwf	?_isupper^0,c
  5193  004852  6A09               	clrf	(?_isupper+1)^0,c
  5194  004854  0012               	return		;funcret
  5195  004856                     __end_of_isupper:
  5196                           	callstack 0
  5197                           
  5198 ;; *************** function _pad *****************
  5199 ;; Defined at:
  5200 ;;		line 72 in file "C:\Program Files\Microchip\xc8\v2.32\pic\sources\c99\common\doprnt.c"
  5201 ;; Parameters:    Size  Location     Type
  5202 ;;  fp              2   23[COMRAM] PTR struct _IO_FILE
  5203 ;;		 -> sprintf@f(6), 
  5204 ;;  buf             2   25[COMRAM] PTR unsigned char 
  5205 ;;		 -> dbuf(80), 
  5206 ;;  p               2   27[COMRAM] int 
  5207 ;; Auto vars:     Size  Location     Type
  5208 ;;  w               2   32[COMRAM] int 
  5209 ;;  i               2   30[COMRAM] int 
  5210 ;; Return value:  Size  Location     Type
  5211 ;;                  2   23[COMRAM] int 
  5212 ;; Registers used:
  5213 ;;		wreg, fsr1l, fsr1h, fsr2l, fsr2h, status,2, status,0, cstack
  5214 ;; Tracked objects:
  5215 ;;		On entry : 0/0
  5216 ;;		On exit  : 0/0
  5217 ;;		Unchanged: 0/0
  5218 ;; Data sizes:     COMRAM   BANK0   BANK1   BANK2   BANK3   BANK4   BANK5   BANK6   BANK7   BANK8   BANK9  BANK10  BANK1
      +1  BANK12  BANK13  BANK14  BANK15
  5219 ;;      Params:         6       0       0       0       0       0       0       0       0       0       0       0       
      +0       0       0       0       0
  5220 ;;      Locals:         4       0       0       0       0       0       0       0       0       0       0       0       
      +0       0       0       0       0
  5221 ;;      Temps:          1       0       0       0       0       0       0       0       0       0       0       0       
      +0       0       0       0       0
  5222 ;;      Totals:        11       0       0       0       0       0       0       0       0       0       0       0       
      +0       0       0       0       0
  5223 ;;Total ram usage:       11 bytes
  5224 ;; Hardware stack levels used: 1
  5225 ;; Hardware stack levels required when called: 8
  5226 ;; This function calls:
  5227 ;;		_fputc
  5228 ;;		_fputs
  5229 ;;		_strlen
  5230 ;; This function is called by:
  5231 ;;		_efgtoa
  5232 ;; This function uses a non-reentrant model
  5233 ;;
  5234                           
  5235                           	psect	text14
  5236  003D42                     __ptext14:
  5237                           	callstack 0
  5238  003D42                     _pad:
  5239                           	callstack 17
  5240  003D42                     
  5241                           ;C:\Program Files\Microchip\xc8\v2.32\pic\sources\c99\common\doprnt.c: 72: static int pa
      +                          d(FILE *fp, char *buf, int p);C:\Program Files\Microchip\xc8\v2.32\pic\sources\c99\commo
      +                          n\doprnt.c: 73: {;C:\Program Files\Microchip\xc8\v2.32\pic\sources\c99\common\doprnt.c: 
      +                          74:     int i, w;;C:\Program Files\Microchip\xc8\v2.32\pic\sources\c99\common\doprnt.c: 
      +                          77:     if (flags & (1 << 0)) {
  5242  003D42  A051               	btfss	_flags^0,0,c
  5243  003D44  EFA6  F01E         	goto	u7081
  5244  003D48  EFA8  F01E         	goto	u7080
  5245  003D4C                     u7081:
  5246  003D4C  EFB2  F01E         	goto	l5805
  5247  003D50                     u7080:
  5248  003D50                     
  5249                           ;C:\Program Files\Microchip\xc8\v2.32\pic\sources\c99\common\doprnt.c: 78:         fputs
      +                          ((const char *)buf, fp);
  5250  003D50  C01A  F011         	movff	pad@buf,fputs@s
  5251  003D54  C01B  F012         	movff	pad@buf+1,fputs@s+1
  5252  003D58  C018  F013         	movff	pad@fp,fputs@fp
  5253  003D5C  C019  F014         	movff	pad@fp+1,fputs@fp+1
  5254  003D60  ECED  F023         	call	_fputs	;wreg free
  5255  003D64                     l5805:
  5256                           
  5257                           ;C:\Program Files\Microchip\xc8\v2.32\pic\sources\c99\common\doprnt.c: 82:     w = (p < 
      +                          0) ? 0 : p;
  5258  003D64  BE1D               	btfsc	(pad@p+1)^0,7,c
  5259  003D66  EFB7  F01E         	goto	u7091
  5260  003D6A  EFB9  F01E         	goto	u7090
  5261  003D6E                     u7091:
  5262  003D6E  EFBF  F01E         	goto	l5809
  5263  003D72                     u7090:
  5264  003D72  C01C  F021         	movff	pad@p,pad@w
  5265  003D76  C01D  F022         	movff	pad@p+1,pad@w+1
  5266  003D7A  EFC3  F01E         	goto	l1162
  5267  003D7E                     l5809:
  5268  003D7E  0E00               	movlw	0
  5269  003D80  6E22               	movwf	(pad@w+1)^0,c
  5270  003D82  0E00               	movlw	0
  5271  003D84  6E21               	movwf	pad@w^0,c
  5272  003D86                     l1162:
  5273                           
  5274                           ;C:\Program Files\Microchip\xc8\v2.32\pic\sources\c99\common\doprnt.c: 83:     i = 0;
  5275  003D86  0E00               	movlw	0
  5276  003D88  6E20               	movwf	(pad@i+1)^0,c
  5277  003D8A  0E00               	movlw	0
  5278  003D8C  6E1F               	movwf	pad@i^0,c
  5279                           
  5280                           ;C:\Program Files\Microchip\xc8\v2.32\pic\sources\c99\common\doprnt.c: 84:     while (i 
      +                          < w) {
  5281  003D8E  EFD5  F01E         	goto	l5815
  5282  003D92                     l5811:
  5283                           
  5284                           ;C:\Program Files\Microchip\xc8\v2.32\pic\sources\c99\common\doprnt.c: 85:         fputc
      +                          (' ', fp);
  5285  003D92  0E00               	movlw	0
  5286  003D94  6E09               	movwf	(fputc@c+1)^0,c
  5287  003D96  0E20               	movlw	32
  5288  003D98  6E08               	movwf	fputc@c^0,c
  5289  003D9A  C018  F00A         	movff	pad@fp,fputc@fp
  5290  003D9E  C019  F00B         	movff	pad@fp+1,fputc@fp+1
  5291  003DA2  ECDA  F01D         	call	_fputc	;wreg free
  5292  003DA6                     
  5293                           ;C:\Program Files\Microchip\xc8\v2.32\pic\sources\c99\common\doprnt.c: 86:         ++i;
  5294  003DA6  4A1F               	infsnz	pad@i^0,f,c
  5295  003DA8  2A20               	incf	(pad@i+1)^0,f,c
  5296  003DAA                     l5815:
  5297                           
  5298                           ;C:\Program Files\Microchip\xc8\v2.32\pic\sources\c99\common\doprnt.c: 84:     while (i 
      +                          < w) {
  5299  003DAA  5021               	movf	pad@w^0,w,c
  5300  003DAC  5C1F               	subwf	pad@i^0,w,c
  5301  003DAE  5020               	movf	(pad@i+1)^0,w,c
  5302  003DB0  0A80               	xorlw	128
  5303  003DB2  6E1E               	movwf	??_pad^0,c
  5304  003DB4  5022               	movf	(pad@w+1)^0,w,c
  5305  003DB6  0A80               	xorlw	128
  5306  003DB8  581E               	subwfb	??_pad^0,w,c
  5307  003DBA  A0D8               	btfss	status,0,c
  5308  003DBC  EFE2  F01E         	goto	u7101
  5309  003DC0  EFE4  F01E         	goto	u7100
  5310  003DC4                     u7101:
  5311  003DC4  EFC9  F01E         	goto	l5811
  5312  003DC8                     u7100:
  5313  003DC8                     
  5314                           ;C:\Program Files\Microchip\xc8\v2.32\pic\sources\c99\common\doprnt.c: 90:     if (!(fla
      +                          gs & (1 << 0))) {
  5315  003DC8  B051               	btfsc	_flags^0,0,c
  5316  003DCA  EFE9  F01E         	goto	u7111
  5317  003DCE  EFEB  F01E         	goto	u7110
  5318  003DD2                     u7111:
  5319  003DD2  EFF5  F01E         	goto	l5819
  5320  003DD6                     u7110:
  5321  003DD6                     
  5322                           ;C:\Program Files\Microchip\xc8\v2.32\pic\sources\c99\common\doprnt.c: 91:         fputs
      +                          ((const char *)buf, fp);
  5323  003DD6  C01A  F011         	movff	pad@buf,fputs@s
  5324  003DDA  C01B  F012         	movff	pad@buf+1,fputs@s+1
  5325  003DDE  C018  F013         	movff	pad@fp,fputs@fp
  5326  003DE2  C019  F014         	movff	pad@fp+1,fputs@fp+1
  5327  003DE6  ECED  F023         	call	_fputs	;wreg free
  5328  003DEA                     l5819:
  5329                           
  5330                           ;C:\Program Files\Microchip\xc8\v2.32\pic\sources\c99\common\doprnt.c: 94:     return (i
      +                          nt)(strlen(buf) + (size_t)w);
  5331  003DEA  C01A  F008         	movff	pad@buf,strlen@s
  5332  003DEE  C01B  F009         	movff	pad@buf+1,strlen@s+1
  5333  003DF2  EC7F  F024         	call	_strlen	;wreg free
  5334  003DF6  5021               	movf	pad@w^0,w,c
  5335  003DF8  2408               	addwf	?_strlen^0,w,c
  5336  003DFA  6E18               	movwf	?_pad^0,c
  5337  003DFC  5022               	movf	(pad@w+1)^0,w,c
  5338  003DFE  2009               	addwfc	(?_strlen+1)^0,w,c
  5339  003E00  6E19               	movwf	(?_pad+1)^0,c
  5340  003E02  0012               	return		;funcret
  5341  003E04                     __end_of_pad:
  5342                           	callstack 0
  5343                           
  5344 ;; *************** function _strlen *****************
  5345 ;; Defined at:
  5346 ;;		line 5 in file "C:\Program Files\Microchip\xc8\v2.32\pic\sources\c99\common\strlen.c"
  5347 ;; Parameters:    Size  Location     Type
  5348 ;;  s               2    7[COMRAM] PTR const unsigned char 
  5349 ;;		 -> dbuf(80), 
  5350 ;; Auto vars:     Size  Location     Type
  5351 ;;  a               2    9[COMRAM] PTR const unsigned char 
  5352 ;;		 -> dbuf(80), 
  5353 ;; Return value:  Size  Location     Type
  5354 ;;                  2    7[COMRAM] unsigned int 
  5355 ;; Registers used:
  5356 ;;		wreg, fsr2l, fsr2h, status,2, status,0
  5357 ;; Tracked objects:
  5358 ;;		On entry : 0/0
  5359 ;;		On exit  : 0/0
  5360 ;;		Unchanged: 0/0
  5361 ;; Data sizes:     COMRAM   BANK0   BANK1   BANK2   BANK3   BANK4   BANK5   BANK6   BANK7   BANK8   BANK9  BANK10  BANK1
      +1  BANK12  BANK13  BANK14  BANK15
  5362 ;;      Params:         2       0       0       0       0       0       0       0       0       0       0       0       
      +0       0       0       0       0
  5363 ;;      Locals:         2       0       0       0       0       0       0       0       0       0       0       0       
      +0       0       0       0       0
  5364 ;;      Temps:          0       0       0       0       0       0       0       0       0       0       0       0       
      +0       0       0       0       0
  5365 ;;      Totals:         4       0       0       0       0       0       0       0       0       0       0       0       
      +0       0       0       0       0
  5366 ;;Total ram usage:        4 bytes
  5367 ;; Hardware stack levels used: 1
  5368 ;; Hardware stack levels required when called: 5
  5369 ;; This function calls:
  5370 ;;		Nothing
  5371 ;; This function is called by:
  5372 ;;		_pad
  5373 ;; This function uses a non-reentrant model
  5374 ;;
  5375                           
  5376                           	psect	text15
  5377  0048FE                     __ptext15:
  5378                           	callstack 0
  5379  0048FE                     _strlen:
  5380                           	callstack 19
  5381  0048FE  C008  F00A         	movff	strlen@s,strlen@a
  5382  004902  C009  F00B         	movff	strlen@s+1,strlen@a+1
  5383  004906  EF87  F024         	goto	l5337
  5384  00490A                     l5335:
  5385  00490A  4A08               	infsnz	strlen@s^0,f,c
  5386  00490C  2A09               	incf	(strlen@s+1)^0,f,c
  5387  00490E                     l5337:
  5388  00490E  C008  FFD9         	movff	strlen@s,fsr2l
  5389  004912  C009  FFDA         	movff	strlen@s+1,fsr2h
  5390  004916  50DF               	movf	indf2,w,c
  5391  004918  A4D8               	btfss	status,2,c
  5392  00491A  EF91  F024         	goto	u6331
  5393  00491E  EF93  F024         	goto	u6330
  5394  004922                     u6331:
  5395  004922  EF85  F024         	goto	l5335
  5396  004926                     u6330:
  5397  004926  500A               	movf	strlen@a^0,w,c
  5398  004928  5C08               	subwf	strlen@s^0,w,c
  5399  00492A  6E08               	movwf	?_strlen^0,c
  5400  00492C  500B               	movf	(strlen@a+1)^0,w,c
  5401  00492E  5809               	subwfb	(strlen@s+1)^0,w,c
  5402  004930  6E09               	movwf	(?_strlen+1)^0,c
  5403  004932  0012               	return		;funcret
  5404  004934                     __end_of_strlen:
  5405                           	callstack 0
  5406                           
  5407 ;; *************** function _fputs *****************
  5408 ;; Defined at:
  5409 ;;		line 8 in file "C:\Program Files\Microchip\xc8\v2.32\pic\sources\c99\common\nf_fputs.c"
  5410 ;; Parameters:    Size  Location     Type
  5411 ;;  s               2   16[COMRAM] PTR const unsigned char 
  5412 ;;		 -> dbuf(80), 
  5413 ;;  fp              2   18[COMRAM] PTR struct _IO_FILE
  5414 ;;		 -> sprintf@f(6), 
  5415 ;; Auto vars:     Size  Location     Type
  5416 ;;  i               2   21[COMRAM] int 
  5417 ;;  c               1   20[COMRAM] unsigned char 
  5418 ;; Return value:  Size  Location     Type
  5419 ;;                  2   16[COMRAM] int 
  5420 ;; Registers used:
  5421 ;;		wreg, fsr1l, fsr1h, fsr2l, fsr2h, status,2, status,0, cstack
  5422 ;; Tracked objects:
  5423 ;;		On entry : 0/0
  5424 ;;		On exit  : 0/0
  5425 ;;		Unchanged: 0/0
  5426 ;; Data sizes:     COMRAM   BANK0   BANK1   BANK2   BANK3   BANK4   BANK5   BANK6   BANK7   BANK8   BANK9  BANK10  BANK1
      +1  BANK12  BANK13  BANK14  BANK15
  5427 ;;      Params:         4       0       0       0       0       0       0       0       0       0       0       0       
      +0       0       0       0       0
  5428 ;;      Locals:         3       0       0       0       0       0       0       0       0       0       0       0       
      +0       0       0       0       0
  5429 ;;      Temps:          0       0       0       0       0       0       0       0       0       0       0       0       
      +0       0       0       0       0
  5430 ;;      Totals:         7       0       0       0       0       0       0       0       0       0       0       0       
      +0       0       0       0       0
  5431 ;;Total ram usage:        7 bytes
  5432 ;; Hardware stack levels used: 1
  5433 ;; Hardware stack levels required when called: 7
  5434 ;; This function calls:
  5435 ;;		_fputc
  5436 ;; This function is called by:
  5437 ;;		_pad
  5438 ;; This function uses a non-reentrant model
  5439 ;;
  5440                           
  5441                           	psect	text16
  5442  0047DA                     __ptext16:
  5443                           	callstack 0
  5444  0047DA                     _fputs:
  5445                           	callstack 17
  5446  0047DA  0E00               	movlw	0
  5447  0047DC  6E17               	movwf	(fputs@i+1)^0,c
  5448  0047DE  0E00               	movlw	0
  5449  0047E0  6E16               	movwf	fputs@i^0,c
  5450  0047E2  EFFE  F023         	goto	l5331
  5451  0047E6                     l5327:
  5452  0047E6  C015  F008         	movff	fputs@c,fputc@c
  5453  0047EA  6A09               	clrf	(fputc@c+1)^0,c
  5454  0047EC  C013  F00A         	movff	fputs@fp,fputc@fp
  5455  0047F0  C014  F00B         	movff	fputs@fp+1,fputc@fp+1
  5456  0047F4  ECDA  F01D         	call	_fputc	;wreg free
  5457  0047F8  4A16               	infsnz	fputs@i^0,f,c
  5458  0047FA  2A17               	incf	(fputs@i+1)^0,f,c
  5459  0047FC                     l5331:
  5460  0047FC  5016               	movf	fputs@i^0,w,c
  5461  0047FE  2411               	addwf	fputs@s^0,w,c
  5462  004800  6ED9               	movwf	fsr2l,c
  5463  004802  5017               	movf	(fputs@i+1)^0,w,c
  5464  004804  2012               	addwfc	(fputs@s+1)^0,w,c
  5465  004806  6EDA               	movwf	fsr2h,c
  5466  004808  50DF               	movf	indf2,w,c
  5467  00480A  6E15               	movwf	fputs@c^0,c
  5468  00480C  5015               	movf	fputs@c^0,w,c
  5469  00480E  A4D8               	btfss	status,2,c
  5470  004810  EF0C  F024         	goto	u6321
  5471  004814  EF0E  F024         	goto	u6320
  5472  004818                     u6321:
  5473  004818  EFF3  F023         	goto	l5327
  5474  00481C                     u6320:
  5475  00481C  0012               	return		;funcret
  5476  00481E                     __end_of_fputs:
  5477                           	callstack 0
  5478                           
  5479 ;; *************** function _fputc *****************
  5480 ;; Defined at:
  5481 ;;		line 8 in file "C:\Program Files\Microchip\xc8\v2.32\pic\sources\c99\common\nf_fputc.c"
  5482 ;; Parameters:    Size  Location     Type
  5483 ;;  c               2    7[COMRAM] int 
  5484 ;;  fp              2    9[COMRAM] PTR struct _IO_FILE
  5485 ;;		 -> sprintf@f(6), 
  5486 ;; Auto vars:     Size  Location     Type
  5487 ;;		None
  5488 ;; Return value:  Size  Location     Type
  5489 ;;                  2    7[COMRAM] int 
  5490 ;; Registers used:
  5491 ;;		wreg, fsr1l, fsr1h, fsr2l, fsr2h, status,2, status,0, cstack
  5492 ;; Tracked objects:
  5493 ;;		On entry : 0/0
  5494 ;;		On exit  : 0/0
  5495 ;;		Unchanged: 0/0
  5496 ;; Data sizes:     COMRAM   BANK0   BANK1   BANK2   BANK3   BANK4   BANK5   BANK6   BANK7   BANK8   BANK9  BANK10  BANK1
      +1  BANK12  BANK13  BANK14  BANK15
  5497 ;;      Params:         4       0       0       0       0       0       0       0       0       0       0       0       
      +0       0       0       0       0
  5498 ;;      Locals:         0       0       0       0       0       0       0       0       0       0       0       0       
      +0       0       0       0       0
  5499 ;;      Temps:          5       0       0       0       0       0       0       0       0       0       0       0       
      +0       0       0       0       0
  5500 ;;      Totals:         9       0       0       0       0       0       0       0       0       0       0       0       
      +0       0       0       0       0
  5501 ;;Total ram usage:        9 bytes
  5502 ;; Hardware stack levels used: 1
  5503 ;; Hardware stack levels required when called: 6
  5504 ;; This function calls:
  5505 ;;		_putch
  5506 ;; This function is called by:
  5507 ;;		_pad
  5508 ;;		_vfpfcnvrt
  5509 ;;		_fputs
  5510 ;; This function uses a non-reentrant model
  5511 ;;
  5512                           
  5513                           	psect	text17
  5514  003BB4                     __ptext17:
  5515                           	callstack 0
  5516  003BB4                     _fputc:
  5517                           	callstack 20
  5518  003BB4  500A               	movf	fputc@fp^0,w,c
  5519  003BB6  100B               	iorwf	(fputc@fp+1)^0,w,c
  5520  003BB8  B4D8               	btfsc	status,2,c
  5521  003BBA  EFE1  F01D         	goto	u5891
  5522  003BBE  EFE3  F01D         	goto	u5890
  5523  003BC2                     u5891:
  5524  003BC2  EFEC  F01D         	goto	l5113
  5525  003BC6                     u5890:
  5526  003BC6  500A               	movf	fputc@fp^0,w,c
  5527  003BC8  100B               	iorwf	(fputc@fp+1)^0,w,c
  5528  003BCA  A4D8               	btfss	status,2,c
  5529  003BCC  EFEA  F01D         	goto	u5901
  5530  003BD0  EFEC  F01D         	goto	u5900
  5531  003BD4                     u5901:
  5532  003BD4  EFF1  F01D         	goto	l5115
  5533  003BD8                     u5900:
  5534  003BD8                     l5113:
  5535  003BD8  5008               	movf	fputc@c^0,w,c
  5536  003BDA  EC0D  F025         	call	_putch
  5537  003BDE  EF3E  F01E         	goto	l1388
  5538  003BE2                     l5115:
  5539  003BE2  EE20 F004          	lfsr	2,4
  5540  003BE6  500A               	movf	fputc@fp^0,w,c
  5541  003BE8  26D9               	addwf	fsr2l,f,c
  5542  003BEA  500B               	movf	(fputc@fp+1)^0,w,c
  5543  003BEC  22DA               	addwfc	fsr2h,f,c
  5544  003BEE  50DE               	movf	postinc2,w,c
  5545  003BF0  10DE               	iorwf	postinc2,w,c
  5546  003BF2  B4D8               	btfsc	status,2,c
  5547  003BF4  EFFE  F01D         	goto	u5911
  5548  003BF8  EF00  F01E         	goto	u5910
  5549  003BFC                     u5911:
  5550  003BFC  EF1B  F01E         	goto	l5119
  5551  003C00                     u5910:
  5552  003C00  EE20 F004          	lfsr	2,4
  5553  003C04  500A               	movf	fputc@fp^0,w,c
  5554  003C06  26D9               	addwf	fsr2l,f,c
  5555  003C08  500B               	movf	(fputc@fp+1)^0,w,c
  5556  003C0A  22DA               	addwfc	fsr2h,f,c
  5557  003C0C  EE10 F002          	lfsr	1,2
  5558  003C10  500A               	movf	fputc@fp^0,w,c
  5559  003C12  26E1               	addwf	fsr1l,f,c
  5560  003C14  500B               	movf	(fputc@fp+1)^0,w,c
  5561  003C16  22E2               	addwfc	fsr1h,f,c
  5562  003C18  50DE               	movf	postinc2,w,c
  5563  003C1A  5CE6               	subwf	postinc1,w,c
  5564  003C1C  50E6               	movf	postinc1,w,c
  5565  003C1E  0A80               	xorlw	128
  5566  003C20  6E10               	movwf	(??_fputc+4)^0,c
  5567  003C22  50DE               	movf	postinc2,w,c
  5568  003C24  0A80               	xorlw	128
  5569  003C26  5810               	subwfb	(??_fputc+4)^0,w,c
  5570  003C28  B0D8               	btfsc	status,0,c
  5571  003C2A  EF19  F01E         	goto	u5921
  5572  003C2E  EF1B  F01E         	goto	u5920
  5573  003C32                     u5921:
  5574  003C32  EF3E  F01E         	goto	l1388
  5575  003C36                     u5920:
  5576  003C36                     l5119:
  5577  003C36  EE20 F002          	lfsr	2,2
  5578  003C3A  500A               	movf	fputc@fp^0,w,c
  5579  003C3C  26D9               	addwf	fsr2l,f,c
  5580  003C3E  500B               	movf	(fputc@fp+1)^0,w,c
  5581  003C40  22DA               	addwfc	fsr2h,f,c
  5582  003C42  CFDE F00C          	movff	postinc2,??_fputc
  5583  003C46  CFDD F00D          	movff	postdec2,??_fputc+1
  5584  003C4A  C00A  FFD9         	movff	fputc@fp,fsr2l
  5585  003C4E  C00B  FFDA         	movff	fputc@fp+1,fsr2h
  5586  003C52  CFDE F00E          	movff	postinc2,??_fputc+2
  5587  003C56  CFDD F00F          	movff	postdec2,??_fputc+3
  5588  003C5A  500C               	movf	??_fputc^0,w,c
  5589  003C5C  240E               	addwf	(??_fputc+2)^0,w,c
  5590  003C5E  6ED9               	movwf	fsr2l,c
  5591  003C60  500D               	movf	(??_fputc+1)^0,w,c
  5592  003C62  200F               	addwfc	(??_fputc+3)^0,w,c
  5593  003C64  6EDA               	movwf	fsr2h,c
  5594  003C66  C008  FFDF         	movff	fputc@c,indf2
  5595  003C6A  EE20 F002          	lfsr	2,2
  5596  003C6E  500A               	movf	fputc@fp^0,w,c
  5597  003C70  26D9               	addwf	fsr2l,f,c
  5598  003C72  500B               	movf	(fputc@fp+1)^0,w,c
  5599  003C74  22DA               	addwfc	fsr2h,f,c
  5600  003C76  2ADE               	incf	postinc2,f,c
  5601  003C78  0E00               	movlw	0
  5602  003C7A  22DD               	addwfc	postdec2,f,c
  5603  003C7C                     l1388:
  5604  003C7C  0012               	return		;funcret
  5605  003C7E                     __end_of_fputc:
  5606                           	callstack 0
  5607                           
  5608 ;; *************** function _putch *****************
  5609 ;; Defined at:
  5610 ;;		line 7 in file "C:\Program Files\Microchip\xc8\v2.32\pic\sources\c99\common\putch.c"
  5611 ;; Parameters:    Size  Location     Type
  5612 ;;  c               1    wreg     unsigned char 
  5613 ;; Auto vars:     Size  Location     Type
  5614 ;;  c               1    0[COMRAM] unsigned char 
  5615 ;; Return value:  Size  Location     Type
  5616 ;;                  1    wreg      void 
  5617 ;; Registers used:
  5618 ;;		wreg
  5619 ;; Tracked objects:
  5620 ;;		On entry : 0/0
  5621 ;;		On exit  : 0/0
  5622 ;;		Unchanged: 0/0
  5623 ;; Data sizes:     COMRAM   BANK0   BANK1   BANK2   BANK3   BANK4   BANK5   BANK6   BANK7   BANK8   BANK9  BANK10  BANK1
      +1  BANK12  BANK13  BANK14  BANK15
  5624 ;;      Params:         0       0       0       0       0       0       0       0       0       0       0       0       
      +0       0       0       0       0
  5625 ;;      Locals:         0       0       0       0       0       0       0       0       0       0       0       0       
      +0       0       0       0       0
  5626 ;;      Temps:          0       0       0       0       0       0       0       0       0       0       0       0       
      +0       0       0       0       0
  5627 ;;      Totals:         0       0       0       0       0       0       0       0       0       0       0       0       
      +0       0       0       0       0
  5628 ;;Total ram usage:        0 bytes
  5629 ;; Hardware stack levels used: 1
  5630 ;; Hardware stack levels required when called: 5
  5631 ;; This function calls:
  5632 ;;		Nothing
  5633 ;; This function is called by:
  5634 ;;		_fputc
  5635 ;; This function uses a non-reentrant model
  5636 ;;
  5637                           
  5638                           	psect	text18
  5639  004A1A                     __ptext18:
  5640                           	callstack 0
  5641  004A1A                     _putch:
  5642                           	callstack 20
  5643  004A1A  0012               	return		;funcret
  5644  004A1C                     __end_of_putch:
  5645                           	callstack 0
  5646                           
  5647 ;; *************** function _floorf *****************
  5648 ;; Defined at:
  5649 ;;		line 3 in file "C:\Program Files\Microchip\xc8\v2.32\pic\sources\c99\common\floorf.c"
  5650 ;; Parameters:    Size  Location     Type
  5651 ;;  x               4   32[COMRAM] float 
  5652 ;; Auto vars:     Size  Location     Type
  5653 ;;  u               4   48[COMRAM] struct .
  5654 ;;  m               4   42[COMRAM] unsigned long 
  5655 ;;  e               2   46[COMRAM] int 
  5656 ;; Return value:  Size  Location     Type
  5657 ;;                  4   32[COMRAM] float 
  5658 ;; Registers used:
  5659 ;;		wreg, status,2, status,0
  5660 ;; Tracked objects:
  5661 ;;		On entry : 0/0
  5662 ;;		On exit  : 0/0
  5663 ;;		Unchanged: 0/0
  5664 ;; Data sizes:     COMRAM   BANK0   BANK1   BANK2   BANK3   BANK4   BANK5   BANK6   BANK7   BANK8   BANK9  BANK10  BANK1
      +1  BANK12  BANK13  BANK14  BANK15
  5665 ;;      Params:         4       0       0       0       0       0       0       0       0       0       0       0       
      +0       0       0       0       0
  5666 ;;      Locals:        10       0       0       0       0       0       0       0       0       0       0       0       
      +0       0       0       0       0
  5667 ;;      Temps:          6       0       0       0       0       0       0       0       0       0       0       0       
      +0       0       0       0       0
  5668 ;;      Totals:        20       0       0       0       0       0       0       0       0       0       0       0       
      +0       0       0       0       0
  5669 ;;Total ram usage:       20 bytes
  5670 ;; Hardware stack levels used: 1
  5671 ;; Hardware stack levels required when called: 5
  5672 ;; This function calls:
  5673 ;;		Nothing
  5674 ;; This function is called by:
  5675 ;;		_efgtoa
  5676 ;; This function uses a non-reentrant model
  5677 ;;
  5678                           
  5679                           	psect	text19
  5680  002EA8                     __ptext19:
  5681                           	callstack 0
  5682  002EA8                     _floorf:
  5683                           	callstack 20
  5684  002EA8  C100  F031         	movff	floorf@F527,floorf@u
  5685  002EAC  C101  F032         	movff	floorf@F527+1,floorf@u+1
  5686  002EB0  C102  F033         	movff	floorf@F527+2,floorf@u+2
  5687  002EB4  C103  F034         	movff	floorf@F527+3,floorf@u+3
  5688  002EB8  C021  F031         	movff	floorf@x,floorf@u
  5689  002EBC  C022  F032         	movff	floorf@x+1,floorf@u+1
  5690  002EC0  C023  F033         	movff	floorf@x+2,floorf@u+2
  5691  002EC4  C024  F034         	movff	floorf@x+3,floorf@u+3
  5692  002EC8  0E81               	movlw	129
  5693  002ECA  6E25               	movwf	??_floorf^0,c
  5694  002ECC  0EFF               	movlw	255
  5695  002ECE  6E26               	movwf	(??_floorf+1)^0,c
  5696  002ED0  C031  F027         	movff	floorf@u,??_floorf+2
  5697  002ED4  C032  F028         	movff	floorf@u+1,??_floorf+3
  5698  002ED8  C033  F029         	movff	floorf@u+2,??_floorf+4
  5699  002EDC  C034  F02A         	movff	floorf@u+3,??_floorf+5
  5700  002EE0  0E18               	movlw	24
  5701  002EE2  EF78  F017         	goto	u7220
  5702  002EE6                     u7225:
  5703  002EE6  90D8               	bcf	status,0,c
  5704  002EE8  322A               	rrcf	(??_floorf+5)^0,f,c
  5705  002EEA  3229               	rrcf	(??_floorf+4)^0,f,c
  5706  002EEC  3228               	rrcf	(??_floorf+3)^0,f,c
  5707  002EEE  3227               	rrcf	(??_floorf+2)^0,f,c
  5708  002EF0                     u7220:
  5709  002EF0  2EE8               	decfsz	wreg,f,c
  5710  002EF2  EF73  F017         	goto	u7225
  5711  002EF6  5027               	movf	(??_floorf+2)^0,w,c
  5712  002EF8  2425               	addwf	??_floorf^0,w,c
  5713  002EFA  6E2F               	movwf	floorf@e^0,c
  5714  002EFC  0E00               	movlw	0
  5715  002EFE  2026               	addwfc	(??_floorf+1)^0,w,c
  5716  002F00  6E30               	movwf	(floorf@e+1)^0,c
  5717  002F02  BE30               	btfsc	(floorf@e+1)^0,7,c
  5718  002F04  EF8D  F017         	goto	u7231
  5719  002F08  5030               	movf	(floorf@e+1)^0,w,c
  5720  002F0A  E109               	bnz	u7230
  5721  002F0C  0E17               	movlw	23
  5722  002F0E  5C2F               	subwf	floorf@e^0,w,c
  5723  002F10  A0D8               	btfss	status,0,c
  5724  002F12  EF8D  F017         	goto	u7231
  5725  002F16  EF8F  F017         	goto	u7230
  5726  002F1A                     u7231:
  5727  002F1A  EF99  F017         	goto	l5861
  5728  002F1E                     u7230:
  5729  002F1E                     l5859:
  5730  002F1E  C021  F021         	movff	floorf@x,?_floorf
  5731  002F22  C022  F022         	movff	floorf@x+1,?_floorf+1
  5732  002F26  C023  F023         	movff	floorf@x+2,?_floorf+2
  5733  002F2A  C024  F024         	movff	floorf@x+3,?_floorf+3
  5734  002F2E  EF5C  F018         	goto	l1349
  5735  002F32                     l5861:
  5736  002F32  BE30               	btfsc	(floorf@e+1)^0,7,c
  5737  002F34  EF9E  F017         	goto	u7241
  5738  002F38  EFA0  F017         	goto	u7240
  5739  002F3C                     u7241:
  5740  002F3C  EF10  F018         	goto	l5871
  5741  002F40                     u7240:
  5742  002F40  C02F  F025         	movff	floorf@e,??_floorf
  5743  002F44  0EFF               	movlw	255
  5744  002F46  6E26               	movwf	(??_floorf+1)^0,c
  5745  002F48  0EFF               	movlw	255
  5746  002F4A  6E27               	movwf	(??_floorf+2)^0,c
  5747  002F4C  0E7F               	movlw	127
  5748  002F4E  6E28               	movwf	(??_floorf+3)^0,c
  5749  002F50  0E00               	movlw	0
  5750  002F52  6E29               	movwf	(??_floorf+4)^0,c
  5751  002F54                     u7255:
  5752  002F54  6625               	tstfsz	??_floorf^0,c
  5753  002F56  EFAF  F017         	goto	u7256
  5754  002F5A  EFB7  F017         	goto	u7257
  5755  002F5E                     u7256:
  5756  002F5E  3429               	rlcf	(??_floorf+4)^0,w,c
  5757  002F60  3229               	rrcf	(??_floorf+4)^0,f,c
  5758  002F62  3228               	rrcf	(??_floorf+3)^0,f,c
  5759  002F64  3227               	rrcf	(??_floorf+2)^0,f,c
  5760  002F66  3226               	rrcf	(??_floorf+1)^0,f,c
  5761  002F68  2E25               	decfsz	??_floorf^0,f,c
  5762  002F6A  EFAA  F017         	goto	u7255
  5763  002F6E                     u7257:
  5764  002F6E  C026  F02B         	movff	??_floorf+1,floorf@m
  5765  002F72  C027  F02C         	movff	??_floorf+2,floorf@m+1
  5766  002F76  C028  F02D         	movff	??_floorf+3,floorf@m+2
  5767  002F7A  C029  F02E         	movff	??_floorf+4,floorf@m+3
  5768  002F7E  502B               	movf	floorf@m^0,w,c
  5769  002F80  1431               	andwf	floorf@u^0,w,c
  5770  002F82  6E25               	movwf	??_floorf^0,c
  5771  002F84  502C               	movf	(floorf@m+1)^0,w,c
  5772  002F86  1432               	andwf	(floorf@u+1)^0,w,c
  5773  002F88  6E26               	movwf	(??_floorf+1)^0,c
  5774  002F8A  502D               	movf	(floorf@m+2)^0,w,c
  5775  002F8C  1433               	andwf	(floorf@u+2)^0,w,c
  5776  002F8E  6E27               	movwf	(??_floorf+2)^0,c
  5777  002F90  502E               	movf	(floorf@m+3)^0,w,c
  5778  002F92  1434               	andwf	(floorf@u+3)^0,w,c
  5779  002F94  6E28               	movwf	(??_floorf+3)^0,c
  5780  002F96  5025               	movf	??_floorf^0,w,c
  5781  002F98  1026               	iorwf	(??_floorf+1)^0,w,c
  5782  002F9A  1027               	iorwf	(??_floorf+2)^0,w,c
  5783  002F9C  1028               	iorwf	(??_floorf+3)^0,w,c
  5784  002F9E  A4D8               	btfss	status,2,c
  5785  002FA0  EFD4  F017         	goto	u7261
  5786  002FA4  EFD6  F017         	goto	u7260
  5787  002FA8                     u7261:
  5788  002FA8  EFD8  F017         	goto	l5867
  5789  002FAC                     u7260:
  5790  002FAC  EF8F  F017         	goto	l5859
  5791  002FB0                     l5867:
  5792  002FB0  C031  F025         	movff	floorf@u,??_floorf
  5793  002FB4  C032  F026         	movff	floorf@u+1,??_floorf+1
  5794  002FB8  C033  F027         	movff	floorf@u+2,??_floorf+2
  5795  002FBC  C034  F028         	movff	floorf@u+3,??_floorf+3
  5796  002FC0  0E20               	movlw	32
  5797  002FC2  EFE8  F017         	goto	u7270
  5798  002FC6                     u7275:
  5799  002FC6  90D8               	bcf	status,0,c
  5800  002FC8  3228               	rrcf	(??_floorf+3)^0,f,c
  5801  002FCA  3227               	rrcf	(??_floorf+2)^0,f,c
  5802  002FCC  3226               	rrcf	(??_floorf+1)^0,f,c
  5803  002FCE  3225               	rrcf	??_floorf^0,f,c
  5804  002FD0                     u7270:
  5805  002FD0  2EE8               	decfsz	wreg,f,c
  5806  002FD2  EFE3  F017         	goto	u7275
  5807  002FD6  5025               	movf	??_floorf^0,w,c
  5808  002FD8  1026               	iorwf	(??_floorf+1)^0,w,c
  5809  002FDA  1027               	iorwf	(??_floorf+2)^0,w,c
  5810  002FDC  1028               	iorwf	(??_floorf+3)^0,w,c
  5811  002FDE  B4D8               	btfsc	status,2,c
  5812  002FE0  EFF4  F017         	goto	u7281
  5813  002FE4  EFF6  F017         	goto	u7280
  5814  002FE8                     u7281:
  5815  002FE8  EFFE  F017         	goto	l1352
  5816  002FEC                     u7280:
  5817  002FEC  502B               	movf	floorf@m^0,w,c
  5818  002FEE  2631               	addwf	floorf@u^0,f,c
  5819  002FF0  502C               	movf	(floorf@m+1)^0,w,c
  5820  002FF2  2232               	addwfc	(floorf@u+1)^0,f,c
  5821  002FF4  502D               	movf	(floorf@m+2)^0,w,c
  5822  002FF6  2233               	addwfc	(floorf@u+2)^0,f,c
  5823  002FF8  502E               	movf	(floorf@m+3)^0,w,c
  5824  002FFA  2234               	addwfc	(floorf@u+3)^0,f,c
  5825  002FFC                     l1352:
  5826  002FFC  1C2B               	comf	floorf@m^0,w,c
  5827  002FFE  6E25               	movwf	??_floorf^0,c
  5828  003000  1C2C               	comf	(floorf@m+1)^0,w,c
  5829  003002  6E26               	movwf	(??_floorf+1)^0,c
  5830  003004  1C2D               	comf	(floorf@m+2)^0,w,c
  5831  003006  6E27               	movwf	(??_floorf+2)^0,c
  5832  003008  1C2E               	comf	(floorf@m+3)^0,w,c
  5833  00300A  6E28               	movwf	(??_floorf+3)^0,c
  5834  00300C  5025               	movf	??_floorf^0,w,c
  5835  00300E  1631               	andwf	floorf@u^0,f,c
  5836  003010  5026               	movf	(??_floorf+1)^0,w,c
  5837  003012  1632               	andwf	(floorf@u+1)^0,f,c
  5838  003014  5027               	movf	(??_floorf+2)^0,w,c
  5839  003016  1633               	andwf	(floorf@u+2)^0,f,c
  5840  003018  5028               	movf	(??_floorf+3)^0,w,c
  5841  00301A  1634               	andwf	(floorf@u+3)^0,f,c
  5842  00301C  EF54  F018         	goto	l5879
  5843  003020                     l5871:
  5844  003020  C031  F025         	movff	floorf@u,??_floorf
  5845  003024  C032  F026         	movff	floorf@u+1,??_floorf+1
  5846  003028  C033  F027         	movff	floorf@u+2,??_floorf+2
  5847  00302C  C034  F028         	movff	floorf@u+3,??_floorf+3
  5848  003030  0E20               	movlw	32
  5849  003032  EF20  F018         	goto	u7290
  5850  003036                     u7295:
  5851  003036  90D8               	bcf	status,0,c
  5852  003038  3228               	rrcf	(??_floorf+3)^0,f,c
  5853  00303A  3227               	rrcf	(??_floorf+2)^0,f,c
  5854  00303C  3226               	rrcf	(??_floorf+1)^0,f,c
  5855  00303E  3225               	rrcf	??_floorf^0,f,c
  5856  003040                     u7290:
  5857  003040  2EE8               	decfsz	wreg,f,c
  5858  003042  EF1B  F018         	goto	u7295
  5859  003046  5025               	movf	??_floorf^0,w,c
  5860  003048  1026               	iorwf	(??_floorf+1)^0,w,c
  5861  00304A  1027               	iorwf	(??_floorf+2)^0,w,c
  5862  00304C  1028               	iorwf	(??_floorf+3)^0,w,c
  5863  00304E  A4D8               	btfss	status,2,c
  5864  003050  EF2C  F018         	goto	u7301
  5865  003054  EF2E  F018         	goto	u7300
  5866  003058                     u7301:
  5867  003058  EF38  F018         	goto	l5875
  5868  00305C                     u7300:
  5869  00305C  0E00               	movlw	0
  5870  00305E  6E31               	movwf	floorf@u^0,c
  5871  003060  0E00               	movlw	0
  5872  003062  6E32               	movwf	(floorf@u+1)^0,c
  5873  003064  0E00               	movlw	0
  5874  003066  6E33               	movwf	(floorf@u+2)^0,c
  5875  003068  0E00               	movlw	0
  5876  00306A  6E34               	movwf	(floorf@u+3)^0,c
  5877  00306C  EF54  F018         	goto	l5879
  5878  003070                     l5875:
  5879  003070  90D8               	bcf	status,0,c
  5880  003072  3431               	rlcf	floorf@u^0,w,c
  5881  003074  6E25               	movwf	??_floorf^0,c
  5882  003076  3432               	rlcf	(floorf@u+1)^0,w,c
  5883  003078  6E26               	movwf	(??_floorf+1)^0,c
  5884  00307A  3433               	rlcf	(floorf@u+2)^0,w,c
  5885  00307C  6E27               	movwf	(??_floorf+2)^0,c
  5886  00307E  3434               	rlcf	(floorf@u+3)^0,w,c
  5887  003080  6E28               	movwf	(??_floorf+3)^0,c
  5888  003082  5025               	movf	??_floorf^0,w,c
  5889  003084  1026               	iorwf	(??_floorf+1)^0,w,c
  5890  003086  1027               	iorwf	(??_floorf+2)^0,w,c
  5891  003088  1028               	iorwf	(??_floorf+3)^0,w,c
  5892  00308A  B4D8               	btfsc	status,2,c
  5893  00308C  EF4A  F018         	goto	u7311
  5894  003090  EF4C  F018         	goto	u7310
  5895  003094                     u7311:
  5896  003094  EF54  F018         	goto	l5879
  5897  003098                     u7310:
  5898  003098  0E00               	movlw	0
  5899  00309A  6E31               	movwf	floorf@u^0,c
  5900  00309C  0E00               	movlw	0
  5901  00309E  6E32               	movwf	(floorf@u+1)^0,c
  5902  0030A0  0E80               	movlw	128
  5903  0030A2  6E33               	movwf	(floorf@u+2)^0,c
  5904  0030A4  0EBF               	movlw	191
  5905  0030A6  6E34               	movwf	(floorf@u+3)^0,c
  5906  0030A8                     l5879:
  5907  0030A8  C031  F021         	movff	floorf@u,?_floorf
  5908  0030AC  C032  F022         	movff	floorf@u+1,?_floorf+1
  5909  0030B0  C033  F023         	movff	floorf@u+2,?_floorf+2
  5910  0030B4  C034  F024         	movff	floorf@u+3,?_floorf+3
  5911  0030B8                     l1349:
  5912  0030B8  0012               	return		;funcret
  5913  0030BA                     __end_of_floorf:
  5914                           	callstack 0
  5915                           
  5916 ;; *************** function ___fpclassifyf *****************
  5917 ;; Defined at:
  5918 ;;		line 4 in file "C:\Program Files\Microchip\xc8\v2.32\pic\sources\c99\common\__fpclassifyf.c"
  5919 ;; Parameters:    Size  Location     Type
  5920 ;;  x               4    7[COMRAM] float 
  5921 ;; Auto vars:     Size  Location     Type
  5922 ;;  u               4   17[COMRAM] struct .
  5923 ;;  e               2   15[COMRAM] int 
  5924 ;; Return value:  Size  Location     Type
  5925 ;;                  2    7[COMRAM] int 
  5926 ;; Registers used:
  5927 ;;		wreg, status,2, status,0
  5928 ;; Tracked objects:
  5929 ;;		On entry : 0/0
  5930 ;;		On exit  : 0/0
  5931 ;;		Unchanged: 0/0
  5932 ;; Data sizes:     COMRAM   BANK0   BANK1   BANK2   BANK3   BANK4   BANK5   BANK6   BANK7   BANK8   BANK9  BANK10  BANK1
      +1  BANK12  BANK13  BANK14  BANK15
  5933 ;;      Params:         4       0       0       0       0       0       0       0       0       0       0       0       
      +0       0       0       0       0
  5934 ;;      Locals:         6       0       0       0       0       0       0       0       0       0       0       0       
      +0       0       0       0       0
  5935 ;;      Temps:          4       0       0       0       0       0       0       0       0       0       0       0       
      +0       0       0       0       0
  5936 ;;      Totals:        14       0       0       0       0       0       0       0       0       0       0       0       
      +0       0       0       0       0
  5937 ;;Total ram usage:       14 bytes
  5938 ;; Hardware stack levels used: 1
  5939 ;; Hardware stack levels required when called: 5
  5940 ;; This function calls:
  5941 ;;		Nothing
  5942 ;; This function is called by:
  5943 ;;		_efgtoa
  5944 ;; This function uses a non-reentrant model
  5945 ;;
  5946                           
  5947                           	psect	text20
  5948  0039D4                     __ptext20:
  5949                           	callstack 0
  5950  0039D4                     ___fpclassifyf:
  5951                           	callstack 20
  5952  0039D4  C104  F012         	movff	___fpclassifyf@F465,___fpclassifyf@u
  5953  0039D8  C105  F013         	movff	___fpclassifyf@F465+1,___fpclassifyf@u+1
  5954  0039DC  C106  F014         	movff	___fpclassifyf@F465+2,___fpclassifyf@u+2
  5955  0039E0  C107  F015         	movff	___fpclassifyf@F465+3,___fpclassifyf@u+3
  5956  0039E4  C008  F012         	movff	___fpclassifyf@x,___fpclassifyf@u
  5957  0039E8  C009  F013         	movff	___fpclassifyf@x+1,___fpclassifyf@u+1
  5958  0039EC  C00A  F014         	movff	___fpclassifyf@x+2,___fpclassifyf@u+2
  5959  0039F0  C00B  F015         	movff	___fpclassifyf@x+3,___fpclassifyf@u+3
  5960  0039F4  C012  F00C         	movff	___fpclassifyf@u,??___fpclassifyf
  5961  0039F8  C013  F00D         	movff	___fpclassifyf@u+1,??___fpclassifyf+1
  5962  0039FC  C014  F00E         	movff	___fpclassifyf@u+2,??___fpclassifyf+2
  5963  003A00  C015  F00F         	movff	___fpclassifyf@u+3,??___fpclassifyf+3
  5964  003A04  0E18               	movlw	24
  5965  003A06  EF0A  F01D         	goto	u7120
  5966  003A0A                     u7125:
  5967  003A0A  90D8               	bcf	status,0,c
  5968  003A0C  320F               	rrcf	(??___fpclassifyf+3)^0,f,c
  5969  003A0E  320E               	rrcf	(??___fpclassifyf+2)^0,f,c
  5970  003A10  320D               	rrcf	(??___fpclassifyf+1)^0,f,c
  5971  003A12  320C               	rrcf	??___fpclassifyf^0,f,c
  5972  003A14                     u7120:
  5973  003A14  2EE8               	decfsz	wreg,f,c
  5974  003A16  EF05  F01D         	goto	u7125
  5975  003A1A  500C               	movf	??___fpclassifyf^0,w,c
  5976  003A1C  6E10               	movwf	___fpclassifyf@e^0,c
  5977  003A1E  6A11               	clrf	(___fpclassifyf@e+1)^0,c
  5978  003A20  5010               	movf	___fpclassifyf@e^0,w,c
  5979  003A22  1011               	iorwf	(___fpclassifyf@e+1)^0,w,c
  5980  003A24  A4D8               	btfss	status,2,c
  5981  003A26  EF17  F01D         	goto	u7131
  5982  003A2A  EF19  F01D         	goto	u7130
  5983  003A2E                     u7131:
  5984  003A2E  EF39  F01D         	goto	l5835
  5985  003A32                     u7130:
  5986  003A32  90D8               	bcf	status,0,c
  5987  003A34  3412               	rlcf	___fpclassifyf@u^0,w,c
  5988  003A36  6E0C               	movwf	??___fpclassifyf^0,c
  5989  003A38  3413               	rlcf	(___fpclassifyf@u+1)^0,w,c
  5990  003A3A  6E0D               	movwf	(??___fpclassifyf+1)^0,c
  5991  003A3C  3414               	rlcf	(___fpclassifyf@u+2)^0,w,c
  5992  003A3E  6E0E               	movwf	(??___fpclassifyf+2)^0,c
  5993  003A40  3415               	rlcf	(___fpclassifyf@u+3)^0,w,c
  5994  003A42  6E0F               	movwf	(??___fpclassifyf+3)^0,c
  5995  003A44  500C               	movf	??___fpclassifyf^0,w,c
  5996  003A46  100D               	iorwf	(??___fpclassifyf+1)^0,w,c
  5997  003A48  100E               	iorwf	(??___fpclassifyf+2)^0,w,c
  5998  003A4A  100F               	iorwf	(??___fpclassifyf+3)^0,w,c
  5999  003A4C  A4D8               	btfss	status,2,c
  6000  003A4E  EF2B  F01D         	goto	u7141
  6001  003A52  EF2D  F01D         	goto	u7140
  6002  003A56                     u7141:
  6003  003A56  EF33  F01D         	goto	l5831
  6004  003A5A                     u7140:
  6005  003A5A  0E00               	movlw	0
  6006  003A5C  6E09               	movwf	(?___fpclassifyf+1)^0,c
  6007  003A5E  0E02               	movlw	2
  6008  003A60  6E08               	movwf	?___fpclassifyf^0,c
  6009  003A62  EF68  F01D         	goto	l1311
  6010  003A66                     l5831:
  6011  003A66  0E00               	movlw	0
  6012  003A68  6E09               	movwf	(?___fpclassifyf+1)^0,c
  6013  003A6A  0E03               	movlw	3
  6014  003A6C  6E08               	movwf	?___fpclassifyf^0,c
  6015  003A6E  EF68  F01D         	goto	l1311
  6016  003A72                     l5835:
  6017  003A72  2810               	incf	___fpclassifyf@e^0,w,c
  6018  003A74  1011               	iorwf	(___fpclassifyf@e+1)^0,w,c
  6019  003A76  A4D8               	btfss	status,2,c
  6020  003A78  EF40  F01D         	goto	u7151
  6021  003A7C  EF42  F01D         	goto	u7150
  6022  003A80                     u7151:
  6023  003A80  EF64  F01D         	goto	l5841
  6024  003A84                     u7150:
  6025  003A84  C012  F00C         	movff	___fpclassifyf@u,??___fpclassifyf
  6026  003A88  C013  F00D         	movff	___fpclassifyf@u+1,??___fpclassifyf+1
  6027  003A8C  C014  F00E         	movff	___fpclassifyf@u+2,??___fpclassifyf+2
  6028  003A90  C015  F00F         	movff	___fpclassifyf@u+3,??___fpclassifyf+3
  6029  003A94  0E09               	movlw	9
  6030  003A96                     u7165:
  6031  003A96  90D8               	bcf	status,0,c
  6032  003A98  360C               	rlcf	??___fpclassifyf^0,f,c
  6033  003A9A  360D               	rlcf	(??___fpclassifyf+1)^0,f,c
  6034  003A9C  360E               	rlcf	(??___fpclassifyf+2)^0,f,c
  6035  003A9E  360F               	rlcf	(??___fpclassifyf+3)^0,f,c
  6036  003AA0  2EE8               	decfsz	wreg,f,c
  6037  003AA2  EF4B  F01D         	goto	u7165
  6038  003AA6  500C               	movf	??___fpclassifyf^0,w,c
  6039  003AA8  100D               	iorwf	(??___fpclassifyf+1)^0,w,c
  6040  003AAA  100E               	iorwf	(??___fpclassifyf+2)^0,w,c
  6041  003AAC  100F               	iorwf	(??___fpclassifyf+3)^0,w,c
  6042  003AAE  B4D8               	btfsc	status,2,c
  6043  003AB0  EF5C  F01D         	goto	u7171
  6044  003AB4  EF5F  F01D         	goto	u7170
  6045  003AB8                     u7171:
  6046  003AB8  0E01               	movlw	1
  6047  003ABA  EF60  F01D         	goto	u7180
  6048  003ABE                     u7170:
  6049  003ABE  0E00               	movlw	0
  6050  003AC0                     u7180:
  6051  003AC0  6E08               	movwf	?___fpclassifyf^0,c
  6052  003AC2  6A09               	clrf	(?___fpclassifyf+1)^0,c
  6053  003AC4  EF68  F01D         	goto	l1311
  6054  003AC8                     l5841:
  6055  003AC8  0E00               	movlw	0
  6056  003ACA  6E09               	movwf	(?___fpclassifyf+1)^0,c
  6057  003ACC  0E04               	movlw	4
  6058  003ACE  6E08               	movwf	?___fpclassifyf^0,c
  6059  003AD0                     l1311:
  6060  003AD0  0012               	return		;funcret
  6061  003AD2                     __end_of___fpclassifyf:
  6062                           	callstack 0
  6063                           
  6064 ;; *************** function ___fltol *****************
  6065 ;; Defined at:
  6066 ;;		line 43 in file "C:\Program Files\Microchip\xc8\v2.32\pic\sources\c99\common\fltol.c"
  6067 ;; Parameters:    Size  Location     Type
  6068 ;;  f1              4    7[COMRAM] int 
  6069 ;; Auto vars:     Size  Location     Type
  6070 ;;  exp1            1   16[COMRAM] unsigned char 
  6071 ;;  sign1           1   15[COMRAM] unsigned char 
  6072 ;; Return value:  Size  Location     Type
  6073 ;;                  4    7[COMRAM] long 
  6074 ;; Registers used:
  6075 ;;		wreg, status,2, status,0
  6076 ;; Tracked objects:
  6077 ;;		On entry : 0/0
  6078 ;;		On exit  : 0/0
  6079 ;;		Unchanged: 0/0
  6080 ;; Data sizes:     COMRAM   BANK0   BANK1   BANK2   BANK3   BANK4   BANK5   BANK6   BANK7   BANK8   BANK9  BANK10  BANK1
      +1  BANK12  BANK13  BANK14  BANK15
  6081 ;;      Params:         4       0       0       0       0       0       0       0       0       0       0       0       
      +0       0       0       0       0
  6082 ;;      Locals:         2       0       0       0       0       0       0       0       0       0       0       0       
      +0       0       0       0       0
  6083 ;;      Temps:          4       0       0       0       0       0       0       0       0       0       0       0       
      +0       0       0       0       0
  6084 ;;      Totals:        10       0       0       0       0       0       0       0       0       0       0       0       
      +0       0       0       0       0
  6085 ;;Total ram usage:       10 bytes
  6086 ;; Hardware stack levels used: 1
  6087 ;; Hardware stack levels required when called: 5
  6088 ;; This function calls:
  6089 ;;		Nothing
  6090 ;; This function is called by:
  6091 ;;		_efgtoa
  6092 ;; This function uses a non-reentrant model
  6093 ;;
  6094                           
  6095                           	psect	text21
  6096  0036CA                     __ptext21:
  6097                           	callstack 0
  6098  0036CA                     ___fltol:
  6099                           	callstack 20
  6100  0036CA  340A               	rlcf	(___fltol@f1+2)^0,w,c
  6101  0036CC  340B               	rlcf	(___fltol@f1+3)^0,w,c
  6102  0036CE  6E11               	movwf	___fltol@exp1^0,c
  6103  0036D0  5011               	movf	___fltol@exp1^0,w,c
  6104  0036D2  A4D8               	btfss	status,2,c
  6105  0036D4  EF6E  F01B         	goto	u7011
  6106  0036D8  EF70  F01B         	goto	u7010
  6107  0036DC                     u7011:
  6108  0036DC  EF7A  F01B         	goto	l5763
  6109  0036E0                     u7010:
  6110  0036E0                     l5759:
  6111  0036E0  0E00               	movlw	0
  6112  0036E2  6E08               	movwf	?___fltol^0,c
  6113  0036E4  0E00               	movlw	0
  6114  0036E6  6E09               	movwf	(?___fltol+1)^0,c
  6115  0036E8  0E00               	movlw	0
  6116  0036EA  6E0A               	movwf	(?___fltol+2)^0,c
  6117  0036EC  0E00               	movlw	0
  6118  0036EE  6E0B               	movwf	(?___fltol+3)^0,c
  6119  0036F0  EFE7  F01B         	goto	l740
  6120  0036F4                     l5763:
  6121  0036F4  C008  F00C         	movff	___fltol@f1,??___fltol
  6122  0036F8  C009  F00D         	movff	___fltol@f1+1,??___fltol+1
  6123  0036FC  C00A  F00E         	movff	___fltol@f1+2,??___fltol+2
  6124  003700  C00B  F00F         	movff	___fltol@f1+3,??___fltol+3
  6125  003704  0E20               	movlw	32
  6126  003706  EF8A  F01B         	goto	u7020
  6127  00370A                     u7025:
  6128  00370A  90D8               	bcf	status,0,c
  6129  00370C  320F               	rrcf	(??___fltol+3)^0,f,c
  6130  00370E  320E               	rrcf	(??___fltol+2)^0,f,c
  6131  003710  320D               	rrcf	(??___fltol+1)^0,f,c
  6132  003712  320C               	rrcf	??___fltol^0,f,c
  6133  003714                     u7020:
  6134  003714  2EE8               	decfsz	wreg,f,c
  6135  003716  EF85  F01B         	goto	u7025
  6136  00371A  500C               	movf	??___fltol^0,w,c
  6137  00371C  6E10               	movwf	___fltol@sign1^0,c
  6138  00371E  8E0A               	bsf	(___fltol@f1+2)^0,7,c
  6139  003720  0EFF               	movlw	255
  6140  003722  1608               	andwf	___fltol@f1^0,f,c
  6141  003724  0EFF               	movlw	255
  6142  003726  1609               	andwf	(___fltol@f1+1)^0,f,c
  6143  003728  0EFF               	movlw	255
  6144  00372A  160A               	andwf	(___fltol@f1+2)^0,f,c
  6145  00372C  0E00               	movlw	0
  6146  00372E  160B               	andwf	(___fltol@f1+3)^0,f,c
  6147  003730  0E96               	movlw	150
  6148  003732  5E11               	subwf	___fltol@exp1^0,f,c
  6149  003734  BE11               	btfsc	___fltol@exp1^0,7,c
  6150  003736  EFA1  F01B         	goto	u7030
  6151  00373A  EF9F  F01B         	goto	u7031
  6152  00373E                     u7031:
  6153  00373E  EFB7  F01B         	goto	l5783
  6154  003742                     u7030:
  6155  003742  5011               	movf	___fltol@exp1^0,w,c
  6156  003744  0A80               	xorlw	128
  6157  003746  0F97               	addlw	151
  6158  003748  B0D8               	btfsc	status,0,c
  6159  00374A  EFA9  F01B         	goto	u7041
  6160  00374E  EFAB  F01B         	goto	u7040
  6161  003752                     u7041:
  6162  003752  EFAD  F01B         	goto	l5779
  6163  003756                     u7040:
  6164  003756  EF70  F01B         	goto	l5759
  6165  00375A                     l5779:
  6166  00375A  90D8               	bcf	status,0,c
  6167  00375C  320B               	rrcf	(___fltol@f1+3)^0,f,c
  6168  00375E  320A               	rrcf	(___fltol@f1+2)^0,f,c
  6169  003760  3209               	rrcf	(___fltol@f1+1)^0,f,c
  6170  003762  3208               	rrcf	___fltol@f1^0,f,c
  6171  003764  3E11               	incfsz	___fltol@exp1^0,f,c
  6172  003766  EFAD  F01B         	goto	l5779
  6173  00376A  EFCF  F01B         	goto	l5793
  6174  00376E                     l5783:
  6175  00376E  0E1F               	movlw	31
  6176  003770  6411               	cpfsgt	___fltol@exp1^0,c
  6177  003772  EFBD  F01B         	goto	u7051
  6178  003776  EFBF  F01B         	goto	u7050
  6179  00377A                     u7051:
  6180  00377A  EFC7  F01B         	goto	l5791
  6181  00377E                     u7050:
  6182  00377E  EF70  F01B         	goto	l5759
  6183  003782                     l5789:
  6184  003782  90D8               	bcf	status,0,c
  6185  003784  3608               	rlcf	___fltol@f1^0,f,c
  6186  003786  3609               	rlcf	(___fltol@f1+1)^0,f,c
  6187  003788  360A               	rlcf	(___fltol@f1+2)^0,f,c
  6188  00378A  360B               	rlcf	(___fltol@f1+3)^0,f,c
  6189  00378C  0611               	decf	___fltol@exp1^0,f,c
  6190  00378E                     l5791:
  6191  00378E  5011               	movf	___fltol@exp1^0,w,c
  6192  003790  A4D8               	btfss	status,2,c
  6193  003792  EFCD  F01B         	goto	u7061
  6194  003796  EFCF  F01B         	goto	u7060
  6195  00379A                     u7061:
  6196  00379A  EFC1  F01B         	goto	l5789
  6197  00379E                     u7060:
  6198  00379E                     l5793:
  6199  00379E  5010               	movf	___fltol@sign1^0,w,c
  6200  0037A0  B4D8               	btfsc	status,2,c
  6201  0037A2  EFD5  F01B         	goto	u7071
  6202  0037A6  EFD7  F01B         	goto	u7070
  6203  0037AA                     u7071:
  6204  0037AA  EFDF  F01B         	goto	l5797
  6205  0037AE                     u7070:
  6206  0037AE  1E0B               	comf	(___fltol@f1+3)^0,f,c
  6207  0037B0  1E0A               	comf	(___fltol@f1+2)^0,f,c
  6208  0037B2  1E09               	comf	(___fltol@f1+1)^0,f,c
  6209  0037B4  6C08               	negf	___fltol@f1^0,c
  6210  0037B6  0E00               	movlw	0
  6211  0037B8  2209               	addwfc	(___fltol@f1+1)^0,f,c
  6212  0037BA  220A               	addwfc	(___fltol@f1+2)^0,f,c
  6213  0037BC  220B               	addwfc	(___fltol@f1+3)^0,f,c
  6214  0037BE                     l5797:
  6215  0037BE  C008  F008         	movff	___fltol@f1,?___fltol
  6216  0037C2  C009  F009         	movff	___fltol@f1+1,?___fltol+1
  6217  0037C6  C00A  F00A         	movff	___fltol@f1+2,?___fltol+2
  6218  0037CA  C00B  F00B         	movff	___fltol@f1+3,?___fltol+3
  6219  0037CE                     l740:
  6220  0037CE  0012               	return		;funcret
  6221  0037D0                     __end_of___fltol:
  6222                           	callstack 0
  6223                           
  6224 ;; *************** function ___flsub *****************
  6225 ;; Defined at:
  6226 ;;		line 245 in file "C:\Program Files\Microchip\xc8\v2.32\pic\sources\c99\common\sprcadd.c"
  6227 ;; Parameters:    Size  Location     Type
  6228 ;;  b               4   46[COMRAM] long 
  6229 ;;  a               4   50[COMRAM] long 
  6230 ;; Auto vars:     Size  Location     Type
  6231 ;;		None
  6232 ;; Return value:  Size  Location     Type
  6233 ;;                  4   46[COMRAM] long 
  6234 ;; Registers used:
  6235 ;;		wreg, status,2, status,0, cstack
  6236 ;; Tracked objects:
  6237 ;;		On entry : 0/0
  6238 ;;		On exit  : 0/0
  6239 ;;		Unchanged: 0/0
  6240 ;; Data sizes:     COMRAM   BANK0   BANK1   BANK2   BANK3   BANK4   BANK5   BANK6   BANK7   BANK8   BANK9  BANK10  BANK1
      +1  BANK12  BANK13  BANK14  BANK15
  6241 ;;      Params:         8       0       0       0       0       0       0       0       0       0       0       0       
      +0       0       0       0       0
  6242 ;;      Locals:         0       0       0       0       0       0       0       0       0       0       0       0       
      +0       0       0       0       0
  6243 ;;      Temps:          0       0       0       0       0       0       0       0       0       0       0       0       
      +0       0       0       0       0
  6244 ;;      Totals:         8       0       0       0       0       0       0       0       0       0       0       0       
      +0       0       0       0       0
  6245 ;;Total ram usage:        8 bytes
  6246 ;; Hardware stack levels used: 1
  6247 ;; Hardware stack levels required when called: 6
  6248 ;; This function calls:
  6249 ;;		___fladd
  6250 ;; This function is called by:
  6251 ;;		_efgtoa
  6252 ;; This function uses a non-reentrant model
  6253 ;;
  6254                           
  6255                           	psect	text22
  6256  004794                     __ptext22:
  6257                           	callstack 0
  6258  004794                     ___flsub:
  6259                           	callstack 19
  6260  004794  0E00               	movlw	0
  6261  004796  1A33               	xorwf	___flsub@a^0,f,c
  6262  004798  0E00               	movlw	0
  6263  00479A  1A34               	xorwf	(___flsub@a+1)^0,f,c
  6264  00479C  0E00               	movlw	0
  6265  00479E  1A35               	xorwf	(___flsub@a+2)^0,f,c
  6266  0047A0  0E80               	movlw	128
  6267  0047A2  1A36               	xorwf	(___flsub@a+3)^0,f,c
  6268  0047A4  C02F  F008         	movff	___flsub@b,___fladd@b
  6269  0047A8  C030  F009         	movff	___flsub@b+1,___fladd@b+1
  6270  0047AC  C031  F00A         	movff	___flsub@b+2,___fladd@b+2
  6271  0047B0  C032  F00B         	movff	___flsub@b+3,___fladd@b+3
  6272  0047B4  C033  F00C         	movff	___flsub@a,___fladd@a
  6273  0047B8  C034  F00D         	movff	___flsub@a+1,___fladd@a+1
  6274  0047BC  C035  F00E         	movff	___flsub@a+2,___fladd@a+2
  6275  0047C0  C036  F00F         	movff	___flsub@a+3,___fladd@a+3
  6276  0047C4  EC12  F011         	call	___fladd	;wreg free
  6277  0047C8  C008  F02F         	movff	?___fladd,?___flsub
  6278  0047CC  C009  F030         	movff	?___fladd+1,?___flsub+1
  6279  0047D0  C00A  F031         	movff	?___fladd+2,?___flsub+2
  6280  0047D4  C00B  F032         	movff	?___fladd+3,?___flsub+3
  6281  0047D8  0012               	return		;funcret
  6282  0047DA                     __end_of___flsub:
  6283                           	callstack 0
  6284                           
  6285 ;; *************** function ___fladd *****************
  6286 ;; Defined at:
  6287 ;;		line 10 in file "C:\Program Files\Microchip\xc8\v2.32\pic\sources\c99\common\sprcadd.c"
  6288 ;; Parameters:    Size  Location     Type
  6289 ;;  b               4    7[COMRAM] long 
  6290 ;;  a               4   11[COMRAM] long 
  6291 ;; Auto vars:     Size  Location     Type
  6292 ;;  grs             1   22[COMRAM] unsigned char 
  6293 ;;  bexp            1   21[COMRAM] unsigned char 
  6294 ;;  aexp            1   20[COMRAM] unsigned char 
  6295 ;;  signs           1   19[COMRAM] unsigned char 
  6296 ;; Return value:  Size  Location     Type
  6297 ;;                  4    7[COMRAM] unsigned char 
  6298 ;; Registers used:
  6299 ;;		wreg, status,2, status,0
  6300 ;; Tracked objects:
  6301 ;;		On entry : 0/0
  6302 ;;		On exit  : 0/0
  6303 ;;		Unchanged: 0/0
  6304 ;; Data sizes:     COMRAM   BANK0   BANK1   BANK2   BANK3   BANK4   BANK5   BANK6   BANK7   BANK8   BANK9  BANK10  BANK1
      +1  BANK12  BANK13  BANK14  BANK15
  6305 ;;      Params:         8       0       0       0       0       0       0       0       0       0       0       0       
      +0       0       0       0       0
  6306 ;;      Locals:         4       0       0       0       0       0       0       0       0       0       0       0       
      +0       0       0       0       0
  6307 ;;      Temps:          4       0       0       0       0       0       0       0       0       0       0       0       
      +0       0       0       0       0
  6308 ;;      Totals:        16       0       0       0       0       0       0       0       0       0       0       0       
      +0       0       0       0       0
  6309 ;;Total ram usage:       16 bytes
  6310 ;; Hardware stack levels used: 1
  6311 ;; Hardware stack levels required when called: 5
  6312 ;; This function calls:
  6313 ;;		Nothing
  6314 ;; This function is called by:
  6315 ;;		___flsub
  6316 ;;		_efgtoa
  6317 ;; This function uses a non-reentrant model
  6318 ;;
  6319                           
  6320                           	psect	text23
  6321  002224                     __ptext23:
  6322                           	callstack 0
  6323  002224                     ___fladd:
  6324                           	callstack 19
  6325  002224  500B               	movf	(___fladd@b+3)^0,w,c
  6326  002226  0B80               	andlw	128
  6327  002228  6E14               	movwf	___fladd@signs^0,c
  6328  00222A  500B               	movf	(___fladd@b+3)^0,w,c
  6329  00222C  240B               	addwf	(___fladd@b+3)^0,w,c
  6330  00222E  6E16               	movwf	___fladd@bexp^0,c
  6331  002230  AE0A               	btfss	(___fladd@b+2)^0,7,c
  6332  002232  EF1D  F011         	goto	u5931
  6333  002236  EF1F  F011         	goto	u5930
  6334  00223A                     u5931:
  6335  00223A  EF20  F011         	goto	l5129
  6336  00223E                     u5930:
  6337  00223E  8016               	bsf	___fladd@bexp^0,0,c
  6338  002240                     l5129:
  6339  002240  5016               	movf	___fladd@bexp^0,w,c
  6340  002242  B4D8               	btfsc	status,2,c
  6341  002244  EF26  F011         	goto	u5941
  6342  002248  EF28  F011         	goto	u5940
  6343  00224C                     u5941:
  6344  00224C  EF3D  F011         	goto	l5139
  6345  002250                     u5940:
  6346  002250  2816               	incf	___fladd@bexp^0,w,c
  6347  002252  A4D8               	btfss	status,2,c
  6348  002254  EF2E  F011         	goto	u5951
  6349  002258  EF30  F011         	goto	u5950
  6350  00225C                     u5951:
  6351  00225C  EF38  F011         	goto	l5135
  6352  002260                     u5950:
  6353  002260  0E00               	movlw	0
  6354  002262  6E08               	movwf	___fladd@b^0,c
  6355  002264  0E00               	movlw	0
  6356  002266  6E09               	movwf	(___fladd@b+1)^0,c
  6357  002268  0E00               	movlw	0
  6358  00226A  6E0A               	movwf	(___fladd@b+2)^0,c
  6359  00226C  0E00               	movlw	0
  6360  00226E  6E0B               	movwf	(___fladd@b+3)^0,c
  6361  002270                     l5135:
  6362  002270  8E0A               	bsf	(___fladd@b+2)^0,7,c
  6363  002272  0E00               	movlw	0
  6364  002274  6E0B               	movwf	(___fladd@b+3)^0,c
  6365  002276  EF45  F011         	goto	l5141
  6366  00227A                     l5139:
  6367  00227A  0E00               	movlw	0
  6368  00227C  6E08               	movwf	___fladd@b^0,c
  6369  00227E  0E00               	movlw	0
  6370  002280  6E09               	movwf	(___fladd@b+1)^0,c
  6371  002282  0E00               	movlw	0
  6372  002284  6E0A               	movwf	(___fladd@b+2)^0,c
  6373  002286  0E00               	movlw	0
  6374  002288  6E0B               	movwf	(___fladd@b+3)^0,c
  6375  00228A                     l5141:
  6376  00228A  500F               	movf	(___fladd@a+3)^0,w,c
  6377  00228C  0B80               	andlw	128
  6378  00228E  6E15               	movwf	___fladd@aexp^0,c
  6379  002290  5014               	movf	___fladd@signs^0,w,c
  6380  002292  1815               	xorwf	___fladd@aexp^0,w,c
  6381  002294  B4D8               	btfsc	status,2,c
  6382  002296  EF4F  F011         	goto	u5961
  6383  00229A  EF51  F011         	goto	u5960
  6384  00229E                     u5961:
  6385  00229E  EF52  F011         	goto	l5147
  6386  0022A2                     u5960:
  6387  0022A2  8C14               	bsf	___fladd@signs^0,6,c
  6388  0022A4                     l5147:
  6389  0022A4  500F               	movf	(___fladd@a+3)^0,w,c
  6390  0022A6  240F               	addwf	(___fladd@a+3)^0,w,c
  6391  0022A8  6E15               	movwf	___fladd@aexp^0,c
  6392  0022AA  AE0E               	btfss	(___fladd@a+2)^0,7,c
  6393  0022AC  EF5A  F011         	goto	u5971
  6394  0022B0  EF5C  F011         	goto	u5970
  6395  0022B4                     u5971:
  6396  0022B4  EF5D  F011         	goto	l5153
  6397  0022B8                     u5970:
  6398  0022B8  8015               	bsf	___fladd@aexp^0,0,c
  6399  0022BA                     l5153:
  6400  0022BA  5015               	movf	___fladd@aexp^0,w,c
  6401  0022BC  B4D8               	btfsc	status,2,c
  6402  0022BE  EF63  F011         	goto	u5981
  6403  0022C2  EF65  F011         	goto	u5980
  6404  0022C6                     u5981:
  6405  0022C6  EF7A  F011         	goto	l5163
  6406  0022CA                     u5980:
  6407  0022CA  2815               	incf	___fladd@aexp^0,w,c
  6408  0022CC  A4D8               	btfss	status,2,c
  6409  0022CE  EF6B  F011         	goto	u5991
  6410  0022D2  EF6D  F011         	goto	u5990
  6411  0022D6                     u5991:
  6412  0022D6  EF75  F011         	goto	l5159
  6413  0022DA                     u5990:
  6414  0022DA  0E00               	movlw	0
  6415  0022DC  6E0C               	movwf	___fladd@a^0,c
  6416  0022DE  0E00               	movlw	0
  6417  0022E0  6E0D               	movwf	(___fladd@a+1)^0,c
  6418  0022E2  0E00               	movlw	0
  6419  0022E4  6E0E               	movwf	(___fladd@a+2)^0,c
  6420  0022E6  0E00               	movlw	0
  6421  0022E8  6E0F               	movwf	(___fladd@a+3)^0,c
  6422  0022EA                     l5159:
  6423  0022EA  8E0E               	bsf	(___fladd@a+2)^0,7,c
  6424  0022EC  0E00               	movlw	0
  6425  0022EE  6E0F               	movwf	(___fladd@a+3)^0,c
  6426  0022F0  EF82  F011         	goto	l5165
  6427  0022F4                     l5163:
  6428  0022F4  0E00               	movlw	0
  6429  0022F6  6E0C               	movwf	___fladd@a^0,c
  6430  0022F8  0E00               	movlw	0
  6431  0022FA  6E0D               	movwf	(___fladd@a+1)^0,c
  6432  0022FC  0E00               	movlw	0
  6433  0022FE  6E0E               	movwf	(___fladd@a+2)^0,c
  6434  002300  0E00               	movlw	0
  6435  002302  6E0F               	movwf	(___fladd@a+3)^0,c
  6436  002304                     l5165:
  6437  002304  5016               	movf	___fladd@bexp^0,w,c
  6438  002306  5C15               	subwf	___fladd@aexp^0,w,c
  6439  002308  B0D8               	btfsc	status,0,c
  6440  00230A  EF89  F011         	goto	u6001
  6441  00230E  EF8B  F011         	goto	u6000
  6442  002312                     u6001:
  6443  002312  EFB2  F011         	goto	l5201
  6444  002316                     u6000:
  6445  002316  AC14               	btfss	___fladd@signs^0,6,c
  6446  002318  EF90  F011         	goto	u6011
  6447  00231C  EF92  F011         	goto	u6010
  6448  002320                     u6011:
  6449  002320  EF94  F011         	goto	l5171
  6450  002324                     u6010:
  6451  002324  0E80               	movlw	128
  6452  002326  1A14               	xorwf	___fladd@signs^0,f,c
  6453  002328                     l5171:
  6454  002328  C016  F017         	movff	___fladd@bexp,___fladd@grs
  6455  00232C  C015  F016         	movff	___fladd@aexp,___fladd@bexp
  6456  002330  C017  F015         	movff	___fladd@grs,___fladd@aexp
  6457  002334  C008  F017         	movff	___fladd@b,___fladd@grs
  6458  002338  C00C  F008         	movff	___fladd@a,___fladd@b
  6459  00233C  C017  F00C         	movff	___fladd@grs,___fladd@a
  6460  002340  C009  F017         	movff	___fladd@b+1,___fladd@grs
  6461  002344  C00D  F009         	movff	___fladd@a+1,___fladd@b+1
  6462  002348  C017  F00D         	movff	___fladd@grs,___fladd@a+1
  6463  00234C  C00A  F017         	movff	___fladd@b+2,___fladd@grs
  6464  002350  C00E  F00A         	movff	___fladd@a+2,___fladd@b+2
  6465  002354  C017  F00E         	movff	___fladd@grs,___fladd@a+2
  6466  002358  C00B  F017         	movff	___fladd@b+3,___fladd@grs
  6467  00235C  C00F  F00B         	movff	___fladd@a+3,___fladd@b+3
  6468  002360  C017  F00F         	movff	___fladd@grs,___fladd@a+3
  6469  002364                     l5201:
  6470  002364  0E00               	movlw	0
  6471  002366  6E17               	movwf	___fladd@grs^0,c
  6472  002368  5016               	movf	___fladd@bexp^0,w,c
  6473  00236A  C015  F010         	movff	___fladd@aexp,??___fladd
  6474  00236E  6A11               	clrf	(??___fladd+1)^0,c
  6475  002370  5E10               	subwf	??___fladd^0,f,c
  6476  002372  0E00               	movlw	0
  6477  002374  5A11               	subwfb	(??___fladd+1)^0,f,c
  6478  002376  BE11               	btfsc	(??___fladd+1)^0,7,c
  6479  002378  EFC7  F011         	goto	u6021
  6480  00237C  5011               	movf	(??___fladd+1)^0,w,c
  6481  00237E  E109               	bnz	u6020
  6482  002380  0E1A               	movlw	26
  6483  002382  5C10               	subwf	??___fladd^0,w,c
  6484  002384  A0D8               	btfss	status,0,c
  6485  002386  EFC7  F011         	goto	u6021
  6486  00238A  EFC9  F011         	goto	u6020
  6487  00238E                     u6021:
  6488  00238E  EF00  F012         	goto	l972
  6489  002392                     u6020:
  6490  002392  5008               	movf	___fladd@b^0,w,c
  6491  002394  1009               	iorwf	(___fladd@b+1)^0,w,c
  6492  002396  100A               	iorwf	(___fladd@b+2)^0,w,c
  6493  002398  100B               	iorwf	(___fladd@b+3)^0,w,c
  6494  00239A  A4D8               	btfss	status,2,c
  6495  00239C  EFD2  F011         	goto	u6031
  6496  0023A0  EFD5  F011         	goto	u6030
  6497  0023A4                     u6031:
  6498  0023A4  0E01               	movlw	1
  6499  0023A6  EFD6  F011         	goto	u6040
  6500  0023AA                     u6030:
  6501  0023AA  0E00               	movlw	0
  6502  0023AC                     u6040:
  6503  0023AC  6E17               	movwf	___fladd@grs^0,c
  6504  0023AE  0E00               	movlw	0
  6505  0023B0  6E08               	movwf	___fladd@b^0,c
  6506  0023B2  0E00               	movlw	0
  6507  0023B4  6E09               	movwf	(___fladd@b+1)^0,c
  6508  0023B6  0E00               	movlw	0
  6509  0023B8  6E0A               	movwf	(___fladd@b+2)^0,c
  6510  0023BA  0E00               	movlw	0
  6511  0023BC  6E0B               	movwf	(___fladd@b+3)^0,c
  6512  0023BE  C015  F016         	movff	___fladd@aexp,___fladd@bexp
  6513  0023C2  EF09  F012         	goto	l971
  6514  0023C6                     l973:
  6515  0023C6  A017               	btfss	___fladd@grs^0,0,c
  6516  0023C8  EFE8  F011         	goto	u6051
  6517  0023CC  EFEA  F011         	goto	u6050
  6518  0023D0                     u6051:
  6519  0023D0  EFF0  F011         	goto	l5213
  6520  0023D4                     u6050:
  6521  0023D4  90D8               	bcf	status,0,c
  6522  0023D6  3017               	rrcf	___fladd@grs^0,w,c
  6523  0023D8  0901               	iorlw	1
  6524  0023DA  6E17               	movwf	___fladd@grs^0,c
  6525  0023DC  EFF2  F011         	goto	l5215
  6526  0023E0                     l5213:
  6527  0023E0  90D8               	bcf	status,0,c
  6528  0023E2  3217               	rrcf	___fladd@grs^0,f,c
  6529  0023E4                     l5215:
  6530  0023E4  A008               	btfss	___fladd@b^0,0,c
  6531  0023E6  EFF7  F011         	goto	u6061
  6532  0023EA  EFF9  F011         	goto	u6060
  6533  0023EE                     u6061:
  6534  0023EE  EFFA  F011         	goto	l5219
  6535  0023F2                     u6060:
  6536  0023F2  8E17               	bsf	___fladd@grs^0,7,c
  6537  0023F4                     l5219:
  6538  0023F4  340B               	rlcf	(___fladd@b+3)^0,w,c
  6539  0023F6  320B               	rrcf	(___fladd@b+3)^0,f,c
  6540  0023F8  320A               	rrcf	(___fladd@b+2)^0,f,c
  6541  0023FA  3209               	rrcf	(___fladd@b+1)^0,f,c
  6542  0023FC  3208               	rrcf	___fladd@b^0,f,c
  6543  0023FE  2A16               	incf	___fladd@bexp^0,f,c
  6544  002400                     l972:
  6545  002400  5015               	movf	___fladd@aexp^0,w,c
  6546  002402  5C16               	subwf	___fladd@bexp^0,w,c
  6547  002404  A0D8               	btfss	status,0,c
  6548  002406  EF07  F012         	goto	u6071
  6549  00240A  EF09  F012         	goto	u6070
  6550  00240E                     u6071:
  6551  00240E  EFE3  F011         	goto	l973
  6552  002412                     u6070:
  6553  002412                     l971:
  6554  002412  BC14               	btfsc	___fladd@signs^0,6,c
  6555  002414  EF0E  F012         	goto	u6081
  6556  002418  EF10  F012         	goto	u6080
  6557  00241C                     u6081:
  6558  00241C  EF50  F012         	goto	l5247
  6559  002420                     u6080:
  6560  002420  5016               	movf	___fladd@bexp^0,w,c
  6561  002422  A4D8               	btfss	status,2,c
  6562  002424  EF16  F012         	goto	u6091
  6563  002428  EF18  F012         	goto	u6090
  6564  00242C                     u6091:
  6565  00242C  EF22  F012         	goto	l5229
  6566  002430                     u6090:
  6567  002430  0E00               	movlw	0
  6568  002432  6E08               	movwf	?___fladd^0,c
  6569  002434  0E00               	movlw	0
  6570  002436  6E09               	movwf	(?___fladd+1)^0,c
  6571  002438  0E00               	movlw	0
  6572  00243A  6E0A               	movwf	(?___fladd+2)^0,c
  6573  00243C  0E00               	movlw	0
  6574  00243E  6E0B               	movwf	(?___fladd+3)^0,c
  6575  002440  EF71  F013         	goto	l980
  6576  002444                     l5229:
  6577  002444  500C               	movf	___fladd@a^0,w,c
  6578  002446  2608               	addwf	___fladd@b^0,f,c
  6579  002448  500D               	movf	(___fladd@a+1)^0,w,c
  6580  00244A  2209               	addwfc	(___fladd@b+1)^0,f,c
  6581  00244C  500E               	movf	(___fladd@a+2)^0,w,c
  6582  00244E  220A               	addwfc	(___fladd@b+2)^0,f,c
  6583  002450  500F               	movf	(___fladd@a+3)^0,w,c
  6584  002452  220B               	addwfc	(___fladd@b+3)^0,f,c
  6585  002454  A00B               	btfss	(___fladd@b+3)^0,0,c
  6586  002456  EF2F  F012         	goto	u6101
  6587  00245A  EF31  F012         	goto	u6100
  6588  00245E                     u6101:
  6589  00245E  EFDD  F012         	goto	l5283
  6590  002462                     u6100:
  6591  002462  A017               	btfss	___fladd@grs^0,0,c
  6592  002464  EF36  F012         	goto	u6111
  6593  002468  EF38  F012         	goto	u6110
  6594  00246C                     u6111:
  6595  00246C  EF3E  F012         	goto	l5237
  6596  002470                     u6110:
  6597  002470  90D8               	bcf	status,0,c
  6598  002472  3017               	rrcf	___fladd@grs^0,w,c
  6599  002474  0901               	iorlw	1
  6600  002476  6E17               	movwf	___fladd@grs^0,c
  6601  002478  EF40  F012         	goto	l5239
  6602  00247C                     l5237:
  6603  00247C  90D8               	bcf	status,0,c
  6604  00247E  3217               	rrcf	___fladd@grs^0,f,c
  6605  002480                     l5239:
  6606  002480  A008               	btfss	___fladd@b^0,0,c
  6607  002482  EF45  F012         	goto	u6121
  6608  002486  EF47  F012         	goto	u6120
  6609  00248A                     u6121:
  6610  00248A  EF48  F012         	goto	l5243
  6611  00248E                     u6120:
  6612  00248E  8E17               	bsf	___fladd@grs^0,7,c
  6613  002490                     l5243:
  6614  002490  340B               	rlcf	(___fladd@b+3)^0,w,c
  6615  002492  320B               	rrcf	(___fladd@b+3)^0,f,c
  6616  002494  320A               	rrcf	(___fladd@b+2)^0,f,c
  6617  002496  3209               	rrcf	(___fladd@b+1)^0,f,c
  6618  002498  3208               	rrcf	___fladd@b^0,f,c
  6619  00249A  2A16               	incf	___fladd@bexp^0,f,c
  6620  00249C  EFDD  F012         	goto	l5283
  6621  0024A0                     l5247:
  6622  0024A0  500C               	movf	___fladd@a^0,w,c
  6623  0024A2  5C08               	subwf	___fladd@b^0,w,c
  6624  0024A4  500D               	movf	(___fladd@a+1)^0,w,c
  6625  0024A6  5809               	subwfb	(___fladd@b+1)^0,w,c
  6626  0024A8  500E               	movf	(___fladd@a+2)^0,w,c
  6627  0024AA  580A               	subwfb	(___fladd@b+2)^0,w,c
  6628  0024AC  500B               	movf	(___fladd@b+3)^0,w,c
  6629  0024AE  0A80               	xorlw	128
  6630  0024B0  6E10               	movwf	??___fladd^0,c
  6631  0024B2  500F               	movf	(___fladd@a+3)^0,w,c
  6632  0024B4  0A80               	xorlw	128
  6633  0024B6  5810               	subwfb	??___fladd^0,w,c
  6634  0024B8  B0D8               	btfsc	status,0,c
  6635  0024BA  EF61  F012         	goto	u6131
  6636  0024BE  EF63  F012         	goto	u6130
  6637  0024C2                     u6131:
  6638  0024C2  EF8E  F012         	goto	l5257
  6639  0024C6                     u6130:
  6640  0024C6  5008               	movf	___fladd@b^0,w,c
  6641  0024C8  5C0C               	subwf	___fladd@a^0,w,c
  6642  0024CA  6E10               	movwf	??___fladd^0,c
  6643  0024CC  5009               	movf	(___fladd@b+1)^0,w,c
  6644  0024CE  580D               	subwfb	(___fladd@a+1)^0,w,c
  6645  0024D0  6E11               	movwf	(??___fladd+1)^0,c
  6646  0024D2  500A               	movf	(___fladd@b+2)^0,w,c
  6647  0024D4  580E               	subwfb	(___fladd@a+2)^0,w,c
  6648  0024D6  6E12               	movwf	(??___fladd+2)^0,c
  6649  0024D8  500B               	movf	(___fladd@b+3)^0,w,c
  6650  0024DA  580F               	subwfb	(___fladd@a+3)^0,w,c
  6651  0024DC  6E13               	movwf	(??___fladd+3)^0,c
  6652  0024DE  0EFF               	movlw	255
  6653  0024E0  2410               	addwf	??___fladd^0,w,c
  6654  0024E2  6E08               	movwf	___fladd@b^0,c
  6655  0024E4  0EFF               	movlw	255
  6656  0024E6  2011               	addwfc	(??___fladd+1)^0,w,c
  6657  0024E8  6E09               	movwf	(___fladd@b+1)^0,c
  6658  0024EA  0EFF               	movlw	255
  6659  0024EC  2012               	addwfc	(??___fladd+2)^0,w,c
  6660  0024EE  6E0A               	movwf	(___fladd@b+2)^0,c
  6661  0024F0  0EFF               	movlw	255
  6662  0024F2  2013               	addwfc	(??___fladd+3)^0,w,c
  6663  0024F4  6E0B               	movwf	(___fladd@b+3)^0,c
  6664  0024F6  0E80               	movlw	128
  6665  0024F8  1A14               	xorwf	___fladd@signs^0,f,c
  6666  0024FA  6C17               	negf	___fladd@grs^0,c
  6667  0024FC  5017               	movf	___fladd@grs^0,w,c
  6668  0024FE  A4D8               	btfss	status,2,c
  6669  002500  EF84  F012         	goto	u6141
  6670  002504  EF86  F012         	goto	u6140
  6671  002508                     u6141:
  6672  002508  EF96  F012         	goto	l988
  6673  00250C                     u6140:
  6674  00250C  0E01               	movlw	1
  6675  00250E  2608               	addwf	___fladd@b^0,f,c
  6676  002510  0E00               	movlw	0
  6677  002512  2209               	addwfc	(___fladd@b+1)^0,f,c
  6678  002514  220A               	addwfc	(___fladd@b+2)^0,f,c
  6679  002516  220B               	addwfc	(___fladd@b+3)^0,f,c
  6680  002518  EF96  F012         	goto	l988
  6681  00251C                     l5257:
  6682  00251C  500C               	movf	___fladd@a^0,w,c
  6683  00251E  5E08               	subwf	___fladd@b^0,f,c
  6684  002520  500D               	movf	(___fladd@a+1)^0,w,c
  6685  002522  5A09               	subwfb	(___fladd@b+1)^0,f,c
  6686  002524  500E               	movf	(___fladd@a+2)^0,w,c
  6687  002526  5A0A               	subwfb	(___fladd@b+2)^0,f,c
  6688  002528  500F               	movf	(___fladd@a+3)^0,w,c
  6689  00252A  5A0B               	subwfb	(___fladd@b+3)^0,f,c
  6690  00252C                     l988:
  6691  00252C  5008               	movf	___fladd@b^0,w,c
  6692  00252E  1009               	iorwf	(___fladd@b+1)^0,w,c
  6693  002530  100A               	iorwf	(___fladd@b+2)^0,w,c
  6694  002532  100B               	iorwf	(___fladd@b+3)^0,w,c
  6695  002534  A4D8               	btfss	status,2,c
  6696  002536  EF9F  F012         	goto	u6151
  6697  00253A  EFA1  F012         	goto	u6150
  6698  00253E                     u6151:
  6699  00253E  EFD6  F012         	goto	l5281
  6700  002542                     u6150:
  6701  002542  5017               	movf	___fladd@grs^0,w,c
  6702  002544  A4D8               	btfss	status,2,c
  6703  002546  EFA7  F012         	goto	u6161
  6704  00254A  EFA9  F012         	goto	u6160
  6705  00254E                     u6161:
  6706  00254E  EFD6  F012         	goto	l5281
  6707  002552                     u6160:
  6708  002552  0E00               	movlw	0
  6709  002554  6E08               	movwf	?___fladd^0,c
  6710  002556  0E00               	movlw	0
  6711  002558  6E09               	movwf	(?___fladd+1)^0,c
  6712  00255A  0E00               	movlw	0
  6713  00255C  6E0A               	movwf	(?___fladd+2)^0,c
  6714  00255E  0E00               	movlw	0
  6715  002560  6E0B               	movwf	(?___fladd+3)^0,c
  6716  002562  EF71  F013         	goto	l980
  6717  002566                     l5265:
  6718  002566  90D8               	bcf	status,0,c
  6719  002568  3608               	rlcf	___fladd@b^0,f,c
  6720  00256A  3609               	rlcf	(___fladd@b+1)^0,f,c
  6721  00256C  360A               	rlcf	(___fladd@b+2)^0,f,c
  6722  00256E  360B               	rlcf	(___fladd@b+3)^0,f,c
  6723  002570  AE17               	btfss	___fladd@grs^0,7,c
  6724  002572  EFBD  F012         	goto	u6171
  6725  002576  EFBF  F012         	goto	u6170
  6726  00257A                     u6171:
  6727  00257A  EFC0  F012         	goto	l5271
  6728  00257E                     u6170:
  6729  00257E  8008               	bsf	___fladd@b^0,0,c
  6730  002580                     l5271:
  6731  002580  A017               	btfss	___fladd@grs^0,0,c
  6732  002582  EFC5  F012         	goto	u6181
  6733  002586  EFC7  F012         	goto	u6180
  6734  00258A                     u6181:
  6735  00258A  EFCB  F012         	goto	l5275
  6736  00258E                     u6180:
  6737  00258E  80D8               	bsf	status,0,c
  6738  002590  3617               	rlcf	___fladd@grs^0,f,c
  6739  002592  EFCD  F012         	goto	l5277
  6740  002596                     l5275:
  6741  002596  90D8               	bcf	status,0,c
  6742  002598  3617               	rlcf	___fladd@grs^0,f,c
  6743  00259A                     l5277:
  6744  00259A  5016               	movf	___fladd@bexp^0,w,c
  6745  00259C  B4D8               	btfsc	status,2,c
  6746  00259E  EFD3  F012         	goto	u6191
  6747  0025A2  EFD5  F012         	goto	u6190
  6748  0025A6                     u6191:
  6749  0025A6  EFD6  F012         	goto	l5281
  6750  0025AA                     u6190:
  6751  0025AA  0616               	decf	___fladd@bexp^0,f,c
  6752  0025AC                     l5281:
  6753  0025AC  AE0A               	btfss	(___fladd@b+2)^0,7,c
  6754  0025AE  EFDB  F012         	goto	u6201
  6755  0025B2  EFDD  F012         	goto	u6200
  6756  0025B6                     u6201:
  6757  0025B6  EFB3  F012         	goto	l5265
  6758  0025BA                     u6200:
  6759  0025BA                     l5283:
  6760  0025BA  0E00               	movlw	0
  6761  0025BC  6E15               	movwf	___fladd@aexp^0,c
  6762  0025BE  AE17               	btfss	___fladd@grs^0,7,c
  6763  0025C0  EFE4  F012         	goto	u6211
  6764  0025C4  EFE6  F012         	goto	u6210
  6765  0025C8                     u6211:
  6766  0025C8  EFFE  F012         	goto	l997
  6767  0025CC                     u6210:
  6768  0025CC  C017  F010         	movff	___fladd@grs,??___fladd
  6769  0025D0  0E7F               	movlw	127
  6770  0025D2  1610               	andwf	??___fladd^0,f,c
  6771  0025D4  B4D8               	btfsc	status,2,c
  6772  0025D6  EFEF  F012         	goto	u6221
  6773  0025DA  EFF1  F012         	goto	u6220
  6774  0025DE                     u6221:
  6775  0025DE  EFF5  F012         	goto	l998
  6776  0025E2                     u6220:
  6777  0025E2                     l5289:
  6778  0025E2  0E01               	movlw	1
  6779  0025E4  6E15               	movwf	___fladd@aexp^0,c
  6780  0025E6  EFFE  F012         	goto	l997
  6781  0025EA                     l998:
  6782  0025EA  A008               	btfss	___fladd@b^0,0,c
  6783  0025EC  EFFA  F012         	goto	u6231
  6784  0025F0  EFFC  F012         	goto	u6230
  6785  0025F4                     u6231:
  6786  0025F4  EFFE  F012         	goto	l997
  6787  0025F8                     u6230:
  6788  0025F8  EFF1  F012         	goto	l5289
  6789  0025FC                     l997:
  6790  0025FC  5015               	movf	___fladd@aexp^0,w,c
  6791  0025FE  B4D8               	btfsc	status,2,c
  6792  002600  EF04  F013         	goto	u6241
  6793  002604  EF06  F013         	goto	u6240
  6794  002608                     u6241:
  6795  002608  EF31  F013         	goto	l5301
  6796  00260C                     u6240:
  6797  00260C  0E01               	movlw	1
  6798  00260E  2608               	addwf	___fladd@b^0,f,c
  6799  002610  0E00               	movlw	0
  6800  002612  2209               	addwfc	(___fladd@b+1)^0,f,c
  6801  002614  220A               	addwfc	(___fladd@b+2)^0,f,c
  6802  002616  220B               	addwfc	(___fladd@b+3)^0,f,c
  6803  002618  A00B               	btfss	(___fladd@b+3)^0,0,c
  6804  00261A  EF11  F013         	goto	u6251
  6805  00261E  EF13  F013         	goto	u6250
  6806  002622                     u6251:
  6807  002622  EF31  F013         	goto	l5301
  6808  002626                     u6250:
  6809  002626  C008  F010         	movff	___fladd@b,??___fladd
  6810  00262A  C009  F011         	movff	___fladd@b+1,??___fladd+1
  6811  00262E  C00A  F012         	movff	___fladd@b+2,??___fladd+2
  6812  002632  C00B  F013         	movff	___fladd@b+3,??___fladd+3
  6813  002636  3413               	rlcf	(??___fladd+3)^0,w,c
  6814  002638  3213               	rrcf	(??___fladd+3)^0,f,c
  6815  00263A  3212               	rrcf	(??___fladd+2)^0,f,c
  6816  00263C  3211               	rrcf	(??___fladd+1)^0,f,c
  6817  00263E  3210               	rrcf	??___fladd^0,f,c
  6818  002640  C010  F008         	movff	??___fladd,___fladd@b
  6819  002644  C011  F009         	movff	??___fladd+1,___fladd@b+1
  6820  002648  C012  F00A         	movff	??___fladd+2,___fladd@b+2
  6821  00264C  C013  F00B         	movff	??___fladd+3,___fladd@b+3
  6822  002650  2816               	incf	___fladd@bexp^0,w,c
  6823  002652  B4D8               	btfsc	status,2,c
  6824  002654  EF2E  F013         	goto	u6261
  6825  002658  EF30  F013         	goto	u6260
  6826  00265C                     u6261:
  6827  00265C  EF31  F013         	goto	l5301
  6828  002660                     u6260:
  6829  002660  2A16               	incf	___fladd@bexp^0,f,c
  6830  002662                     l5301:
  6831  002662  2816               	incf	___fladd@bexp^0,w,c
  6832  002664  B4D8               	btfsc	status,2,c
  6833  002666  EF37  F013         	goto	u6271
  6834  00266A  EF39  F013         	goto	u6270
  6835  00266E                     u6271:
  6836  00266E  EF41  F013         	goto	l5305
  6837  002672                     u6270:
  6838  002672  5016               	movf	___fladd@bexp^0,w,c
  6839  002674  A4D8               	btfss	status,2,c
  6840  002676  EF3F  F013         	goto	u6281
  6841  00267A  EF41  F013         	goto	u6280
  6842  00267E                     u6281:
  6843  00267E  EF53  F013         	goto	l5309
  6844  002682                     u6280:
  6845  002682                     l5305:
  6846  002682  0E00               	movlw	0
  6847  002684  6E08               	movwf	___fladd@b^0,c
  6848  002686  0E00               	movlw	0
  6849  002688  6E09               	movwf	(___fladd@b+1)^0,c
  6850  00268A  0E00               	movlw	0
  6851  00268C  6E0A               	movwf	(___fladd@b+2)^0,c
  6852  00268E  0E00               	movlw	0
  6853  002690  6E0B               	movwf	(___fladd@b+3)^0,c
  6854  002692  5016               	movf	___fladd@bexp^0,w,c
  6855  002694  A4D8               	btfss	status,2,c
  6856  002696  EF4F  F013         	goto	u6291
  6857  00269A  EF51  F013         	goto	u6290
  6858  00269E                     u6291:
  6859  00269E  EF53  F013         	goto	l5309
  6860  0026A2                     u6290:
  6861  0026A2  0E00               	movlw	0
  6862  0026A4  6E14               	movwf	___fladd@signs^0,c
  6863  0026A6                     l5309:
  6864  0026A6  A016               	btfss	___fladd@bexp^0,0,c
  6865  0026A8  EF58  F013         	goto	u6301
  6866  0026AC  EF5A  F013         	goto	u6300
  6867  0026B0                     u6301:
  6868  0026B0  EF5D  F013         	goto	l5313
  6869  0026B4                     u6300:
  6870  0026B4  8E0A               	bsf	(___fladd@b+2)^0,7,c
  6871  0026B6  EF5E  F013         	goto	l5315
  6872  0026BA                     l5313:
  6873  0026BA  9E0A               	bcf	(___fladd@b+2)^0,7,c
  6874  0026BC                     l5315:
  6875  0026BC  90D8               	bcf	status,0,c
  6876  0026BE  3016               	rrcf	___fladd@bexp^0,w,c
  6877  0026C0  6E0B               	movwf	(___fladd@b+3)^0,c
  6878  0026C2  AE14               	btfss	___fladd@signs^0,7,c
  6879  0026C4  EF66  F013         	goto	u6311
  6880  0026C8  EF68  F013         	goto	u6310
  6881  0026CC                     u6311:
  6882  0026CC  EF69  F013         	goto	l5321
  6883  0026D0                     u6310:
  6884  0026D0  8E0B               	bsf	(___fladd@b+3)^0,7,c
  6885  0026D2                     l5321:
  6886  0026D2  C008  F008         	movff	___fladd@b,?___fladd
  6887  0026D6  C009  F009         	movff	___fladd@b+1,?___fladd+1
  6888  0026DA  C00A  F00A         	movff	___fladd@b+2,?___fladd+2
  6889  0026DE  C00B  F00B         	movff	___fladd@b+3,?___fladd+3
  6890  0026E2                     l980:
  6891  0026E2  0012               	return		;funcret
  6892  0026E4                     __end_of___fladd:
  6893                           	callstack 0
  6894                           
  6895 ;; *************** function ___flneg *****************
  6896 ;; Defined at:
  6897 ;;		line 15 in file "C:\Program Files\Microchip\xc8\v2.32\pic\sources\c99\common\flneg.c"
  6898 ;; Parameters:    Size  Location     Type
  6899 ;;  f1              4    7[COMRAM] unsigned char 
  6900 ;; Auto vars:     Size  Location     Type
  6901 ;;		None
  6902 ;; Return value:  Size  Location     Type
  6903 ;;                  4    7[COMRAM] unsigned char 
  6904 ;; Registers used:
  6905 ;;		wreg, status,2, status,0
  6906 ;; Tracked objects:
  6907 ;;		On entry : 0/0
  6908 ;;		On exit  : 0/0
  6909 ;;		Unchanged: 0/0
  6910 ;; Data sizes:     COMRAM   BANK0   BANK1   BANK2   BANK3   BANK4   BANK5   BANK6   BANK7   BANK8   BANK9  BANK10  BANK1
      +1  BANK12  BANK13  BANK14  BANK15
  6911 ;;      Params:         4       0       0       0       0       0       0       0       0       0       0       0       
      +0       0       0       0       0
  6912 ;;      Locals:         0       0       0       0       0       0       0       0       0       0       0       0       
      +0       0       0       0       0
  6913 ;;      Temps:          0       0       0       0       0       0       0       0       0       0       0       0       
      +0       0       0       0       0
  6914 ;;      Totals:         4       0       0       0       0       0       0       0       0       0       0       0       
      +0       0       0       0       0
  6915 ;;Total ram usage:        4 bytes
  6916 ;; Hardware stack levels used: 1
  6917 ;; Hardware stack levels required when called: 5
  6918 ;; This function calls:
  6919 ;;		Nothing
  6920 ;; This function is called by:
  6921 ;;		_efgtoa
  6922 ;; This function uses a non-reentrant model
  6923 ;;
  6924                           
  6925                           	psect	text24
  6926  004856                     __ptext24:
  6927                           	callstack 0
  6928  004856                     ___flneg:
  6929                           	callstack 20
  6930  004856  5008               	movf	___flneg@f1^0,w,c
  6931  004858  1009               	iorwf	(___flneg@f1+1)^0,w,c
  6932  00485A  100A               	iorwf	(___flneg@f1+2)^0,w,c
  6933  00485C  100B               	iorwf	(___flneg@f1+3)^0,w,c
  6934  00485E  B4D8               	btfsc	status,2,c
  6935  004860  EF34  F024         	goto	u7001
  6936  004864  EF36  F024         	goto	u7000
  6937  004868                     u7001:
  6938  004868  EF3E  F024         	goto	l5753
  6939  00486C                     u7000:
  6940  00486C  0E00               	movlw	0
  6941  00486E  1A08               	xorwf	___flneg@f1^0,f,c
  6942  004870  0E00               	movlw	0
  6943  004872  1A09               	xorwf	(___flneg@f1+1)^0,f,c
  6944  004874  0E00               	movlw	0
  6945  004876  1A0A               	xorwf	(___flneg@f1+2)^0,f,c
  6946  004878  0E80               	movlw	128
  6947  00487A  1A0B               	xorwf	(___flneg@f1+3)^0,f,c
  6948  00487C                     l5753:
  6949  00487C  C008  F008         	movff	___flneg@f1,?___flneg
  6950  004880  C009  F009         	movff	___flneg@f1+1,?___flneg+1
  6951  004884  C00A  F00A         	movff	___flneg@f1+2,?___flneg+2
  6952  004888  C00B  F00B         	movff	___flneg@f1+3,?___flneg+3
  6953  00488C  0012               	return		;funcret
  6954  00488E                     __end_of___flneg:
  6955                           	callstack 0
  6956                           
  6957 ;; *************** function ___flmul *****************
  6958 ;; Defined at:
  6959 ;;		line 8 in file "C:\Program Files\Microchip\xc8\v2.32\pic\sources\c99\common\sprcmul.c"
  6960 ;; Parameters:    Size  Location     Type
  6961 ;;  b               4   21[COMRAM] unsigned char 
  6962 ;;  a               4   25[COMRAM] unsigned char 
  6963 ;; Auto vars:     Size  Location     Type
  6964 ;;  prod            4   40[COMRAM] struct .
  6965 ;;  grs             4   35[COMRAM] unsigned long 
  6966 ;;  temp            2   44[COMRAM] struct .
  6967 ;;  bexp            1   39[COMRAM] unsigned char 
  6968 ;;  aexp            1   34[COMRAM] unsigned char 
  6969 ;;  sign            1   33[COMRAM] unsigned char 
  6970 ;; Return value:  Size  Location     Type
  6971 ;;                  4   21[COMRAM] unsigned char 
  6972 ;; Registers used:
  6973 ;;		wreg, status,2, status,0, prodl, prodh
  6974 ;; Tracked objects:
  6975 ;;		On entry : 0/0
  6976 ;;		On exit  : 0/0
  6977 ;;		Unchanged: 0/0
  6978 ;; Data sizes:     COMRAM   BANK0   BANK1   BANK2   BANK3   BANK4   BANK5   BANK6   BANK7   BANK8   BANK9  BANK10  BANK1
      +1  BANK12  BANK13  BANK14  BANK15
  6979 ;;      Params:         8       0       0       0       0       0       0       0       0       0       0       0       
      +0       0       0       0       0
  6980 ;;      Locals:        13       0       0       0       0       0       0       0       0       0       0       0       
      +0       0       0       0       0
  6981 ;;      Temps:          4       0       0       0       0       0       0       0       0       0       0       0       
      +0       0       0       0       0
  6982 ;;      Totals:        25       0       0       0       0       0       0       0       0       0       0       0       
      +0       0       0       0       0
  6983 ;;Total ram usage:       25 bytes
  6984 ;; Hardware stack levels used: 1
  6985 ;; Hardware stack levels required when called: 5
  6986 ;; This function calls:
  6987 ;;		Nothing
  6988 ;; This function is called by:
  6989 ;;		_handleADC
  6990 ;;		_efgtoa
  6991 ;; This function uses a non-reentrant model
  6992 ;;
  6993                           
  6994                           	psect	text25
  6995  0026E4                     __ptext25:
  6996                           	callstack 0
  6997  0026E4                     ___flmul:
  6998                           	callstack 20
  6999  0026E4  5019               	movf	(___flmul@b+3)^0,w,c
  7000  0026E6  0B80               	andlw	128
  7001  0026E8  6E22               	movwf	___flmul@sign^0,c
  7002  0026EA  5019               	movf	(___flmul@b+3)^0,w,c
  7003  0026EC  2419               	addwf	(___flmul@b+3)^0,w,c
  7004  0026EE  6E28               	movwf	___flmul@bexp^0,c
  7005  0026F0  AE18               	btfss	(___flmul@b+2)^0,7,c
  7006  0026F2  EF7D  F013         	goto	u6611
  7007  0026F6  EF7F  F013         	goto	u6610
  7008  0026FA                     u6611:
  7009  0026FA  EF80  F013         	goto	l5501
  7010  0026FE                     u6610:
  7011  0026FE  8028               	bsf	___flmul@bexp^0,0,c
  7012  002700                     l5501:
  7013  002700  5028               	movf	___flmul@bexp^0,w,c
  7014  002702  B4D8               	btfsc	status,2,c
  7015  002704  EF86  F013         	goto	u6621
  7016  002708  EF88  F013         	goto	u6620
  7017  00270C                     u6621:
  7018  00270C  EF9B  F013         	goto	l5509
  7019  002710                     u6620:
  7020  002710  2828               	incf	___flmul@bexp^0,w,c
  7021  002712  A4D8               	btfss	status,2,c
  7022  002714  EF8E  F013         	goto	u6631
  7023  002718  EF90  F013         	goto	u6630
  7024  00271C                     u6631:
  7025  00271C  EF98  F013         	goto	l5507
  7026  002720                     u6630:
  7027  002720  0E00               	movlw	0
  7028  002722  6E16               	movwf	___flmul@b^0,c
  7029  002724  0E00               	movlw	0
  7030  002726  6E17               	movwf	(___flmul@b+1)^0,c
  7031  002728  0E00               	movlw	0
  7032  00272A  6E18               	movwf	(___flmul@b+2)^0,c
  7033  00272C  0E00               	movlw	0
  7034  00272E  6E19               	movwf	(___flmul@b+3)^0,c
  7035  002730                     l5507:
  7036  002730  8E18               	bsf	(___flmul@b+2)^0,7,c
  7037  002732  EFA3  F013         	goto	l5511
  7038  002736                     l5509:
  7039  002736  0E00               	movlw	0
  7040  002738  6E16               	movwf	___flmul@b^0,c
  7041  00273A  0E00               	movlw	0
  7042  00273C  6E17               	movwf	(___flmul@b+1)^0,c
  7043  00273E  0E00               	movlw	0
  7044  002740  6E18               	movwf	(___flmul@b+2)^0,c
  7045  002742  0E00               	movlw	0
  7046  002744  6E19               	movwf	(___flmul@b+3)^0,c
  7047  002746                     l5511:
  7048  002746  501D               	movf	(___flmul@a+3)^0,w,c
  7049  002748  0B80               	andlw	128
  7050  00274A  1A22               	xorwf	___flmul@sign^0,f,c
  7051  00274C  501D               	movf	(___flmul@a+3)^0,w,c
  7052  00274E  241D               	addwf	(___flmul@a+3)^0,w,c
  7053  002750  6E23               	movwf	___flmul@aexp^0,c
  7054  002752  AE1C               	btfss	(___flmul@a+2)^0,7,c
  7055  002754  EFAE  F013         	goto	u6641
  7056  002758  EFB0  F013         	goto	u6640
  7057  00275C                     u6641:
  7058  00275C  EFB1  F013         	goto	l5519
  7059  002760                     u6640:
  7060  002760  8023               	bsf	___flmul@aexp^0,0,c
  7061  002762                     l5519:
  7062  002762  5023               	movf	___flmul@aexp^0,w,c
  7063  002764  B4D8               	btfsc	status,2,c
  7064  002766  EFB7  F013         	goto	u6651
  7065  00276A  EFB9  F013         	goto	u6650
  7066  00276E                     u6651:
  7067  00276E  EFCC  F013         	goto	l5527
  7068  002772                     u6650:
  7069  002772  2823               	incf	___flmul@aexp^0,w,c
  7070  002774  A4D8               	btfss	status,2,c
  7071  002776  EFBF  F013         	goto	u6661
  7072  00277A  EFC1  F013         	goto	u6660
  7073  00277E                     u6661:
  7074  00277E  EFC9  F013         	goto	l5525
  7075  002782                     u6660:
  7076  002782  0E00               	movlw	0
  7077  002784  6E1A               	movwf	___flmul@a^0,c
  7078  002786  0E00               	movlw	0
  7079  002788  6E1B               	movwf	(___flmul@a+1)^0,c
  7080  00278A  0E00               	movlw	0
  7081  00278C  6E1C               	movwf	(___flmul@a+2)^0,c
  7082  00278E  0E00               	movlw	0
  7083  002790  6E1D               	movwf	(___flmul@a+3)^0,c
  7084  002792                     l5525:
  7085  002792  8E1C               	bsf	(___flmul@a+2)^0,7,c
  7086  002794  EFD4  F013         	goto	l1057
  7087  002798                     l5527:
  7088  002798  0E00               	movlw	0
  7089  00279A  6E1A               	movwf	___flmul@a^0,c
  7090  00279C  0E00               	movlw	0
  7091  00279E  6E1B               	movwf	(___flmul@a+1)^0,c
  7092  0027A0  0E00               	movlw	0
  7093  0027A2  6E1C               	movwf	(___flmul@a+2)^0,c
  7094  0027A4  0E00               	movlw	0
  7095  0027A6  6E1D               	movwf	(___flmul@a+3)^0,c
  7096  0027A8                     l1057:
  7097  0027A8  5023               	movf	___flmul@aexp^0,w,c
  7098  0027AA  B4D8               	btfsc	status,2,c
  7099  0027AC  EFDA  F013         	goto	u6671
  7100  0027B0  EFDC  F013         	goto	u6670
  7101  0027B4                     u6671:
  7102  0027B4  EFE4  F013         	goto	l5531
  7103  0027B8                     u6670:
  7104  0027B8  5028               	movf	___flmul@bexp^0,w,c
  7105  0027BA  A4D8               	btfss	status,2,c
  7106  0027BC  EFE2  F013         	goto	u6681
  7107  0027C0  EFE4  F013         	goto	u6680
  7108  0027C4                     u6681:
  7109  0027C4  EFEE  F013         	goto	l5535
  7110  0027C8                     u6680:
  7111  0027C8                     l5531:
  7112  0027C8  0E00               	movlw	0
  7113  0027CA  6E16               	movwf	?___flmul^0,c
  7114  0027CC  0E00               	movlw	0
  7115  0027CE  6E17               	movwf	(?___flmul+1)^0,c
  7116  0027D0  0E00               	movlw	0
  7117  0027D2  6E18               	movwf	(?___flmul+2)^0,c
  7118  0027D4  0E00               	movlw	0
  7119  0027D6  6E19               	movwf	(?___flmul+3)^0,c
  7120  0027D8  EF86  F015         	goto	l1061
  7121  0027DC                     l5535:
  7122  0027DC  501C               	movf	(___flmul@a+2)^0,w,c
  7123  0027DE  0216               	mulwf	___flmul@b^0,c
  7124  0027E0  CFF3 F02D          	movff	prodl,___flmul@temp
  7125  0027E4  CFF4 F02E          	movff	prodh,___flmul@temp+1
  7126  0027E8  502D               	movf	___flmul@temp^0,w,c
  7127  0027EA  6E24               	movwf	___flmul@grs^0,c
  7128  0027EC  6A25               	clrf	(___flmul@grs+1)^0,c
  7129  0027EE  6A26               	clrf	(___flmul@grs+2)^0,c
  7130  0027F0  6A27               	clrf	(___flmul@grs+3)^0,c
  7131  0027F2  502E               	movf	(___flmul@temp+1)^0,w,c
  7132  0027F4  6E29               	movwf	___flmul@prod^0,c
  7133  0027F6  6A2A               	clrf	(___flmul@prod+1)^0,c
  7134  0027F8  6A2B               	clrf	(___flmul@prod+2)^0,c
  7135  0027FA  6A2C               	clrf	(___flmul@prod+3)^0,c
  7136  0027FC  501B               	movf	(___flmul@a+1)^0,w,c
  7137  0027FE  0217               	mulwf	(___flmul@b+1)^0,c
  7138  002800  CFF3 F02D          	movff	prodl,___flmul@temp
  7139  002804  CFF4 F02E          	movff	prodh,___flmul@temp+1
  7140  002808  502D               	movf	___flmul@temp^0,w,c
  7141  00280A  2624               	addwf	___flmul@grs^0,f,c
  7142  00280C  0E00               	movlw	0
  7143  00280E  2225               	addwfc	(___flmul@grs+1)^0,f,c
  7144  002810  2226               	addwfc	(___flmul@grs+2)^0,f,c
  7145  002812  2227               	addwfc	(___flmul@grs+3)^0,f,c
  7146  002814  502E               	movf	(___flmul@temp+1)^0,w,c
  7147  002816  2629               	addwf	___flmul@prod^0,f,c
  7148  002818  0E00               	movlw	0
  7149  00281A  222A               	addwfc	(___flmul@prod+1)^0,f,c
  7150  00281C  222B               	addwfc	(___flmul@prod+2)^0,f,c
  7151  00281E  222C               	addwfc	(___flmul@prod+3)^0,f,c
  7152  002820  501A               	movf	___flmul@a^0,w,c
  7153  002822  0218               	mulwf	(___flmul@b+2)^0,c
  7154  002824  CFF3 F02D          	movff	prodl,___flmul@temp
  7155  002828  CFF4 F02E          	movff	prodh,___flmul@temp+1
  7156  00282C  502D               	movf	___flmul@temp^0,w,c
  7157  00282E  2624               	addwf	___flmul@grs^0,f,c
  7158  002830  0E00               	movlw	0
  7159  002832  2225               	addwfc	(___flmul@grs+1)^0,f,c
  7160  002834  2226               	addwfc	(___flmul@grs+2)^0,f,c
  7161  002836  2227               	addwfc	(___flmul@grs+3)^0,f,c
  7162  002838  502E               	movf	(___flmul@temp+1)^0,w,c
  7163  00283A  2629               	addwf	___flmul@prod^0,f,c
  7164  00283C  0E00               	movlw	0
  7165  00283E  222A               	addwfc	(___flmul@prod+1)^0,f,c
  7166  002840  222B               	addwfc	(___flmul@prod+2)^0,f,c
  7167  002842  222C               	addwfc	(___flmul@prod+3)^0,f,c
  7168  002844  C026  F027         	movff	___flmul@grs+2,___flmul@grs+3
  7169  002848  C025  F026         	movff	___flmul@grs+1,___flmul@grs+2
  7170  00284C  C024  F025         	movff	___flmul@grs,___flmul@grs+1
  7171  002850  6A24               	clrf	___flmul@grs^0,c
  7172  002852  501A               	movf	___flmul@a^0,w,c
  7173  002854  0217               	mulwf	(___flmul@b+1)^0,c
  7174  002856  CFF3 F02D          	movff	prodl,___flmul@temp
  7175  00285A  CFF4 F02E          	movff	prodh,___flmul@temp+1
  7176  00285E  502D               	movf	___flmul@temp^0,w,c
  7177  002860  2624               	addwf	___flmul@grs^0,f,c
  7178  002862  502E               	movf	(___flmul@temp+1)^0,w,c
  7179  002864  2225               	addwfc	(___flmul@grs+1)^0,f,c
  7180  002866  0E00               	movlw	0
  7181  002868  2226               	addwfc	(___flmul@grs+2)^0,f,c
  7182  00286A  0E00               	movlw	0
  7183  00286C  2227               	addwfc	(___flmul@grs+3)^0,f,c
  7184  00286E  501B               	movf	(___flmul@a+1)^0,w,c
  7185  002870  0216               	mulwf	___flmul@b^0,c
  7186  002872  CFF3 F02D          	movff	prodl,___flmul@temp
  7187  002876  CFF4 F02E          	movff	prodh,___flmul@temp+1
  7188  00287A  502D               	movf	___flmul@temp^0,w,c
  7189  00287C  2624               	addwf	___flmul@grs^0,f,c
  7190  00287E  502E               	movf	(___flmul@temp+1)^0,w,c
  7191  002880  2225               	addwfc	(___flmul@grs+1)^0,f,c
  7192  002882  0E00               	movlw	0
  7193  002884  2226               	addwfc	(___flmul@grs+2)^0,f,c
  7194  002886  0E00               	movlw	0
  7195  002888  2227               	addwfc	(___flmul@grs+3)^0,f,c
  7196  00288A  C026  F027         	movff	___flmul@grs+2,___flmul@grs+3
  7197  00288E  C025  F026         	movff	___flmul@grs+1,___flmul@grs+2
  7198  002892  C024  F025         	movff	___flmul@grs,___flmul@grs+1
  7199  002896  6A24               	clrf	___flmul@grs^0,c
  7200  002898  501A               	movf	___flmul@a^0,w,c
  7201  00289A  0216               	mulwf	___flmul@b^0,c
  7202  00289C  CFF3 F02D          	movff	prodl,___flmul@temp
  7203  0028A0  CFF4 F02E          	movff	prodh,___flmul@temp+1
  7204  0028A4  502D               	movf	___flmul@temp^0,w,c
  7205  0028A6  2624               	addwf	___flmul@grs^0,f,c
  7206  0028A8  502E               	movf	(___flmul@temp+1)^0,w,c
  7207  0028AA  2225               	addwfc	(___flmul@grs+1)^0,f,c
  7208  0028AC  0E00               	movlw	0
  7209  0028AE  2226               	addwfc	(___flmul@grs+2)^0,f,c
  7210  0028B0  0E00               	movlw	0
  7211  0028B2  2227               	addwfc	(___flmul@grs+3)^0,f,c
  7212  0028B4  501C               	movf	(___flmul@a+2)^0,w,c
  7213  0028B6  0217               	mulwf	(___flmul@b+1)^0,c
  7214  0028B8  CFF3 F02D          	movff	prodl,___flmul@temp
  7215  0028BC  CFF4 F02E          	movff	prodh,___flmul@temp+1
  7216  0028C0  502D               	movf	___flmul@temp^0,w,c
  7217  0028C2  2629               	addwf	___flmul@prod^0,f,c
  7218  0028C4  502E               	movf	(___flmul@temp+1)^0,w,c
  7219  0028C6  222A               	addwfc	(___flmul@prod+1)^0,f,c
  7220  0028C8  0E00               	movlw	0
  7221  0028CA  222B               	addwfc	(___flmul@prod+2)^0,f,c
  7222  0028CC  0E00               	movlw	0
  7223  0028CE  222C               	addwfc	(___flmul@prod+3)^0,f,c
  7224  0028D0  501B               	movf	(___flmul@a+1)^0,w,c
  7225  0028D2  0218               	mulwf	(___flmul@b+2)^0,c
  7226  0028D4  CFF3 F02D          	movff	prodl,___flmul@temp
  7227  0028D8  CFF4 F02E          	movff	prodh,___flmul@temp+1
  7228  0028DC  502D               	movf	___flmul@temp^0,w,c
  7229  0028DE  2629               	addwf	___flmul@prod^0,f,c
  7230  0028E0  502E               	movf	(___flmul@temp+1)^0,w,c
  7231  0028E2  222A               	addwfc	(___flmul@prod+1)^0,f,c
  7232  0028E4  0E00               	movlw	0
  7233  0028E6  222B               	addwfc	(___flmul@prod+2)^0,f,c
  7234  0028E8  0E00               	movlw	0
  7235  0028EA  222C               	addwfc	(___flmul@prod+3)^0,f,c
  7236  0028EC  501C               	movf	(___flmul@a+2)^0,w,c
  7237  0028EE  0218               	mulwf	(___flmul@b+2)^0,c
  7238  0028F0  CFF3 F02D          	movff	prodl,___flmul@temp
  7239  0028F4  CFF4 F02E          	movff	prodh,___flmul@temp+1
  7240  0028F8  502D               	movf	___flmul@temp^0,w,c
  7241  0028FA  6E1E               	movwf	??___flmul^0,c
  7242  0028FC  502E               	movf	(___flmul@temp+1)^0,w,c
  7243  0028FE  6E1F               	movwf	(??___flmul+1)^0,c
  7244  002900  6A20               	clrf	(??___flmul+2)^0,c
  7245  002902  6A21               	clrf	(??___flmul+3)^0,c
  7246  002904  C020  F021         	movff	??___flmul+2,??___flmul+3
  7247  002908  C01F  F020         	movff	??___flmul+1,??___flmul+2
  7248  00290C  C01E  F01F         	movff	??___flmul,??___flmul+1
  7249  002910  6A1E               	clrf	??___flmul^0,c
  7250  002912  501E               	movf	??___flmul^0,w,c
  7251  002914  2629               	addwf	___flmul@prod^0,f,c
  7252  002916  501F               	movf	(??___flmul+1)^0,w,c
  7253  002918  222A               	addwfc	(___flmul@prod+1)^0,f,c
  7254  00291A  5020               	movf	(??___flmul+2)^0,w,c
  7255  00291C  222B               	addwfc	(___flmul@prod+2)^0,f,c
  7256  00291E  5021               	movf	(??___flmul+3)^0,w,c
  7257  002920  222C               	addwfc	(___flmul@prod+3)^0,f,c
  7258  002922  C024  F01E         	movff	___flmul@grs,??___flmul
  7259  002926  C025  F01F         	movff	___flmul@grs+1,??___flmul+1
  7260  00292A  C026  F020         	movff	___flmul@grs+2,??___flmul+2
  7261  00292E  C027  F021         	movff	___flmul@grs+3,??___flmul+3
  7262  002932  0E19               	movlw	25
  7263  002934  EFA1  F014         	goto	u6690
  7264  002938                     u6695:
  7265  002938  90D8               	bcf	status,0,c
  7266  00293A  3221               	rrcf	(??___flmul+3)^0,f,c
  7267  00293C  3220               	rrcf	(??___flmul+2)^0,f,c
  7268  00293E  321F               	rrcf	(??___flmul+1)^0,f,c
  7269  002940  321E               	rrcf	??___flmul^0,f,c
  7270  002942                     u6690:
  7271  002942  2EE8               	decfsz	wreg,f,c
  7272  002944  EF9C  F014         	goto	u6695
  7273  002948  501E               	movf	??___flmul^0,w,c
  7274  00294A  2629               	addwf	___flmul@prod^0,f,c
  7275  00294C  501F               	movf	(??___flmul+1)^0,w,c
  7276  00294E  222A               	addwfc	(___flmul@prod+1)^0,f,c
  7277  002950  5020               	movf	(??___flmul+2)^0,w,c
  7278  002952  222B               	addwfc	(___flmul@prod+2)^0,f,c
  7279  002954  5021               	movf	(??___flmul+3)^0,w,c
  7280  002956  222C               	addwfc	(___flmul@prod+3)^0,f,c
  7281  002958  C026  F027         	movff	___flmul@grs+2,___flmul@grs+3
  7282  00295C  C025  F026         	movff	___flmul@grs+1,___flmul@grs+2
  7283  002960  C024  F025         	movff	___flmul@grs,___flmul@grs+1
  7284  002964  6A24               	clrf	___flmul@grs^0,c
  7285  002966  5023               	movf	___flmul@aexp^0,w,c
  7286  002968  C028  F01E         	movff	___flmul@bexp,??___flmul
  7287  00296C  6A1F               	clrf	(??___flmul+1)^0,c
  7288  00296E  261E               	addwf	??___flmul^0,f,c
  7289  002970  0E00               	movlw	0
  7290  002972  221F               	addwfc	(??___flmul+1)^0,f,c
  7291  002974  0E82               	movlw	130
  7292  002976  241E               	addwf	??___flmul^0,w,c
  7293  002978  6E2D               	movwf	___flmul@temp^0,c
  7294  00297A  0EFF               	movlw	255
  7295  00297C  201F               	addwfc	(??___flmul+1)^0,w,c
  7296  00297E  6E2E               	movwf	(___flmul@temp+1)^0,c
  7297  002980  EFD7  F014         	goto	l5583
  7298  002984                     l5577:
  7299  002984  90D8               	bcf	status,0,c
  7300  002986  3629               	rlcf	___flmul@prod^0,f,c
  7301  002988  362A               	rlcf	(___flmul@prod+1)^0,f,c
  7302  00298A  362B               	rlcf	(___flmul@prod+2)^0,f,c
  7303  00298C  362C               	rlcf	(___flmul@prod+3)^0,f,c
  7304  00298E  AE27               	btfss	(___flmul@grs+3)^0,7,c
  7305  002990  EFCC  F014         	goto	u6701
  7306  002994  EFCE  F014         	goto	u6700
  7307  002998                     u6701:
  7308  002998  EFCF  F014         	goto	l1064
  7309  00299C                     u6700:
  7310  00299C  8029               	bsf	___flmul@prod^0,0,c
  7311  00299E                     l1064:
  7312  00299E  90D8               	bcf	status,0,c
  7313  0029A0  3624               	rlcf	___flmul@grs^0,f,c
  7314  0029A2  3625               	rlcf	(___flmul@grs+1)^0,f,c
  7315  0029A4  3626               	rlcf	(___flmul@grs+2)^0,f,c
  7316  0029A6  3627               	rlcf	(___flmul@grs+3)^0,f,c
  7317  0029A8  062D               	decf	___flmul@temp^0,f,c
  7318  0029AA  A0D8               	btfss	status,0,c
  7319  0029AC  062E               	decf	(___flmul@temp+1)^0,f,c
  7320  0029AE                     l5583:
  7321  0029AE  AE2B               	btfss	(___flmul@prod+2)^0,7,c
  7322  0029B0  EFDC  F014         	goto	u6711
  7323  0029B4  EFDE  F014         	goto	u6710
  7324  0029B8                     u6711:
  7325  0029B8  EFC2  F014         	goto	l5577
  7326  0029BC                     u6710:
  7327  0029BC  0E00               	movlw	0
  7328  0029BE  6E23               	movwf	___flmul@aexp^0,c
  7329  0029C0  AE27               	btfss	(___flmul@grs+3)^0,7,c
  7330  0029C2  EFE5  F014         	goto	u6721
  7331  0029C6  EFE7  F014         	goto	u6720
  7332  0029CA                     u6721:
  7333  0029CA  EF0B  F015         	goto	l1066
  7334  0029CE                     u6720:
  7335  0029CE  0EFF               	movlw	255
  7336  0029D0  1424               	andwf	___flmul@grs^0,w,c
  7337  0029D2  6E1E               	movwf	??___flmul^0,c
  7338  0029D4  0EFF               	movlw	255
  7339  0029D6  1425               	andwf	(___flmul@grs+1)^0,w,c
  7340  0029D8  6E1F               	movwf	(??___flmul+1)^0,c
  7341  0029DA  0EFF               	movlw	255
  7342  0029DC  1426               	andwf	(___flmul@grs+2)^0,w,c
  7343  0029DE  6E20               	movwf	(??___flmul+2)^0,c
  7344  0029E0  0E7F               	movlw	127
  7345  0029E2  1427               	andwf	(___flmul@grs+3)^0,w,c
  7346  0029E4  6E21               	movwf	(??___flmul+3)^0,c
  7347  0029E6  501E               	movf	??___flmul^0,w,c
  7348  0029E8  101F               	iorwf	(??___flmul+1)^0,w,c
  7349  0029EA  1020               	iorwf	(??___flmul+2)^0,w,c
  7350  0029EC  1021               	iorwf	(??___flmul+3)^0,w,c
  7351  0029EE  B4D8               	btfsc	status,2,c
  7352  0029F0  EFFC  F014         	goto	u6731
  7353  0029F4  EFFE  F014         	goto	u6730
  7354  0029F8                     u6731:
  7355  0029F8  EF02  F015         	goto	l1067
  7356  0029FC                     u6730:
  7357  0029FC                     l5591:
  7358  0029FC  0E01               	movlw	1
  7359  0029FE  6E23               	movwf	___flmul@aexp^0,c
  7360  002A00  EF0B  F015         	goto	l1066
  7361  002A04                     l1067:
  7362  002A04  A029               	btfss	___flmul@prod^0,0,c
  7363  002A06  EF07  F015         	goto	u6741
  7364  002A0A  EF09  F015         	goto	u6740
  7365  002A0E                     u6741:
  7366  002A0E  EF0B  F015         	goto	l1066
  7367  002A12                     u6740:
  7368  002A12  EFFE  F014         	goto	l5591
  7369  002A16                     l1066:
  7370  002A16  5023               	movf	___flmul@aexp^0,w,c
  7371  002A18  B4D8               	btfsc	status,2,c
  7372  002A1A  EF11  F015         	goto	u6751
  7373  002A1E  EF13  F015         	goto	u6750
  7374  002A22                     u6751:
  7375  002A22  EF37  F015         	goto	l5603
  7376  002A26                     u6750:
  7377  002A26  0E01               	movlw	1
  7378  002A28  2629               	addwf	___flmul@prod^0,f,c
  7379  002A2A  0E00               	movlw	0
  7380  002A2C  222A               	addwfc	(___flmul@prod+1)^0,f,c
  7381  002A2E  222B               	addwfc	(___flmul@prod+2)^0,f,c
  7382  002A30  222C               	addwfc	(___flmul@prod+3)^0,f,c
  7383  002A32  A02C               	btfss	(___flmul@prod+3)^0,0,c
  7384  002A34  EF1E  F015         	goto	u6761
  7385  002A38  EF20  F015         	goto	u6760
  7386  002A3C                     u6761:
  7387  002A3C  EF37  F015         	goto	l5603
  7388  002A40                     u6760:
  7389  002A40  C029  F01E         	movff	___flmul@prod,??___flmul
  7390  002A44  C02A  F01F         	movff	___flmul@prod+1,??___flmul+1
  7391  002A48  C02B  F020         	movff	___flmul@prod+2,??___flmul+2
  7392  002A4C  C02C  F021         	movff	___flmul@prod+3,??___flmul+3
  7393  002A50  3421               	rlcf	(??___flmul+3)^0,w,c
  7394  002A52  3221               	rrcf	(??___flmul+3)^0,f,c
  7395  002A54  3220               	rrcf	(??___flmul+2)^0,f,c
  7396  002A56  321F               	rrcf	(??___flmul+1)^0,f,c
  7397  002A58  321E               	rrcf	??___flmul^0,f,c
  7398  002A5A  C01E  F029         	movff	??___flmul,___flmul@prod
  7399  002A5E  C01F  F02A         	movff	??___flmul+1,___flmul@prod+1
  7400  002A62  C020  F02B         	movff	??___flmul+2,___flmul@prod+2
  7401  002A66  C021  F02C         	movff	??___flmul+3,___flmul@prod+3
  7402  002A6A  4A2D               	infsnz	___flmul@temp^0,f,c
  7403  002A6C  2A2E               	incf	(___flmul@temp+1)^0,f,c
  7404  002A6E                     l5603:
  7405  002A6E  BE2E               	btfsc	(___flmul@temp+1)^0,7,c
  7406  002A70  EF42  F015         	goto	u6771
  7407  002A74  502E               	movf	(___flmul@temp+1)^0,w,c
  7408  002A76  E108               	bnz	u6770
  7409  002A78  282D               	incf	___flmul@temp^0,w,c
  7410  002A7A  A0D8               	btfss	status,0,c
  7411  002A7C  EF42  F015         	goto	u6771
  7412  002A80  EF44  F015         	goto	u6770
  7413  002A84                     u6771:
  7414  002A84  EF4E  F015         	goto	l5607
  7415  002A88                     u6770:
  7416  002A88  0E00               	movlw	0
  7417  002A8A  6E29               	movwf	___flmul@prod^0,c
  7418  002A8C  0E00               	movlw	0
  7419  002A8E  6E2A               	movwf	(___flmul@prod+1)^0,c
  7420  002A90  0E80               	movlw	128
  7421  002A92  6E2B               	movwf	(___flmul@prod+2)^0,c
  7422  002A94  0E7F               	movlw	127
  7423  002A96  6E2C               	movwf	(___flmul@prod+3)^0,c
  7424  002A98  EF7C  F015         	goto	l5619
  7425  002A9C                     l5607:
  7426  002A9C  BE2E               	btfsc	(___flmul@temp+1)^0,7,c
  7427  002A9E  EF5B  F015         	goto	u6780
  7428  002AA2  502E               	movf	(___flmul@temp+1)^0,w,c
  7429  002AA4  E106               	bnz	u6781
  7430  002AA6  042D               	decf	___flmul@temp^0,w,c
  7431  002AA8  B0D8               	btfsc	status,0,c
  7432  002AAA  EF59  F015         	goto	u6781
  7433  002AAE  EF5B  F015         	goto	u6780
  7434  002AB2                     u6781:
  7435  002AB2  EF67  F015         	goto	l1074
  7436  002AB6                     u6780:
  7437  002AB6  0E00               	movlw	0
  7438  002AB8  6E29               	movwf	___flmul@prod^0,c
  7439  002ABA  0E00               	movlw	0
  7440  002ABC  6E2A               	movwf	(___flmul@prod+1)^0,c
  7441  002ABE  0E00               	movlw	0
  7442  002AC0  6E2B               	movwf	(___flmul@prod+2)^0,c
  7443  002AC2  0E00               	movlw	0
  7444  002AC4  6E2C               	movwf	(___flmul@prod+3)^0,c
  7445  002AC6  0E00               	movlw	0
  7446  002AC8  6E22               	movwf	___flmul@sign^0,c
  7447  002ACA  EF7C  F015         	goto	l5619
  7448  002ACE                     l1074:
  7449  002ACE  C02D  F028         	movff	___flmul@temp,___flmul@bexp
  7450  002AD2  0EFF               	movlw	255
  7451  002AD4  1629               	andwf	___flmul@prod^0,f,c
  7452  002AD6  0EFF               	movlw	255
  7453  002AD8  162A               	andwf	(___flmul@prod+1)^0,f,c
  7454  002ADA  0E7F               	movlw	127
  7455  002ADC  162B               	andwf	(___flmul@prod+2)^0,f,c
  7456  002ADE  0E00               	movlw	0
  7457  002AE0  162C               	andwf	(___flmul@prod+3)^0,f,c
  7458  002AE2  A028               	btfss	___flmul@bexp^0,0,c
  7459  002AE4  EF76  F015         	goto	u6791
  7460  002AE8  EF78  F015         	goto	u6790
  7461  002AEC                     u6791:
  7462  002AEC  EF79  F015         	goto	l5617
  7463  002AF0                     u6790:
  7464  002AF0  8E2B               	bsf	(___flmul@prod+2)^0,7,c
  7465  002AF2                     l5617:
  7466  002AF2  90D8               	bcf	status,0,c
  7467  002AF4  3028               	rrcf	___flmul@bexp^0,w,c
  7468  002AF6  6E2C               	movwf	(___flmul@prod+3)^0,c
  7469  002AF8                     l5619:
  7470  002AF8  5022               	movf	___flmul@sign^0,w,c
  7471  002AFA  122C               	iorwf	(___flmul@prod+3)^0,f,c
  7472  002AFC  C029  F016         	movff	___flmul@prod,?___flmul
  7473  002B00  C02A  F017         	movff	___flmul@prod+1,?___flmul+1
  7474  002B04  C02B  F018         	movff	___flmul@prod+2,?___flmul+2
  7475  002B08  C02C  F019         	movff	___flmul@prod+3,?___flmul+3
  7476  002B0C                     l1061:
  7477  002B0C  0012               	return		;funcret
  7478  002B0E                     __end_of___flmul:
  7479                           	callstack 0
  7480                           
  7481 ;; *************** function ___flge *****************
  7482 ;; Defined at:
  7483 ;;		line 4 in file "C:\Program Files\Microchip\xc8\v2.32\pic\sources\c99\common\flge.c"
  7484 ;; Parameters:    Size  Location     Type
  7485 ;;  ff1             4   46[COMRAM] unsigned char 
  7486 ;;  ff2             4   50[COMRAM] unsigned char 
  7487 ;; Auto vars:     Size  Location     Type
  7488 ;;		None
  7489 ;; Return value:  Size  Location     Type
  7490 ;;		None               void
  7491 ;; Registers used:
  7492 ;;		wreg, status,2, status,0
  7493 ;; Tracked objects:
  7494 ;;		On entry : 0/0
  7495 ;;		On exit  : 0/0
  7496 ;;		Unchanged: 0/0
  7497 ;; Data sizes:     COMRAM   BANK0   BANK1   BANK2   BANK3   BANK4   BANK5   BANK6   BANK7   BANK8   BANK9  BANK10  BANK1
      +1  BANK12  BANK13  BANK14  BANK15
  7498 ;;      Params:         8       0       0       0       0       0       0       0       0       0       0       0       
      +0       0       0       0       0
  7499 ;;      Locals:         0       0       0       0       0       0       0       0       0       0       0       0       
      +0       0       0       0       0
  7500 ;;      Temps:          4       0       0       0       0       0       0       0       0       0       0       0       
      +0       0       0       0       0
  7501 ;;      Totals:        12       0       0       0       0       0       0       0       0       0       0       0       
      +0       0       0       0       0
  7502 ;;Total ram usage:       12 bytes
  7503 ;; Hardware stack levels used: 1
  7504 ;; Hardware stack levels required when called: 5
  7505 ;; This function calls:
  7506 ;;		Nothing
  7507 ;; This function is called by:
  7508 ;;		_handleADC
  7509 ;;		_efgtoa
  7510 ;; This function uses a non-reentrant model
  7511 ;;
  7512                           
  7513                           	psect	text26
  7514  0037D0                     __ptext26:
  7515                           	callstack 0
  7516  0037D0                     ___flge:
  7517                           	callstack 20
  7518  0037D0  0E00               	movlw	0
  7519  0037D2  142F               	andwf	___flge@ff1^0,w,c
  7520  0037D4  6E37               	movwf	??___flge^0,c
  7521  0037D6  0E00               	movlw	0
  7522  0037D8  1430               	andwf	(___flge@ff1+1)^0,w,c
  7523  0037DA  6E38               	movwf	(??___flge+1)^0,c
  7524  0037DC  0E80               	movlw	128
  7525  0037DE  1431               	andwf	(___flge@ff1+2)^0,w,c
  7526  0037E0  6E39               	movwf	(??___flge+2)^0,c
  7527  0037E2  0E7F               	movlw	127
  7528  0037E4  1432               	andwf	(___flge@ff1+3)^0,w,c
  7529  0037E6  6E3A               	movwf	(??___flge+3)^0,c
  7530  0037E8  5037               	movf	??___flge^0,w,c
  7531  0037EA  1038               	iorwf	(??___flge+1)^0,w,c
  7532  0037EC  1039               	iorwf	(??___flge+2)^0,w,c
  7533  0037EE  103A               	iorwf	(??___flge+3)^0,w,c
  7534  0037F0  A4D8               	btfss	status,2,c
  7535  0037F2  EFFD  F01B         	goto	u6951
  7536  0037F6  EFFF  F01B         	goto	u6950
  7537  0037FA                     u6951:
  7538  0037FA  EF07  F01C         	goto	l5731
  7539  0037FE                     u6950:
  7540  0037FE  0E00               	movlw	0
  7541  003800  6E2F               	movwf	___flge@ff1^0,c
  7542  003802  0E00               	movlw	0
  7543  003804  6E30               	movwf	(___flge@ff1+1)^0,c
  7544  003806  0E00               	movlw	0
  7545  003808  6E31               	movwf	(___flge@ff1+2)^0,c
  7546  00380A  0E00               	movlw	0
  7547  00380C  6E32               	movwf	(___flge@ff1+3)^0,c
  7548  00380E                     l5731:
  7549  00380E  0E00               	movlw	0
  7550  003810  1433               	andwf	___flge@ff2^0,w,c
  7551  003812  6E37               	movwf	??___flge^0,c
  7552  003814  0E00               	movlw	0
  7553  003816  1434               	andwf	(___flge@ff2+1)^0,w,c
  7554  003818  6E38               	movwf	(??___flge+1)^0,c
  7555  00381A  0E80               	movlw	128
  7556  00381C  1435               	andwf	(___flge@ff2+2)^0,w,c
  7557  00381E  6E39               	movwf	(??___flge+2)^0,c
  7558  003820  0E7F               	movlw	127
  7559  003822  1436               	andwf	(___flge@ff2+3)^0,w,c
  7560  003824  6E3A               	movwf	(??___flge+3)^0,c
  7561  003826  5037               	movf	??___flge^0,w,c
  7562  003828  1038               	iorwf	(??___flge+1)^0,w,c
  7563  00382A  1039               	iorwf	(??___flge+2)^0,w,c
  7564  00382C  103A               	iorwf	(??___flge+3)^0,w,c
  7565  00382E  A4D8               	btfss	status,2,c
  7566  003830  EF1C  F01C         	goto	u6961
  7567  003834  EF1E  F01C         	goto	u6960
  7568  003838                     u6961:
  7569  003838  EF26  F01C         	goto	l5735
  7570  00383C                     u6960:
  7571  00383C  0E00               	movlw	0
  7572  00383E  6E33               	movwf	___flge@ff2^0,c
  7573  003840  0E00               	movlw	0
  7574  003842  6E34               	movwf	(___flge@ff2+1)^0,c
  7575  003844  0E00               	movlw	0
  7576  003846  6E35               	movwf	(___flge@ff2+2)^0,c
  7577  003848  0E00               	movlw	0
  7578  00384A  6E36               	movwf	(___flge@ff2+3)^0,c
  7579  00384C                     l5735:
  7580  00384C  AE32               	btfss	(___flge@ff1+3)^0,7,c
  7581  00384E  EF2B  F01C         	goto	u6971
  7582  003852  EF2D  F01C         	goto	u6970
  7583  003856                     u6971:
  7584  003856  EF36  F01C         	goto	l5739
  7585  00385A                     u6970:
  7586  00385A  6C2F               	negf	___flge@ff1^0,c
  7587  00385C  1E30               	comf	(___flge@ff1+1)^0,f,c
  7588  00385E  B0D8               	btfsc	status,0,c
  7589  003860  2A30               	incf	(___flge@ff1+1)^0,f,c
  7590  003862  1E31               	comf	(___flge@ff1+2)^0,f,c
  7591  003864  B0D8               	btfsc	status,0,c
  7592  003866  2A31               	incf	(___flge@ff1+2)^0,f,c
  7593  003868  0E80               	movlw	128
  7594  00386A  5632               	subfwb	(___flge@ff1+3)^0,f,c
  7595  00386C                     l5739:
  7596  00386C  AE36               	btfss	(___flge@ff2+3)^0,7,c
  7597  00386E  EF3B  F01C         	goto	u6981
  7598  003872  EF3D  F01C         	goto	u6980
  7599  003876                     u6981:
  7600  003876  EF46  F01C         	goto	l708
  7601  00387A                     u6980:
  7602  00387A  6C33               	negf	___flge@ff2^0,c
  7603  00387C  1E34               	comf	(___flge@ff2+1)^0,f,c
  7604  00387E  B0D8               	btfsc	status,0,c
  7605  003880  2A34               	incf	(___flge@ff2+1)^0,f,c
  7606  003882  1E35               	comf	(___flge@ff2+2)^0,f,c
  7607  003884  B0D8               	btfsc	status,0,c
  7608  003886  2A35               	incf	(___flge@ff2+2)^0,f,c
  7609  003888  0E80               	movlw	128
  7610  00388A  5636               	subfwb	(___flge@ff2+3)^0,f,c
  7611  00388C                     l708:
  7612  00388C  0E00               	movlw	0
  7613  00388E  1A2F               	xorwf	___flge@ff1^0,f,c
  7614  003890  0E00               	movlw	0
  7615  003892  1A30               	xorwf	(___flge@ff1+1)^0,f,c
  7616  003894  0E00               	movlw	0
  7617  003896  1A31               	xorwf	(___flge@ff1+2)^0,f,c
  7618  003898  0E80               	movlw	128
  7619  00389A  1A32               	xorwf	(___flge@ff1+3)^0,f,c
  7620  00389C  0E00               	movlw	0
  7621  00389E  1A33               	xorwf	___flge@ff2^0,f,c
  7622  0038A0  0E00               	movlw	0
  7623  0038A2  1A34               	xorwf	(___flge@ff2+1)^0,f,c
  7624  0038A4  0E00               	movlw	0
  7625  0038A6  1A35               	xorwf	(___flge@ff2+2)^0,f,c
  7626  0038A8  0E80               	movlw	128
  7627  0038AA  1A36               	xorwf	(___flge@ff2+3)^0,f,c
  7628  0038AC  5033               	movf	___flge@ff2^0,w,c
  7629  0038AE  5C2F               	subwf	___flge@ff1^0,w,c
  7630  0038B0  5034               	movf	(___flge@ff2+1)^0,w,c
  7631  0038B2  5830               	subwfb	(___flge@ff1+1)^0,w,c
  7632  0038B4  5035               	movf	(___flge@ff2+2)^0,w,c
  7633  0038B6  5831               	subwfb	(___flge@ff1+2)^0,w,c
  7634  0038B8  5036               	movf	(___flge@ff2+3)^0,w,c
  7635  0038BA  5832               	subwfb	(___flge@ff1+3)^0,w,c
  7636  0038BC  B0D8               	btfsc	status,0,c
  7637  0038BE  EF63  F01C         	goto	u6991
  7638  0038C2  EF65  F01C         	goto	u6990
  7639  0038C6                     u6991:
  7640  0038C6  EF68  F01C         	goto	l5745
  7641  0038CA                     u6990:
  7642  0038CA  90D8               	bcf	status,0,c
  7643  0038CC  EF69  F01C         	goto	l713
  7644  0038D0                     l5745:
  7645  0038D0  80D8               	bsf	status,0,c
  7646  0038D2                     l713:
  7647  0038D2  0012               	return		;funcret
  7648  0038D4                     __end_of___flge:
  7649                           	callstack 0
  7650                           
  7651 ;; *************** function ___fleq *****************
  7652 ;; Defined at:
  7653 ;;		line 4 in file "C:\Program Files\Microchip\xc8\v2.32\pic\sources\c99\common\fleq.c"
  7654 ;; Parameters:    Size  Location     Type
  7655 ;;  ff1             4    7[COMRAM] unsigned char 
  7656 ;;  ff2             4   11[COMRAM] unsigned char 
  7657 ;; Auto vars:     Size  Location     Type
  7658 ;;		None
  7659 ;; Return value:  Size  Location     Type
  7660 ;;		None               void
  7661 ;; Registers used:
  7662 ;;		wreg, status,2, status,0
  7663 ;; Tracked objects:
  7664 ;;		On entry : 0/0
  7665 ;;		On exit  : 0/0
  7666 ;;		Unchanged: 0/0
  7667 ;; Data sizes:     COMRAM   BANK0   BANK1   BANK2   BANK3   BANK4   BANK5   BANK6   BANK7   BANK8   BANK9  BANK10  BANK1
      +1  BANK12  BANK13  BANK14  BANK15
  7668 ;;      Params:         8       0       0       0       0       0       0       0       0       0       0       0       
      +0       0       0       0       0
  7669 ;;      Locals:         0       0       0       0       0       0       0       0       0       0       0       0       
      +0       0       0       0       0
  7670 ;;      Temps:          4       0       0       0       0       0       0       0       0       0       0       0       
      +0       0       0       0       0
  7671 ;;      Totals:        12       0       0       0       0       0       0       0       0       0       0       0       
      +0       0       0       0       0
  7672 ;;Total ram usage:       12 bytes
  7673 ;; Hardware stack levels used: 1
  7674 ;; Hardware stack levels required when called: 5
  7675 ;; This function calls:
  7676 ;;		Nothing
  7677 ;; This function is called by:
  7678 ;;		_efgtoa
  7679 ;; This function uses a non-reentrant model
  7680 ;;
  7681                           
  7682                           	psect	text27
  7683  00418A                     __ptext27:
  7684                           	callstack 0
  7685  00418A                     ___fleq:
  7686                           	callstack 20
  7687  00418A  0E00               	movlw	0
  7688  00418C  1408               	andwf	___fleq@ff1^0,w,c
  7689  00418E  6E10               	movwf	??___fleq^0,c
  7690  004190  0E00               	movlw	0
  7691  004192  1409               	andwf	(___fleq@ff1+1)^0,w,c
  7692  004194  6E11               	movwf	(??___fleq+1)^0,c
  7693  004196  0E80               	movlw	128
  7694  004198  140A               	andwf	(___fleq@ff1+2)^0,w,c
  7695  00419A  6E12               	movwf	(??___fleq+2)^0,c
  7696  00419C  0E7F               	movlw	127
  7697  00419E  140B               	andwf	(___fleq@ff1+3)^0,w,c
  7698  0041A0  6E13               	movwf	(??___fleq+3)^0,c
  7699  0041A2  5010               	movf	??___fleq^0,w,c
  7700  0041A4  1011               	iorwf	(??___fleq+1)^0,w,c
  7701  0041A6  1012               	iorwf	(??___fleq+2)^0,w,c
  7702  0041A8  1013               	iorwf	(??___fleq+3)^0,w,c
  7703  0041AA  A4D8               	btfss	status,2,c
  7704  0041AC  EFDA  F020         	goto	u6921
  7705  0041B0  EFDC  F020         	goto	u6920
  7706  0041B4                     u6921:
  7707  0041B4  EFE4  F020         	goto	l5715
  7708  0041B8                     u6920:
  7709  0041B8  0E00               	movlw	0
  7710  0041BA  6E08               	movwf	___fleq@ff1^0,c
  7711  0041BC  0E00               	movlw	0
  7712  0041BE  6E09               	movwf	(___fleq@ff1+1)^0,c
  7713  0041C0  0E00               	movlw	0
  7714  0041C2  6E0A               	movwf	(___fleq@ff1+2)^0,c
  7715  0041C4  0E00               	movlw	0
  7716  0041C6  6E0B               	movwf	(___fleq@ff1+3)^0,c
  7717  0041C8                     l5715:
  7718  0041C8  0E00               	movlw	0
  7719  0041CA  140C               	andwf	___fleq@ff2^0,w,c
  7720  0041CC  6E10               	movwf	??___fleq^0,c
  7721  0041CE  0E00               	movlw	0
  7722  0041D0  140D               	andwf	(___fleq@ff2+1)^0,w,c
  7723  0041D2  6E11               	movwf	(??___fleq+1)^0,c
  7724  0041D4  0E80               	movlw	128
  7725  0041D6  140E               	andwf	(___fleq@ff2+2)^0,w,c
  7726  0041D8  6E12               	movwf	(??___fleq+2)^0,c
  7727  0041DA  0E7F               	movlw	127
  7728  0041DC  140F               	andwf	(___fleq@ff2+3)^0,w,c
  7729  0041DE  6E13               	movwf	(??___fleq+3)^0,c
  7730  0041E0  5010               	movf	??___fleq^0,w,c
  7731  0041E2  1011               	iorwf	(??___fleq+1)^0,w,c
  7732  0041E4  1012               	iorwf	(??___fleq+2)^0,w,c
  7733  0041E6  1013               	iorwf	(??___fleq+3)^0,w,c
  7734  0041E8  A4D8               	btfss	status,2,c
  7735  0041EA  EFF9  F020         	goto	u6931
  7736  0041EE  EFFB  F020         	goto	u6930
  7737  0041F2                     u6931:
  7738  0041F2  EF03  F021         	goto	l5719
  7739  0041F6                     u6930:
  7740  0041F6  0E00               	movlw	0
  7741  0041F8  6E0C               	movwf	___fleq@ff2^0,c
  7742  0041FA  0E00               	movlw	0
  7743  0041FC  6E0D               	movwf	(___fleq@ff2+1)^0,c
  7744  0041FE  0E00               	movlw	0
  7745  004200  6E0E               	movwf	(___fleq@ff2+2)^0,c
  7746  004202  0E00               	movlw	0
  7747  004204  6E0F               	movwf	(___fleq@ff2+3)^0,c
  7748  004206                     l5719:
  7749  004206  500C               	movf	___fleq@ff2^0,w,c
  7750  004208  1808               	xorwf	___fleq@ff1^0,w,c
  7751  00420A  E10F               	bnz	u6940
  7752  00420C  500D               	movf	(___fleq@ff2+1)^0,w,c
  7753  00420E  1809               	xorwf	(___fleq@ff1+1)^0,w,c
  7754  004210  E10C               	bnz	u6940
  7755  004212  500E               	movf	(___fleq@ff2+2)^0,w,c
  7756  004214  180A               	xorwf	(___fleq@ff1+2)^0,w,c
  7757  004216  E109               	bnz	u6940
  7758  004218  500F               	movf	(___fleq@ff2+3)^0,w,c
  7759  00421A  180B               	xorwf	(___fleq@ff1+3)^0,w,c
  7760  00421C  B4D8               	btfsc	status,2,c
  7761  00421E  EF13  F021         	goto	u6941
  7762  004222  EF15  F021         	goto	u6940
  7763  004226                     u6941:
  7764  004226  EF18  F021         	goto	l5723
  7765  00422A                     u6940:
  7766  00422A  90D8               	bcf	status,0,c
  7767  00422C  EF19  F021         	goto	l702
  7768  004230                     l5723:
  7769  004230  80D8               	bsf	status,0,c
  7770  004232                     l702:
  7771  004232  0012               	return		;funcret
  7772  004234                     __end_of___fleq:
  7773                           	callstack 0
  7774                           
  7775 ;; *************** function ___fldiv *****************
  7776 ;; Defined at:
  7777 ;;		line 11 in file "C:\Program Files\Microchip\xc8\v2.32\pic\sources\c99\common\sprcdiv.c"
  7778 ;; Parameters:    Size  Location     Type
  7779 ;;  b               4    7[COMRAM] unsigned char 
  7780 ;;  a               4   11[COMRAM] unsigned char 
  7781 ;; Auto vars:     Size  Location     Type
  7782 ;;  grs             4   26[COMRAM] unsigned long 
  7783 ;;  rem             4   19[COMRAM] unsigned long 
  7784 ;;  new_exp         2   24[COMRAM] short 
  7785 ;;  aexp            1   31[COMRAM] unsigned char 
  7786 ;;  bexp            1   30[COMRAM] unsigned char 
  7787 ;;  sign            1   23[COMRAM] unsigned char 
  7788 ;; Return value:  Size  Location     Type
  7789 ;;                  4    7[COMRAM] unsigned char 
  7790 ;; Registers used:
  7791 ;;		wreg, status,2, status,0
  7792 ;; Tracked objects:
  7793 ;;		On entry : 0/0
  7794 ;;		On exit  : 0/0
  7795 ;;		Unchanged: 0/0
  7796 ;; Data sizes:     COMRAM   BANK0   BANK1   BANK2   BANK3   BANK4   BANK5   BANK6   BANK7   BANK8   BANK9  BANK10  BANK1
      +1  BANK12  BANK13  BANK14  BANK15
  7797 ;;      Params:         8       0       0       0       0       0       0       0       0       0       0       0       
      +0       0       0       0       0
  7798 ;;      Locals:        13       0       0       0       0       0       0       0       0       0       0       0       
      +0       0       0       0       0
  7799 ;;      Temps:          4       0       0       0       0       0       0       0       0       0       0       0       
      +0       0       0       0       0
  7800 ;;      Totals:        25       0       0       0       0       0       0       0       0       0       0       0       
      +0       0       0       0       0
  7801 ;;Total ram usage:       25 bytes
  7802 ;; Hardware stack levels used: 1
  7803 ;; Hardware stack levels required when called: 5
  7804 ;; This function calls:
  7805 ;;		Nothing
  7806 ;; This function is called by:
  7807 ;;		_efgtoa
  7808 ;; This function uses a non-reentrant model
  7809 ;;
  7810                           
  7811                           	psect	text28
  7812  002B0E                     __ptext28:
  7813                           	callstack 0
  7814  002B0E                     ___fldiv:
  7815                           	callstack 20
  7816  002B0E  500B               	movf	(___fldiv@b+3)^0,w,c
  7817  002B10  0B80               	andlw	128
  7818  002B12  6E18               	movwf	___fldiv@sign^0,c
  7819  002B14  500B               	movf	(___fldiv@b+3)^0,w,c
  7820  002B16  240B               	addwf	(___fldiv@b+3)^0,w,c
  7821  002B18  6E1F               	movwf	___fldiv@bexp^0,c
  7822  002B1A  AE0A               	btfss	(___fldiv@b+2)^0,7,c
  7823  002B1C  EF92  F015         	goto	u6381
  7824  002B20  EF94  F015         	goto	u6380
  7825  002B24                     u6381:
  7826  002B24  EF95  F015         	goto	l5363
  7827  002B28                     u6380:
  7828  002B28  801F               	bsf	___fldiv@bexp^0,0,c
  7829  002B2A                     l5363:
  7830  002B2A  501F               	movf	___fldiv@bexp^0,w,c
  7831  002B2C  B4D8               	btfsc	status,2,c
  7832  002B2E  EF9B  F015         	goto	u6391
  7833  002B32  EF9D  F015         	goto	u6390
  7834  002B36                     u6391:
  7835  002B36  EFB2  F015         	goto	l5373
  7836  002B3A                     u6390:
  7837  002B3A  281F               	incf	___fldiv@bexp^0,w,c
  7838  002B3C  A4D8               	btfss	status,2,c
  7839  002B3E  EFA3  F015         	goto	u6401
  7840  002B42  EFA5  F015         	goto	u6400
  7841  002B46                     u6401:
  7842  002B46  EFAD  F015         	goto	l5369
  7843  002B4A                     u6400:
  7844  002B4A  0E00               	movlw	0
  7845  002B4C  6E08               	movwf	___fldiv@b^0,c
  7846  002B4E  0E00               	movlw	0
  7847  002B50  6E09               	movwf	(___fldiv@b+1)^0,c
  7848  002B52  0E00               	movlw	0
  7849  002B54  6E0A               	movwf	(___fldiv@b+2)^0,c
  7850  002B56  0E00               	movlw	0
  7851  002B58  6E0B               	movwf	(___fldiv@b+3)^0,c
  7852  002B5A                     l5369:
  7853  002B5A  8E0A               	bsf	(___fldiv@b+2)^0,7,c
  7854  002B5C  0E00               	movlw	0
  7855  002B5E  6E0B               	movwf	(___fldiv@b+3)^0,c
  7856  002B60  EFBA  F015         	goto	l5375
  7857  002B64                     l5373:
  7858  002B64  0E00               	movlw	0
  7859  002B66  6E08               	movwf	___fldiv@b^0,c
  7860  002B68  0E00               	movlw	0
  7861  002B6A  6E09               	movwf	(___fldiv@b+1)^0,c
  7862  002B6C  0E00               	movlw	0
  7863  002B6E  6E0A               	movwf	(___fldiv@b+2)^0,c
  7864  002B70  0E00               	movlw	0
  7865  002B72  6E0B               	movwf	(___fldiv@b+3)^0,c
  7866  002B74                     l5375:
  7867  002B74  500F               	movf	(___fldiv@a+3)^0,w,c
  7868  002B76  0B80               	andlw	128
  7869  002B78  1A18               	xorwf	___fldiv@sign^0,f,c
  7870  002B7A  500F               	movf	(___fldiv@a+3)^0,w,c
  7871  002B7C  240F               	addwf	(___fldiv@a+3)^0,w,c
  7872  002B7E  6E20               	movwf	___fldiv@aexp^0,c
  7873  002B80  AE0E               	btfss	(___fldiv@a+2)^0,7,c
  7874  002B82  EFC5  F015         	goto	u6411
  7875  002B86  EFC7  F015         	goto	u6410
  7876  002B8A                     u6411:
  7877  002B8A  EFC8  F015         	goto	l5383
  7878  002B8E                     u6410:
  7879  002B8E  8020               	bsf	___fldiv@aexp^0,0,c
  7880  002B90                     l5383:
  7881  002B90  5020               	movf	___fldiv@aexp^0,w,c
  7882  002B92  B4D8               	btfsc	status,2,c
  7883  002B94  EFCE  F015         	goto	u6421
  7884  002B98  EFD0  F015         	goto	u6420
  7885  002B9C                     u6421:
  7886  002B9C  EFE5  F015         	goto	l5393
  7887  002BA0                     u6420:
  7888  002BA0  2820               	incf	___fldiv@aexp^0,w,c
  7889  002BA2  A4D8               	btfss	status,2,c
  7890  002BA4  EFD6  F015         	goto	u6431
  7891  002BA8  EFD8  F015         	goto	u6430
  7892  002BAC                     u6431:
  7893  002BAC  EFE0  F015         	goto	l5389
  7894  002BB0                     u6430:
  7895  002BB0  0E00               	movlw	0
  7896  002BB2  6E0C               	movwf	___fldiv@a^0,c
  7897  002BB4  0E00               	movlw	0
  7898  002BB6  6E0D               	movwf	(___fldiv@a+1)^0,c
  7899  002BB8  0E00               	movlw	0
  7900  002BBA  6E0E               	movwf	(___fldiv@a+2)^0,c
  7901  002BBC  0E00               	movlw	0
  7902  002BBE  6E0F               	movwf	(___fldiv@a+3)^0,c
  7903  002BC0                     l5389:
  7904  002BC0  8E0E               	bsf	(___fldiv@a+2)^0,7,c
  7905  002BC2  0E00               	movlw	0
  7906  002BC4  6E0F               	movwf	(___fldiv@a+3)^0,c
  7907  002BC6  EFED  F015         	goto	l5395
  7908  002BCA                     l5393:
  7909  002BCA  0E00               	movlw	0
  7910  002BCC  6E0C               	movwf	___fldiv@a^0,c
  7911  002BCE  0E00               	movlw	0
  7912  002BD0  6E0D               	movwf	(___fldiv@a+1)^0,c
  7913  002BD2  0E00               	movlw	0
  7914  002BD4  6E0E               	movwf	(___fldiv@a+2)^0,c
  7915  002BD6  0E00               	movlw	0
  7916  002BD8  6E0F               	movwf	(___fldiv@a+3)^0,c
  7917  002BDA                     l5395:
  7918  002BDA  500C               	movf	___fldiv@a^0,w,c
  7919  002BDC  100D               	iorwf	(___fldiv@a+1)^0,w,c
  7920  002BDE  100E               	iorwf	(___fldiv@a+2)^0,w,c
  7921  002BE0  100F               	iorwf	(___fldiv@a+3)^0,w,c
  7922  002BE2  A4D8               	btfss	status,2,c
  7923  002BE4  EFF6  F015         	goto	u6441
  7924  002BE8  EFF8  F015         	goto	u6440
  7925  002BEC                     u6441:
  7926  002BEC  EF10  F016         	goto	l5407
  7927  002BF0                     u6440:
  7928  002BF0  0E00               	movlw	0
  7929  002BF2  6E08               	movwf	___fldiv@b^0,c
  7930  002BF4  0E00               	movlw	0
  7931  002BF6  6E09               	movwf	(___fldiv@b+1)^0,c
  7932  002BF8  0E00               	movlw	0
  7933  002BFA  6E0A               	movwf	(___fldiv@b+2)^0,c
  7934  002BFC  0E00               	movlw	0
  7935  002BFE  6E0B               	movwf	(___fldiv@b+3)^0,c
  7936  002C00  0E80               	movlw	128
  7937  002C02  120A               	iorwf	(___fldiv@b+2)^0,f,c
  7938  002C04  0E7F               	movlw	127
  7939  002C06  120B               	iorwf	(___fldiv@b+3)^0,f,c
  7940  002C08                     l5401:
  7941  002C08  5018               	movf	___fldiv@sign^0,w,c
  7942  002C0A  120B               	iorwf	(___fldiv@b+3)^0,f,c
  7943  002C0C  C008  F008         	movff	___fldiv@b,?___fldiv
  7944  002C10  C009  F009         	movff	___fldiv@b+1,?___fldiv+1
  7945  002C14  C00A  F00A         	movff	___fldiv@b+2,?___fldiv+2
  7946  002C18  C00B  F00B         	movff	___fldiv@b+3,?___fldiv+3
  7947  002C1C  EF53  F017         	goto	l1025
  7948  002C20                     l5407:
  7949  002C20  501F               	movf	___fldiv@bexp^0,w,c
  7950  002C22  A4D8               	btfss	status,2,c
  7951  002C24  EF16  F016         	goto	u6451
  7952  002C28  EF18  F016         	goto	u6450
  7953  002C2C                     u6451:
  7954  002C2C  EF22  F016         	goto	l5415
  7955  002C30                     u6450:
  7956  002C30  0E00               	movlw	0
  7957  002C32  6E08               	movwf	?___fldiv^0,c
  7958  002C34  0E00               	movlw	0
  7959  002C36  6E09               	movwf	(?___fldiv+1)^0,c
  7960  002C38  0E00               	movlw	0
  7961  002C3A  6E0A               	movwf	(?___fldiv+2)^0,c
  7962  002C3C  0E00               	movlw	0
  7963  002C3E  6E0B               	movwf	(?___fldiv+3)^0,c
  7964  002C40  EF53  F017         	goto	l1025
  7965  002C44                     l5415:
  7966  002C44  5020               	movf	___fldiv@aexp^0,w,c
  7967  002C46  C01F  F010         	movff	___fldiv@bexp,??___fldiv
  7968  002C4A  6A11               	clrf	(??___fldiv+1)^0,c
  7969  002C4C  5E10               	subwf	??___fldiv^0,f,c
  7970  002C4E  0E00               	movlw	0
  7971  002C50  5A11               	subwfb	(??___fldiv+1)^0,f,c
  7972  002C52  0E7F               	movlw	127
  7973  002C54  2410               	addwf	??___fldiv^0,w,c
  7974  002C56  6E19               	movwf	___fldiv@new_exp^0,c
  7975  002C58  0E00               	movlw	0
  7976  002C5A  2011               	addwfc	(??___fldiv+1)^0,w,c
  7977  002C5C  6E1A               	movwf	(___fldiv@new_exp+1)^0,c
  7978  002C5E  C008  F014         	movff	___fldiv@b,___fldiv@rem
  7979  002C62  C009  F015         	movff	___fldiv@b+1,___fldiv@rem+1
  7980  002C66  C00A  F016         	movff	___fldiv@b+2,___fldiv@rem+2
  7981  002C6A  C00B  F017         	movff	___fldiv@b+3,___fldiv@rem+3
  7982  002C6E  0E00               	movlw	0
  7983  002C70  6E08               	movwf	___fldiv@b^0,c
  7984  002C72  0E00               	movlw	0
  7985  002C74  6E09               	movwf	(___fldiv@b+1)^0,c
  7986  002C76  0E00               	movlw	0
  7987  002C78  6E0A               	movwf	(___fldiv@b+2)^0,c
  7988  002C7A  0E00               	movlw	0
  7989  002C7C  6E0B               	movwf	(___fldiv@b+3)^0,c
  7990  002C7E  0E00               	movlw	0
  7991  002C80  6E1B               	movwf	___fldiv@grs^0,c
  7992  002C82  0E00               	movlw	0
  7993  002C84  6E1C               	movwf	(___fldiv@grs+1)^0,c
  7994  002C86  0E00               	movlw	0
  7995  002C88  6E1D               	movwf	(___fldiv@grs+2)^0,c
  7996  002C8A  0E00               	movlw	0
  7997  002C8C  6E1E               	movwf	(___fldiv@grs+3)^0,c
  7998  002C8E  0E00               	movlw	0
  7999  002C90  6E20               	movwf	___fldiv@aexp^0,c
  8000  002C92  EF83  F016         	goto	l1027
  8001  002C96                     l5425:
  8002  002C96  5020               	movf	___fldiv@aexp^0,w,c
  8003  002C98  B4D8               	btfsc	status,2,c
  8004  002C9A  EF51  F016         	goto	u6461
  8005  002C9E  EF53  F016         	goto	u6460
  8006  002CA2                     u6461:
  8007  002CA2  EF6A  F016         	goto	l5433
  8008  002CA6                     u6460:
  8009  002CA6  90D8               	bcf	status,0,c
  8010  002CA8  3614               	rlcf	___fldiv@rem^0,f,c
  8011  002CAA  3615               	rlcf	(___fldiv@rem+1)^0,f,c
  8012  002CAC  3616               	rlcf	(___fldiv@rem+2)^0,f,c
  8013  002CAE  3617               	rlcf	(___fldiv@rem+3)^0,f,c
  8014  002CB0  90D8               	bcf	status,0,c
  8015  002CB2  3608               	rlcf	___fldiv@b^0,f,c
  8016  002CB4  3609               	rlcf	(___fldiv@b+1)^0,f,c
  8017  002CB6  360A               	rlcf	(___fldiv@b+2)^0,f,c
  8018  002CB8  360B               	rlcf	(___fldiv@b+3)^0,f,c
  8019  002CBA  AE1E               	btfss	(___fldiv@grs+3)^0,7,c
  8020  002CBC  EF62  F016         	goto	u6471
  8021  002CC0  EF64  F016         	goto	u6470
  8022  002CC4                     u6471:
  8023  002CC4  EF65  F016         	goto	l1030
  8024  002CC8                     u6470:
  8025  002CC8  8008               	bsf	___fldiv@b^0,0,c
  8026  002CCA                     l1030:
  8027  002CCA  90D8               	bcf	status,0,c
  8028  002CCC  361B               	rlcf	___fldiv@grs^0,f,c
  8029  002CCE  361C               	rlcf	(___fldiv@grs+1)^0,f,c
  8030  002CD0  361D               	rlcf	(___fldiv@grs+2)^0,f,c
  8031  002CD2  361E               	rlcf	(___fldiv@grs+3)^0,f,c
  8032  002CD4                     l5433:
  8033  002CD4  500C               	movf	___fldiv@a^0,w,c
  8034  002CD6  5C14               	subwf	___fldiv@rem^0,w,c
  8035  002CD8  500D               	movf	(___fldiv@a+1)^0,w,c
  8036  002CDA  5815               	subwfb	(___fldiv@rem+1)^0,w,c
  8037  002CDC  500E               	movf	(___fldiv@a+2)^0,w,c
  8038  002CDE  5816               	subwfb	(___fldiv@rem+2)^0,w,c
  8039  002CE0  500F               	movf	(___fldiv@a+3)^0,w,c
  8040  002CE2  5817               	subwfb	(___fldiv@rem+3)^0,w,c
  8041  002CE4  A0D8               	btfss	status,0,c
  8042  002CE6  EF77  F016         	goto	u6481
  8043  002CEA  EF79  F016         	goto	u6480
  8044  002CEE                     u6481:
  8045  002CEE  EF82  F016         	goto	l5439
  8046  002CF2                     u6480:
  8047  002CF2  8C1E               	bsf	(___fldiv@grs+3)^0,6,c
  8048  002CF4  500C               	movf	___fldiv@a^0,w,c
  8049  002CF6  5E14               	subwf	___fldiv@rem^0,f,c
  8050  002CF8  500D               	movf	(___fldiv@a+1)^0,w,c
  8051  002CFA  5A15               	subwfb	(___fldiv@rem+1)^0,f,c
  8052  002CFC  500E               	movf	(___fldiv@a+2)^0,w,c
  8053  002CFE  5A16               	subwfb	(___fldiv@rem+2)^0,f,c
  8054  002D00  500F               	movf	(___fldiv@a+3)^0,w,c
  8055  002D02  5A17               	subwfb	(___fldiv@rem+3)^0,f,c
  8056  002D04                     l5439:
  8057  002D04  2A20               	incf	___fldiv@aexp^0,f,c
  8058  002D06                     l1027:
  8059  002D06  0E19               	movlw	25
  8060  002D08  6420               	cpfsgt	___fldiv@aexp^0,c
  8061  002D0A  EF89  F016         	goto	u6491
  8062  002D0E  EF8B  F016         	goto	u6490
  8063  002D12                     u6491:
  8064  002D12  EF4B  F016         	goto	l5425
  8065  002D16                     u6490:
  8066  002D16  5014               	movf	___fldiv@rem^0,w,c
  8067  002D18  1015               	iorwf	(___fldiv@rem+1)^0,w,c
  8068  002D1A  1016               	iorwf	(___fldiv@rem+2)^0,w,c
  8069  002D1C  1017               	iorwf	(___fldiv@rem+3)^0,w,c
  8070  002D1E  B4D8               	btfsc	status,2,c
  8071  002D20  EF94  F016         	goto	u6501
  8072  002D24  EF96  F016         	goto	u6500
  8073  002D28                     u6501:
  8074  002D28  EFAE  F016         	goto	l5451
  8075  002D2C                     u6500:
  8076  002D2C  801B               	bsf	___fldiv@grs^0,0,c
  8077  002D2E  EFAE  F016         	goto	l5451
  8078  002D32                     l5445:
  8079  002D32  90D8               	bcf	status,0,c
  8080  002D34  3608               	rlcf	___fldiv@b^0,f,c
  8081  002D36  3609               	rlcf	(___fldiv@b+1)^0,f,c
  8082  002D38  360A               	rlcf	(___fldiv@b+2)^0,f,c
  8083  002D3A  360B               	rlcf	(___fldiv@b+3)^0,f,c
  8084  002D3C  AE1E               	btfss	(___fldiv@grs+3)^0,7,c
  8085  002D3E  EFA3  F016         	goto	u6511
  8086  002D42  EFA5  F016         	goto	u6510
  8087  002D46                     u6511:
  8088  002D46  EFA6  F016         	goto	l1036
  8089  002D4A                     u6510:
  8090  002D4A  8008               	bsf	___fldiv@b^0,0,c
  8091  002D4C                     l1036:
  8092  002D4C  90D8               	bcf	status,0,c
  8093  002D4E  361B               	rlcf	___fldiv@grs^0,f,c
  8094  002D50  361C               	rlcf	(___fldiv@grs+1)^0,f,c
  8095  002D52  361D               	rlcf	(___fldiv@grs+2)^0,f,c
  8096  002D54  361E               	rlcf	(___fldiv@grs+3)^0,f,c
  8097  002D56  0619               	decf	___fldiv@new_exp^0,f,c
  8098  002D58  A0D8               	btfss	status,0,c
  8099  002D5A  061A               	decf	(___fldiv@new_exp+1)^0,f,c
  8100  002D5C                     l5451:
  8101  002D5C  AE0A               	btfss	(___fldiv@b+2)^0,7,c
  8102  002D5E  EFB3  F016         	goto	u6521
  8103  002D62  EFB5  F016         	goto	u6520
  8104  002D66                     u6521:
  8105  002D66  EF99  F016         	goto	l5445
  8106  002D6A                     u6520:
  8107  002D6A  0E00               	movlw	0
  8108  002D6C  6E20               	movwf	___fldiv@aexp^0,c
  8109  002D6E  AE1E               	btfss	(___fldiv@grs+3)^0,7,c
  8110  002D70  EFBC  F016         	goto	u6531
  8111  002D74  EFBE  F016         	goto	u6530
  8112  002D78                     u6531:
  8113  002D78  EFE2  F016         	goto	l1038
  8114  002D7C                     u6530:
  8115  002D7C  0EFF               	movlw	255
  8116  002D7E  141B               	andwf	___fldiv@grs^0,w,c
  8117  002D80  6E10               	movwf	??___fldiv^0,c
  8118  002D82  0EFF               	movlw	255
  8119  002D84  141C               	andwf	(___fldiv@grs+1)^0,w,c
  8120  002D86  6E11               	movwf	(??___fldiv+1)^0,c
  8121  002D88  0EFF               	movlw	255
  8122  002D8A  141D               	andwf	(___fldiv@grs+2)^0,w,c
  8123  002D8C  6E12               	movwf	(??___fldiv+2)^0,c
  8124  002D8E  0E7F               	movlw	127
  8125  002D90  141E               	andwf	(___fldiv@grs+3)^0,w,c
  8126  002D92  6E13               	movwf	(??___fldiv+3)^0,c
  8127  002D94  5010               	movf	??___fldiv^0,w,c
  8128  002D96  1011               	iorwf	(??___fldiv+1)^0,w,c
  8129  002D98  1012               	iorwf	(??___fldiv+2)^0,w,c
  8130  002D9A  1013               	iorwf	(??___fldiv+3)^0,w,c
  8131  002D9C  B4D8               	btfsc	status,2,c
  8132  002D9E  EFD3  F016         	goto	u6541
  8133  002DA2  EFD5  F016         	goto	u6540
  8134  002DA6                     u6541:
  8135  002DA6  EFD9  F016         	goto	l1039
  8136  002DAA                     u6540:
  8137  002DAA                     l5459:
  8138  002DAA  0E01               	movlw	1
  8139  002DAC  6E20               	movwf	___fldiv@aexp^0,c
  8140  002DAE  EFE2  F016         	goto	l1038
  8141  002DB2                     l1039:
  8142  002DB2  A008               	btfss	___fldiv@b^0,0,c
  8143  002DB4  EFDE  F016         	goto	u6551
  8144  002DB8  EFE0  F016         	goto	u6550
  8145  002DBC                     u6551:
  8146  002DBC  EFE2  F016         	goto	l1038
  8147  002DC0                     u6550:
  8148  002DC0  EFD5  F016         	goto	l5459
  8149  002DC4                     l1038:
  8150  002DC4  5020               	movf	___fldiv@aexp^0,w,c
  8151  002DC6  B4D8               	btfsc	status,2,c
  8152  002DC8  EFE8  F016         	goto	u6561
  8153  002DCC  EFEA  F016         	goto	u6560
  8154  002DD0                     u6561:
  8155  002DD0  EF0E  F017         	goto	l5471
  8156  002DD4                     u6560:
  8157  002DD4  0E01               	movlw	1
  8158  002DD6  2608               	addwf	___fldiv@b^0,f,c
  8159  002DD8  0E00               	movlw	0
  8160  002DDA  2209               	addwfc	(___fldiv@b+1)^0,f,c
  8161  002DDC  220A               	addwfc	(___fldiv@b+2)^0,f,c
  8162  002DDE  220B               	addwfc	(___fldiv@b+3)^0,f,c
  8163  002DE0  A00B               	btfss	(___fldiv@b+3)^0,0,c
  8164  002DE2  EFF5  F016         	goto	u6571
  8165  002DE6  EFF7  F016         	goto	u6570
  8166  002DEA                     u6571:
  8167  002DEA  EF0E  F017         	goto	l5471
  8168  002DEE                     u6570:
  8169  002DEE  C008  F010         	movff	___fldiv@b,??___fldiv
  8170  002DF2  C009  F011         	movff	___fldiv@b+1,??___fldiv+1
  8171  002DF6  C00A  F012         	movff	___fldiv@b+2,??___fldiv+2
  8172  002DFA  C00B  F013         	movff	___fldiv@b+3,??___fldiv+3
  8173  002DFE  3413               	rlcf	(??___fldiv+3)^0,w,c
  8174  002E00  3213               	rrcf	(??___fldiv+3)^0,f,c
  8175  002E02  3212               	rrcf	(??___fldiv+2)^0,f,c
  8176  002E04  3211               	rrcf	(??___fldiv+1)^0,f,c
  8177  002E06  3210               	rrcf	??___fldiv^0,f,c
  8178  002E08  C010  F008         	movff	??___fldiv,___fldiv@b
  8179  002E0C  C011  F009         	movff	??___fldiv+1,___fldiv@b+1
  8180  002E10  C012  F00A         	movff	??___fldiv+2,___fldiv@b+2
  8181  002E14  C013  F00B         	movff	??___fldiv+3,___fldiv@b+3
  8182  002E18  4A19               	infsnz	___fldiv@new_exp^0,f,c
  8183  002E1A  2A1A               	incf	(___fldiv@new_exp+1)^0,f,c
  8184  002E1C                     l5471:
  8185  002E1C  BE1A               	btfsc	(___fldiv@new_exp+1)^0,7,c
  8186  002E1E  EF19  F017         	goto	u6581
  8187  002E22  501A               	movf	(___fldiv@new_exp+1)^0,w,c
  8188  002E24  E108               	bnz	u6580
  8189  002E26  2819               	incf	___fldiv@new_exp^0,w,c
  8190  002E28  A0D8               	btfss	status,0,c
  8191  002E2A  EF19  F017         	goto	u6581
  8192  002E2E  EF1B  F017         	goto	u6580
  8193  002E32                     u6581:
  8194  002E32  EF26  F017         	goto	l5475
  8195  002E36                     u6580:
  8196  002E36  0E00               	movlw	0
  8197  002E38  6E1A               	movwf	(___fldiv@new_exp+1)^0,c
  8198  002E3A  6819               	setf	___fldiv@new_exp^0,c
  8199  002E3C  0E00               	movlw	0
  8200  002E3E  6E08               	movwf	___fldiv@b^0,c
  8201  002E40  0E00               	movlw	0
  8202  002E42  6E09               	movwf	(___fldiv@b+1)^0,c
  8203  002E44  0E00               	movlw	0
  8204  002E46  6E0A               	movwf	(___fldiv@b+2)^0,c
  8205  002E48  0E00               	movlw	0
  8206  002E4A  6E0B               	movwf	(___fldiv@b+3)^0,c
  8207  002E4C                     l5475:
  8208  002E4C  BE1A               	btfsc	(___fldiv@new_exp+1)^0,7,c
  8209  002E4E  EF33  F017         	goto	u6590
  8210  002E52  501A               	movf	(___fldiv@new_exp+1)^0,w,c
  8211  002E54  E106               	bnz	u6591
  8212  002E56  0419               	decf	___fldiv@new_exp^0,w,c
  8213  002E58  B0D8               	btfsc	status,0,c
  8214  002E5A  EF31  F017         	goto	u6591
  8215  002E5E  EF33  F017         	goto	u6590
  8216  002E62                     u6591:
  8217  002E62  EF41  F017         	goto	l5479
  8218  002E66                     u6590:
  8219  002E66  0E00               	movlw	0
  8220  002E68  6E1A               	movwf	(___fldiv@new_exp+1)^0,c
  8221  002E6A  0E00               	movlw	0
  8222  002E6C  6E19               	movwf	___fldiv@new_exp^0,c
  8223  002E6E  0E00               	movlw	0
  8224  002E70  6E08               	movwf	___fldiv@b^0,c
  8225  002E72  0E00               	movlw	0
  8226  002E74  6E09               	movwf	(___fldiv@b+1)^0,c
  8227  002E76  0E00               	movlw	0
  8228  002E78  6E0A               	movwf	(___fldiv@b+2)^0,c
  8229  002E7A  0E00               	movlw	0
  8230  002E7C  6E0B               	movwf	(___fldiv@b+3)^0,c
  8231  002E7E  0E00               	movlw	0
  8232  002E80  6E18               	movwf	___fldiv@sign^0,c
  8233  002E82                     l5479:
  8234  002E82  C019  F01F         	movff	___fldiv@new_exp,___fldiv@bexp
  8235  002E86  A01F               	btfss	___fldiv@bexp^0,0,c
  8236  002E88  EF48  F017         	goto	u6601
  8237  002E8C  EF4A  F017         	goto	u6600
  8238  002E90                     u6601:
  8239  002E90  EF4D  F017         	goto	l5485
  8240  002E94                     u6600:
  8241  002E94  8E0A               	bsf	(___fldiv@b+2)^0,7,c
  8242  002E96  EF4E  F017         	goto	l5487
  8243  002E9A                     l5485:
  8244  002E9A  9E0A               	bcf	(___fldiv@b+2)^0,7,c
  8245  002E9C                     l5487:
  8246  002E9C  90D8               	bcf	status,0,c
  8247  002E9E  301F               	rrcf	___fldiv@bexp^0,w,c
  8248  002EA0  6E0B               	movwf	(___fldiv@b+3)^0,c
  8249  002EA2  EF04  F016         	goto	l5401
  8250  002EA6                     l1025:
  8251  002EA6  0012               	return		;funcret
  8252  002EA8                     __end_of___fldiv:
  8253                           	callstack 0
  8254                           
  8255 ;; *************** function ___awmod *****************
  8256 ;; Defined at:
  8257 ;;		line 7 in file "C:\Program Files\Microchip\xc8\v2.32\pic\sources\c99\common\awmod.c"
  8258 ;; Parameters:    Size  Location     Type
  8259 ;;  dividend        2    7[COMRAM] int 
  8260 ;;  divisor         2    9[COMRAM] int 
  8261 ;; Auto vars:     Size  Location     Type
  8262 ;;  sign            1   12[COMRAM] unsigned char 
  8263 ;;  counter         1   11[COMRAM] unsigned char 
  8264 ;; Return value:  Size  Location     Type
  8265 ;;                  2    7[COMRAM] int 
  8266 ;; Registers used:
  8267 ;;		wreg, status,2, status,0
  8268 ;; Tracked objects:
  8269 ;;		On entry : 0/0
  8270 ;;		On exit  : 0/0
  8271 ;;		Unchanged: 0/0
  8272 ;; Data sizes:     COMRAM   BANK0   BANK1   BANK2   BANK3   BANK4   BANK5   BANK6   BANK7   BANK8   BANK9  BANK10  BANK1
      +1  BANK12  BANK13  BANK14  BANK15
  8273 ;;      Params:         4       0       0       0       0       0       0       0       0       0       0       0       
      +0       0       0       0       0
  8274 ;;      Locals:         2       0       0       0       0       0       0       0       0       0       0       0       
      +0       0       0       0       0
  8275 ;;      Temps:          0       0       0       0       0       0       0       0       0       0       0       0       
      +0       0       0       0       0
  8276 ;;      Totals:         6       0       0       0       0       0       0       0       0       0       0       0       
      +0       0       0       0       0
  8277 ;;Total ram usage:        6 bytes
  8278 ;; Hardware stack levels used: 1
  8279 ;; Hardware stack levels required when called: 5
  8280 ;; This function calls:
  8281 ;;		Nothing
  8282 ;; This function is called by:
  8283 ;;		_efgtoa
  8284 ;; This function uses a non-reentrant model
  8285 ;;
  8286                           
  8287                           	psect	text29
  8288  00402A                     __ptext29:
  8289                           	callstack 0
  8290  00402A                     ___awmod:
  8291                           	callstack 20
  8292  00402A  0E00               	movlw	0
  8293  00402C  6E0D               	movwf	___awmod@sign^0,c
  8294  00402E  BE09               	btfsc	(___awmod@dividend+1)^0,7,c
  8295  004030  EF1E  F020         	goto	u6860
  8296  004034  EF1C  F020         	goto	u6861
  8297  004038                     u6861:
  8298  004038  EF24  F020         	goto	l5683
  8299  00403C                     u6860:
  8300  00403C  6C08               	negf	___awmod@dividend^0,c
  8301  00403E  1E09               	comf	(___awmod@dividend+1)^0,f,c
  8302  004040  B0D8               	btfsc	status,0,c
  8303  004042  2A09               	incf	(___awmod@dividend+1)^0,f,c
  8304  004044  0E01               	movlw	1
  8305  004046  6E0D               	movwf	___awmod@sign^0,c
  8306  004048                     l5683:
  8307  004048  BE0B               	btfsc	(___awmod@divisor+1)^0,7,c
  8308  00404A  EF2B  F020         	goto	u6870
  8309  00404E  EF29  F020         	goto	u6871
  8310  004052                     u6871:
  8311  004052  EF2F  F020         	goto	l5687
  8312  004056                     u6870:
  8313  004056  6C0A               	negf	___awmod@divisor^0,c
  8314  004058  1E0B               	comf	(___awmod@divisor+1)^0,f,c
  8315  00405A  B0D8               	btfsc	status,0,c
  8316  00405C  2A0B               	incf	(___awmod@divisor+1)^0,f,c
  8317  00405E                     l5687:
  8318  00405E  500A               	movf	___awmod@divisor^0,w,c
  8319  004060  100B               	iorwf	(___awmod@divisor+1)^0,w,c
  8320  004062  B4D8               	btfsc	status,2,c
  8321  004064  EF36  F020         	goto	u6881
  8322  004068  EF38  F020         	goto	u6880
  8323  00406C                     u6881:
  8324  00406C  EF5C  F020         	goto	l5703
  8325  004070                     u6880:
  8326  004070  0E01               	movlw	1
  8327  004072  6E0C               	movwf	___awmod@counter^0,c
  8328  004074  EF40  F020         	goto	l5693
  8329  004078                     l5691:
  8330  004078  90D8               	bcf	status,0,c
  8331  00407A  360A               	rlcf	___awmod@divisor^0,f,c
  8332  00407C  360B               	rlcf	(___awmod@divisor+1)^0,f,c
  8333  00407E  2A0C               	incf	___awmod@counter^0,f,c
  8334  004080                     l5693:
  8335  004080  AE0B               	btfss	(___awmod@divisor+1)^0,7,c
  8336  004082  EF45  F020         	goto	u6891
  8337  004086  EF47  F020         	goto	u6890
  8338  00408A                     u6891:
  8339  00408A  EF3C  F020         	goto	l5691
  8340  00408E                     u6890:
  8341  00408E                     l5695:
  8342  00408E  500A               	movf	___awmod@divisor^0,w,c
  8343  004090  5C08               	subwf	___awmod@dividend^0,w,c
  8344  004092  500B               	movf	(___awmod@divisor+1)^0,w,c
  8345  004094  5809               	subwfb	(___awmod@dividend+1)^0,w,c
  8346  004096  A0D8               	btfss	status,0,c
  8347  004098  EF50  F020         	goto	u6901
  8348  00409C  EF52  F020         	goto	u6900
  8349  0040A0                     u6901:
  8350  0040A0  EF56  F020         	goto	l5699
  8351  0040A4                     u6900:
  8352  0040A4  500A               	movf	___awmod@divisor^0,w,c
  8353  0040A6  5E08               	subwf	___awmod@dividend^0,f,c
  8354  0040A8  500B               	movf	(___awmod@divisor+1)^0,w,c
  8355  0040AA  5A09               	subwfb	(___awmod@dividend+1)^0,f,c
  8356  0040AC                     l5699:
  8357  0040AC  90D8               	bcf	status,0,c
  8358  0040AE  320B               	rrcf	(___awmod@divisor+1)^0,f,c
  8359  0040B0  320A               	rrcf	___awmod@divisor^0,f,c
  8360  0040B2  2E0C               	decfsz	___awmod@counter^0,f,c
  8361  0040B4  EF47  F020         	goto	l5695
  8362  0040B8                     l5703:
  8363  0040B8  500D               	movf	___awmod@sign^0,w,c
  8364  0040BA  B4D8               	btfsc	status,2,c
  8365  0040BC  EF62  F020         	goto	u6911
  8366  0040C0  EF64  F020         	goto	u6910
  8367  0040C4                     u6911:
  8368  0040C4  EF68  F020         	goto	l5707
  8369  0040C8                     u6910:
  8370  0040C8  6C08               	negf	___awmod@dividend^0,c
  8371  0040CA  1E09               	comf	(___awmod@dividend+1)^0,f,c
  8372  0040CC  B0D8               	btfsc	status,0,c
  8373  0040CE  2A09               	incf	(___awmod@dividend+1)^0,f,c
  8374  0040D0                     l5707:
  8375  0040D0  C008  F008         	movff	___awmod@dividend,?___awmod
  8376  0040D4  C009  F009         	movff	___awmod@dividend+1,?___awmod+1
  8377  0040D8  0012               	return		;funcret
  8378  0040DA                     __end_of___awmod:
  8379                           	callstack 0
  8380                           
  8381 ;; *************** function ___awdiv *****************
  8382 ;; Defined at:
  8383 ;;		line 7 in file "C:\Program Files\Microchip\xc8\v2.32\pic\sources\c99\common\awdiv.c"
  8384 ;; Parameters:    Size  Location     Type
  8385 ;;  dividend        2    7[COMRAM] int 
  8386 ;;  divisor         2    9[COMRAM] int 
  8387 ;; Auto vars:     Size  Location     Type
  8388 ;;  quotient        2   13[COMRAM] int 
  8389 ;;  sign            1   12[COMRAM] unsigned char 
  8390 ;;  counter         1   11[COMRAM] unsigned char 
  8391 ;; Return value:  Size  Location     Type
  8392 ;;                  2    7[COMRAM] int 
  8393 ;; Registers used:
  8394 ;;		wreg, status,2, status,0
  8395 ;; Tracked objects:
  8396 ;;		On entry : 0/0
  8397 ;;		On exit  : 0/0
  8398 ;;		Unchanged: 0/0
  8399 ;; Data sizes:     COMRAM   BANK0   BANK1   BANK2   BANK3   BANK4   BANK5   BANK6   BANK7   BANK8   BANK9  BANK10  BANK1
      +1  BANK12  BANK13  BANK14  BANK15
  8400 ;;      Params:         4       0       0       0       0       0       0       0       0       0       0       0       
      +0       0       0       0       0
  8401 ;;      Locals:         4       0       0       0       0       0       0       0       0       0       0       0       
      +0       0       0       0       0
  8402 ;;      Temps:          0       0       0       0       0       0       0       0       0       0       0       0       
      +0       0       0       0       0
  8403 ;;      Totals:         8       0       0       0       0       0       0       0       0       0       0       0       
      +0       0       0       0       0
  8404 ;;Total ram usage:        8 bytes
  8405 ;; Hardware stack levels used: 1
  8406 ;; Hardware stack levels required when called: 5
  8407 ;; This function calls:
  8408 ;;		Nothing
  8409 ;; This function is called by:
  8410 ;;		_efgtoa
  8411 ;; This function uses a non-reentrant model
  8412 ;;
  8413                           
  8414                           	psect	text30
  8415  003C7E                     __ptext30:
  8416                           	callstack 0
  8417  003C7E                     ___awdiv:
  8418                           	callstack 20
  8419  003C7E  0E00               	movlw	0
  8420  003C80  6E0D               	movwf	___awdiv@sign^0,c
  8421  003C82  BE0B               	btfsc	(___awdiv@divisor+1)^0,7,c
  8422  003C84  EF48  F01E         	goto	u6800
  8423  003C88  EF46  F01E         	goto	u6801
  8424  003C8C                     u6801:
  8425  003C8C  EF4E  F01E         	goto	l5639
  8426  003C90                     u6800:
  8427  003C90  6C0A               	negf	___awdiv@divisor^0,c
  8428  003C92  1E0B               	comf	(___awdiv@divisor+1)^0,f,c
  8429  003C94  B0D8               	btfsc	status,0,c
  8430  003C96  2A0B               	incf	(___awdiv@divisor+1)^0,f,c
  8431  003C98  0E01               	movlw	1
  8432  003C9A  6E0D               	movwf	___awdiv@sign^0,c
  8433  003C9C                     l5639:
  8434  003C9C  BE09               	btfsc	(___awdiv@dividend+1)^0,7,c
  8435  003C9E  EF55  F01E         	goto	u6810
  8436  003CA2  EF53  F01E         	goto	u6811
  8437  003CA6                     u6811:
  8438  003CA6  EF5B  F01E         	goto	l5645
  8439  003CAA                     u6810:
  8440  003CAA  6C08               	negf	___awdiv@dividend^0,c
  8441  003CAC  1E09               	comf	(___awdiv@dividend+1)^0,f,c
  8442  003CAE  B0D8               	btfsc	status,0,c
  8443  003CB0  2A09               	incf	(___awdiv@dividend+1)^0,f,c
  8444  003CB2  0E01               	movlw	1
  8445  003CB4  1A0D               	xorwf	___awdiv@sign^0,f,c
  8446  003CB6                     l5645:
  8447  003CB6  0E00               	movlw	0
  8448  003CB8  6E0F               	movwf	(___awdiv@quotient+1)^0,c
  8449  003CBA  0E00               	movlw	0
  8450  003CBC  6E0E               	movwf	___awdiv@quotient^0,c
  8451  003CBE  500A               	movf	___awdiv@divisor^0,w,c
  8452  003CC0  100B               	iorwf	(___awdiv@divisor+1)^0,w,c
  8453  003CC2  B4D8               	btfsc	status,2,c
  8454  003CC4  EF66  F01E         	goto	u6821
  8455  003CC8  EF68  F01E         	goto	u6820
  8456  003CCC                     u6821:
  8457  003CCC  EF90  F01E         	goto	l5667
  8458  003CD0                     u6820:
  8459  003CD0  0E01               	movlw	1
  8460  003CD2  6E0C               	movwf	___awdiv@counter^0,c
  8461  003CD4  EF70  F01E         	goto	l5653
  8462  003CD8                     l5651:
  8463  003CD8  90D8               	bcf	status,0,c
  8464  003CDA  360A               	rlcf	___awdiv@divisor^0,f,c
  8465  003CDC  360B               	rlcf	(___awdiv@divisor+1)^0,f,c
  8466  003CDE  2A0C               	incf	___awdiv@counter^0,f,c
  8467  003CE0                     l5653:
  8468  003CE0  AE0B               	btfss	(___awdiv@divisor+1)^0,7,c
  8469  003CE2  EF75  F01E         	goto	u6831
  8470  003CE6  EF77  F01E         	goto	u6830
  8471  003CEA                     u6831:
  8472  003CEA  EF6C  F01E         	goto	l5651
  8473  003CEE                     u6830:
  8474  003CEE                     l5655:
  8475  003CEE  90D8               	bcf	status,0,c
  8476  003CF0  360E               	rlcf	___awdiv@quotient^0,f,c
  8477  003CF2  360F               	rlcf	(___awdiv@quotient+1)^0,f,c
  8478  003CF4  500A               	movf	___awdiv@divisor^0,w,c
  8479  003CF6  5C08               	subwf	___awdiv@dividend^0,w,c
  8480  003CF8  500B               	movf	(___awdiv@divisor+1)^0,w,c
  8481  003CFA  5809               	subwfb	(___awdiv@dividend+1)^0,w,c
  8482  003CFC  A0D8               	btfss	status,0,c
  8483  003CFE  EF83  F01E         	goto	u6841
  8484  003D02  EF85  F01E         	goto	u6840
  8485  003D06                     u6841:
  8486  003D06  EF8A  F01E         	goto	l5663
  8487  003D0A                     u6840:
  8488  003D0A  500A               	movf	___awdiv@divisor^0,w,c
  8489  003D0C  5E08               	subwf	___awdiv@dividend^0,f,c
  8490  003D0E  500B               	movf	(___awdiv@divisor+1)^0,w,c
  8491  003D10  5A09               	subwfb	(___awdiv@dividend+1)^0,f,c
  8492  003D12  800E               	bsf	___awdiv@quotient^0,0,c
  8493  003D14                     l5663:
  8494  003D14  90D8               	bcf	status,0,c
  8495  003D16  320B               	rrcf	(___awdiv@divisor+1)^0,f,c
  8496  003D18  320A               	rrcf	___awdiv@divisor^0,f,c
  8497  003D1A  2E0C               	decfsz	___awdiv@counter^0,f,c
  8498  003D1C  EF77  F01E         	goto	l5655
  8499  003D20                     l5667:
  8500  003D20  500D               	movf	___awdiv@sign^0,w,c
  8501  003D22  B4D8               	btfsc	status,2,c
  8502  003D24  EF96  F01E         	goto	u6851
  8503  003D28  EF98  F01E         	goto	u6850
  8504  003D2C                     u6851:
  8505  003D2C  EF9C  F01E         	goto	l5671
  8506  003D30                     u6850:
  8507  003D30  6C0E               	negf	___awdiv@quotient^0,c
  8508  003D32  1E0F               	comf	(___awdiv@quotient+1)^0,f,c
  8509  003D34  B0D8               	btfsc	status,0,c
  8510  003D36  2A0F               	incf	(___awdiv@quotient+1)^0,f,c
  8511  003D38                     l5671:
  8512  003D38  C00E  F008         	movff	___awdiv@quotient,?___awdiv
  8513  003D3C  C00F  F009         	movff	___awdiv@quotient+1,?___awdiv+1
  8514  003D40  0012               	return		;funcret
  8515  003D42                     __end_of___awdiv:
  8516                           	callstack 0
  8517                           
  8518 ;; *************** function _atoi *****************
  8519 ;; Defined at:
  8520 ;;		line 4 in file "C:\Program Files\Microchip\xc8\v2.32\pic\sources\c99\common\atoi.c"
  8521 ;; Parameters:    Size  Location     Type
  8522 ;;  s               2   14[COMRAM] PTR const unsigned char 
  8523 ;;		 -> STR_2(6), STR_1(6), 
  8524 ;; Auto vars:     Size  Location     Type
  8525 ;;  n               2   27[COMRAM] int 
  8526 ;;  neg             2   20[COMRAM] int 
  8527 ;; Return value:  Size  Location     Type
  8528 ;;                  2   14[COMRAM] int 
  8529 ;; Registers used:
  8530 ;;		wreg, status,2, status,0, tblptrl, tblptrh, tblptru, prodl, prodh, cstack
  8531 ;; Tracked objects:
  8532 ;;		On entry : 0/0
  8533 ;;		On exit  : 0/0
  8534 ;;		Unchanged: 0/0
  8535 ;; Data sizes:     COMRAM   BANK0   BANK1   BANK2   BANK3   BANK4   BANK5   BANK6   BANK7   BANK8   BANK9  BANK10  BANK1
      +1  BANK12  BANK13  BANK14  BANK15
  8536 ;;      Params:         2       0       0       0       0       0       0       0       0       0       0       0       
      +0       0       0       0       0
  8537 ;;      Locals:         9       0       0       0       0       0       0       0       0       0       0       0       
      +0       0       0       0       0
  8538 ;;      Temps:          4       0       0       0       0       0       0       0       0       0       0       0       
      +0       0       0       0       0
  8539 ;;      Totals:        15       0       0       0       0       0       0       0       0       0       0       0       
      +0       0       0       0       0
  8540 ;;Total ram usage:       15 bytes
  8541 ;; Hardware stack levels used: 1
  8542 ;; Hardware stack levels required when called: 6
  8543 ;; This function calls:
  8544 ;;		___wmul
  8545 ;;		_isdigit
  8546 ;;		_isspace
  8547 ;; This function is called by:
  8548 ;;		_vfpfcnvrt
  8549 ;; This function uses a non-reentrant model
  8550 ;;
  8551                           
  8552                           	psect	text31
  8553  003414                     __ptext31:
  8554                           	callstack 0
  8555  003414                     _atoi:
  8556                           	callstack 20
  8557  003414  0E00               	movlw	0
  8558  003416  6E1D               	movwf	(atoi@n+1)^0,c
  8559  003418  0E00               	movlw	0
  8560  00341A  6E1C               	movwf	atoi@n^0,c
  8561  00341C  0E00               	movlw	0
  8562  00341E  6E16               	movwf	(atoi@neg+1)^0,c
  8563  003420  0E00               	movlw	0
  8564  003422  6E15               	movwf	atoi@neg^0,c
  8565  003424  EF16  F01A         	goto	l6211
  8566  003428                     l6209:
  8567  003428  4A0F               	infsnz	atoi@s^0,f,c
  8568  00342A  2A10               	incf	(atoi@s+1)^0,f,c
  8569  00342C                     l6211:
  8570  00342C  0E01               	movlw	1
  8571  00342E  6E1B               	movwf	_atoi$2366^0,c
  8572  003430  C00F  FFF6         	movff	atoi@s,tblptrl
  8573  003434  C010  FFF7         	movff	atoi@s+1,tblptrh
  8574  003438                     	if	0	;tblptru may be non-zero
  8575  003438                     	endif
  8576  003438                     	if	1	;Program memory is > 0xFFFF, there are 3 active tblptr bytes
  8577  003438  0E00               	movlw	low (__mediumconst shr (0+16))
  8578  00343A  6EF8               	movwf	tblptru,c
  8579  00343C                     	endif
  8580  00343C  0008               	tblrd		*
  8581  00343E  50F5               	movf	tablat,w,c
  8582  003440  0A20               	xorlw	32
  8583  003442  B4D8               	btfsc	status,2,c
  8584  003444  EF26  F01A         	goto	u7901
  8585  003448  EF28  F01A         	goto	u7900
  8586  00344C                     u7901:
  8587  00344C  EF47  F01A         	goto	l6219
  8588  003450                     u7900:
  8589  003450  0EF7               	movlw	247
  8590  003452  6E11               	movwf	??_atoi^0,c
  8591  003454  0EFF               	movlw	255
  8592  003456  6E12               	movwf	(??_atoi+1)^0,c
  8593  003458  C00F  FFF6         	movff	atoi@s,tblptrl
  8594  00345C  C010  FFF7         	movff	atoi@s+1,tblptrh
  8595  003460                     	if	0	;tblptru may be non-zero
  8596  003460                     	endif
  8597  003460                     	if	1	;Program memory is > 0xFFFF, there are 3 active tblptr bytes
  8598  003460  0E00               	movlw	low (__mediumconst shr (0+16))
  8599  003462  6EF8               	movwf	tblptru,c
  8600  003464                     	endif
  8601  003464  0008               	tblrd		*
  8602  003466  50F5               	movf	tablat,w,c
  8603  003468  6E13               	movwf	(??_atoi+2)^0,c
  8604  00346A  6A14               	clrf	(??_atoi+3)^0,c
  8605  00346C  5011               	movf	??_atoi^0,w,c
  8606  00346E  2613               	addwf	(??_atoi+2)^0,f,c
  8607  003470  5012               	movf	(??_atoi+1)^0,w,c
  8608  003472  2214               	addwfc	(??_atoi+3)^0,f,c
  8609  003474  5014               	movf	(??_atoi+3)^0,w,c
  8610  003476  E109               	bnz	u7910
  8611  003478  0E05               	movlw	5
  8612  00347A  5C13               	subwf	(??_atoi+2)^0,w,c
  8613  00347C  A0D8               	btfss	status,0,c
  8614  00347E  EF43  F01A         	goto	u7911
  8615  003482  EF45  F01A         	goto	u7910
  8616  003486                     u7911:
  8617  003486  EF47  F01A         	goto	l6219
  8618  00348A                     u7910:
  8619  00348A  0E00               	movlw	0
  8620  00348C  6E1B               	movwf	_atoi$2366^0,c
  8621  00348E                     l6219:
  8622  00348E  C01B  F017         	movff	_atoi$2366,_atoi$2365
  8623  003492  6A18               	clrf	(_atoi$2365+1)^0,c
  8624  003494  5017               	movf	_atoi$2365^0,w,c
  8625  003496  1018               	iorwf	(_atoi$2365+1)^0,w,c
  8626  003498  A4D8               	btfss	status,2,c
  8627  00349A  EF51  F01A         	goto	u7921
  8628  00349E  EF53  F01A         	goto	u7920
  8629  0034A2                     u7921:
  8630  0034A2  EF14  F01A         	goto	l6209
  8631  0034A6                     u7920:
  8632  0034A6  EF5D  F01A         	goto	l6229
  8633  0034AA                     l6225:
  8634  0034AA  0E00               	movlw	0
  8635  0034AC  6E16               	movwf	(atoi@neg+1)^0,c
  8636  0034AE  0E01               	movlw	1
  8637  0034B0  6E15               	movwf	atoi@neg^0,c
  8638  0034B2                     l6227:
  8639  0034B2  4A0F               	infsnz	atoi@s^0,f,c
  8640  0034B4  2A10               	incf	(atoi@s+1)^0,f,c
  8641  0034B6  EF96  F01A         	goto	l6235
  8642  0034BA                     l6229:
  8643  0034BA  C00F  FFF6         	movff	atoi@s,tblptrl
  8644  0034BE  C010  FFF7         	movff	atoi@s+1,tblptrh
  8645  0034C2                     	if	0	;tblptru may be non-zero
  8646  0034C2                     	endif
  8647  0034C2                     	if	1	;Program memory is > 0xFFFF, there are 3 active tblptr bytes
  8648  0034C2  0E00               	movlw	low (__mediumconst shr (0+16))
  8649  0034C4  6EF8               	movwf	tblptru,c
  8650  0034C6                     	endif
  8651  0034C6  0008               	tblrd		*
  8652  0034C8  50F5               	movf	tablat,w,c
  8653  0034CA  6E11               	movwf	??_atoi^0,c
  8654  0034CC  6A12               	clrf	(??_atoi+1)^0,c
  8655                           
  8656                           ; Switch on 2 bytes has been partitioned into a top level switch of size 1, and 1 sub-sw
      +                          itches
  8657                           ; Switch size 1, requested type "simple"
  8658                           ; Number of cases is 1, Range of values is 0 to 0
  8659                           ; switch strategies available:
  8660                           ; Name         Instructions Cycles
  8661                           ; simple_byte            4     3 (average)
  8662                           ;	Chosen strategy is simple_byte
  8663  0034CE  5012               	movf	(??_atoi+1)^0,w,c
  8664  0034D0  0A00               	xorlw	0	; case 0
  8665  0034D2  B4D8               	btfsc	status,2,c
  8666  0034D4  EF6E  F01A         	goto	l6525
  8667  0034D8  EF96  F01A         	goto	l6235
  8668  0034DC                     l6525:
  8669                           
  8670                           ; Switch size 1, requested type "simple"
  8671                           ; Number of cases is 2, Range of values is 43 to 45
  8672                           ; switch strategies available:
  8673                           ; Name         Instructions Cycles
  8674                           ; simple_byte            7     4 (average)
  8675                           ;	Chosen strategy is simple_byte
  8676  0034DC  5011               	movf	??_atoi^0,w,c
  8677  0034DE  0A2B               	xorlw	43	; case 43
  8678  0034E0  B4D8               	btfsc	status,2,c
  8679  0034E2  EF59  F01A         	goto	l6227
  8680  0034E6  0A06               	xorlw	6	; case 45
  8681  0034E8  B4D8               	btfsc	status,2,c
  8682  0034EA  EF55  F01A         	goto	l6225
  8683  0034EE  EF96  F01A         	goto	l6235
  8684  0034F2                     l6231:
  8685  0034F2  C01C  F008         	movff	atoi@n,___wmul@multiplier
  8686  0034F6  C01D  F009         	movff	atoi@n+1,___wmul@multiplier+1
  8687  0034FA  0E00               	movlw	0
  8688  0034FC  6E0B               	movwf	(___wmul@multiplicand+1)^0,c
  8689  0034FE  0E0A               	movlw	10
  8690  003500  6E0A               	movwf	___wmul@multiplicand^0,c
  8691  003502  EC9A  F024         	call	___wmul	;wreg free
  8692  003506  C00F  FFF6         	movff	atoi@s,tblptrl
  8693  00350A  C010  FFF7         	movff	atoi@s+1,tblptrh
  8694  00350E                     	if	0	;tblptru may be non-zero
  8695  00350E                     	endif
  8696  00350E                     	if	1	;Program memory is > 0xFFFF, there are 3 active tblptr bytes
  8697  00350E  0E00               	movlw	low (__mediumconst shr (0+16))
  8698  003510  6EF8               	movwf	tblptru,c
  8699  003512                     	endif
  8700  003512  0008               	tblrd		*
  8701  003514  50F5               	movf	tablat,w,c
  8702  003516  5E08               	subwf	?___wmul^0,f,c
  8703  003518  0E00               	movlw	0
  8704  00351A  5A09               	subwfb	(?___wmul+1)^0,f,c
  8705  00351C  0E30               	movlw	48
  8706  00351E  2408               	addwf	?___wmul^0,w,c
  8707  003520  6E1C               	movwf	atoi@n^0,c
  8708  003522  0E00               	movlw	0
  8709  003524  2009               	addwfc	(?___wmul+1)^0,w,c
  8710  003526  6E1D               	movwf	(atoi@n+1)^0,c
  8711  003528  EF59  F01A         	goto	l6227
  8712  00352C                     l6235:
  8713  00352C  0ED0               	movlw	208
  8714  00352E  6E11               	movwf	??_atoi^0,c
  8715  003530  0EFF               	movlw	255
  8716  003532  6E12               	movwf	(??_atoi+1)^0,c
  8717  003534  C00F  FFF6         	movff	atoi@s,tblptrl
  8718  003538  C010  FFF7         	movff	atoi@s+1,tblptrh
  8719  00353C                     	if	0	;tblptru may be non-zero
  8720  00353C                     	endif
  8721  00353C                     	if	1	;Program memory is > 0xFFFF, there are 3 active tblptr bytes
  8722  00353C  0E00               	movlw	low (__mediumconst shr (0+16))
  8723  00353E  6EF8               	movwf	tblptru,c
  8724  003540                     	endif
  8725  003540  0008               	tblrd		*
  8726  003542  50F5               	movf	tablat,w,c
  8727  003544  6E13               	movwf	(??_atoi+2)^0,c
  8728  003546  6A14               	clrf	(??_atoi+3)^0,c
  8729  003548  5011               	movf	??_atoi^0,w,c
  8730  00354A  2613               	addwf	(??_atoi+2)^0,f,c
  8731  00354C  5012               	movf	(??_atoi+1)^0,w,c
  8732  00354E  2214               	addwfc	(??_atoi+3)^0,f,c
  8733  003550  5014               	movf	(??_atoi+3)^0,w,c
  8734  003552  E10A               	bnz	u7930
  8735  003554  0E0A               	movlw	10
  8736  003556  5C13               	subwf	(??_atoi+2)^0,w,c
  8737  003558  A0D8               	btfss	status,0,c
  8738  00355A  EFB1  F01A         	goto	u7931
  8739  00355E  EFB4  F01A         	goto	u7930
  8740  003562                     u7931:
  8741  003562  0E01               	movlw	1
  8742  003564  EFB5  F01A         	goto	u7940
  8743  003568                     u7930:
  8744  003568  0E00               	movlw	0
  8745  00356A                     u7940:
  8746  00356A  6E19               	movwf	_atoi$2367^0,c
  8747  00356C  6A1A               	clrf	(_atoi$2367+1)^0,c
  8748  00356E  5019               	movf	_atoi$2367^0,w,c
  8749  003570  101A               	iorwf	(_atoi$2367+1)^0,w,c
  8750  003572  A4D8               	btfss	status,2,c
  8751  003574  EFBE  F01A         	goto	u7951
  8752  003578  EFC0  F01A         	goto	u7950
  8753  00357C                     u7951:
  8754  00357C  EF79  F01A         	goto	l6231
  8755  003580                     u7950:
  8756  003580  5015               	movf	atoi@neg^0,w,c
  8757  003582  1016               	iorwf	(atoi@neg+1)^0,w,c
  8758  003584  A4D8               	btfss	status,2,c
  8759  003586  EFC7  F01A         	goto	u7961
  8760  00358A  EFC9  F01A         	goto	u7960
  8761  00358E                     u7961:
  8762  00358E  EFD7  F01A         	goto	l1340
  8763  003592                     u7960:
  8764  003592  C01C  F011         	movff	atoi@n,??_atoi
  8765  003596  C01D  F012         	movff	atoi@n+1,??_atoi+1
  8766  00359A  1E11               	comf	??_atoi^0,f,c
  8767  00359C  1E12               	comf	(??_atoi+1)^0,f,c
  8768  00359E  4A11               	infsnz	??_atoi^0,f,c
  8769  0035A0  2A12               	incf	(??_atoi+1)^0,f,c
  8770  0035A2  C011  F00F         	movff	??_atoi,?_atoi
  8771  0035A6  C012  F010         	movff	??_atoi+1,?_atoi+1
  8772  0035AA  EFDB  F01A         	goto	l1343
  8773  0035AE                     l1340:
  8774  0035AE  C01C  F00F         	movff	atoi@n,?_atoi
  8775  0035B2  C01D  F010         	movff	atoi@n+1,?_atoi+1
  8776  0035B6                     l1343:
  8777  0035B6  0012               	return		;funcret
  8778  0035B8                     __end_of_atoi:
  8779                           	callstack 0
  8780                           
  8781 ;; *************** function _isspace *****************
  8782 ;; Defined at:
  8783 ;;		line 5 in file "C:\Program Files\Microchip\xc8\v2.32\pic\sources\c99\common\isspace.c"
  8784 ;; Parameters:    Size  Location     Type
  8785 ;;  c               2    7[COMRAM] int 
  8786 ;; Auto vars:     Size  Location     Type
  8787 ;;		None
  8788 ;; Return value:  Size  Location     Type
  8789 ;;                  2    7[COMRAM] int 
  8790 ;; Registers used:
  8791 ;;		wreg, status,2, status,0
  8792 ;; Tracked objects:
  8793 ;;		On entry : 0/0
  8794 ;;		On exit  : 0/0
  8795 ;;		Unchanged: 0/0
  8796 ;; Data sizes:     COMRAM   BANK0   BANK1   BANK2   BANK3   BANK4   BANK5   BANK6   BANK7   BANK8   BANK9  BANK10  BANK1
      +1  BANK12  BANK13  BANK14  BANK15
  8797 ;;      Params:         2       0       0       0       0       0       0       0       0       0       0       0       
      +0       0       0       0       0
  8798 ;;      Locals:         1       0       0       0       0       0       0       0       0       0       0       0       
      +0       0       0       0       0
  8799 ;;      Temps:          4       0       0       0       0       0       0       0       0       0       0       0       
      +0       0       0       0       0
  8800 ;;      Totals:         7       0       0       0       0       0       0       0       0       0       0       0       
      +0       0       0       0       0
  8801 ;;Total ram usage:        7 bytes
  8802 ;; Hardware stack levels used: 1
  8803 ;; Hardware stack levels required when called: 5
  8804 ;; This function calls:
  8805 ;;		Nothing
  8806 ;; This function is called by:
  8807 ;;		_atoi
  8808 ;; This function uses a non-reentrant model
  8809 ;;
  8810                           
  8811                           	psect	text32
  8812  004664                     __ptext32:
  8813                           	callstack 0
  8814  004664                     _isspace:
  8815                           	callstack 20
  8816  004664  0E01               	movlw	1
  8817  004666  6E0E               	movwf	_isspace$2396^0,c
  8818  004668  0E20               	movlw	32
  8819  00466A  1808               	xorwf	isspace@c^0,w,c
  8820  00466C  1009               	iorwf	(isspace@c+1)^0,w,c
  8821  00466E  B4D8               	btfsc	status,2,c
  8822  004670  EF3C  F023         	goto	u7341
  8823  004674  EF3E  F023         	goto	u7340
  8824  004678                     u7341:
  8825  004678  EF57  F023         	goto	l5895
  8826  00467C                     u7340:
  8827  00467C  0EF7               	movlw	247
  8828  00467E  6E0A               	movwf	??_isspace^0,c
  8829  004680  0EFF               	movlw	255
  8830  004682  6E0B               	movwf	(??_isspace+1)^0,c
  8831  004684  C008  F00C         	movff	isspace@c,??_isspace+2
  8832  004688  C009  F00D         	movff	isspace@c+1,??_isspace+3
  8833  00468C  500A               	movf	??_isspace^0,w,c
  8834  00468E  260C               	addwf	(??_isspace+2)^0,f,c
  8835  004690  500B               	movf	(??_isspace+1)^0,w,c
  8836  004692  220D               	addwfc	(??_isspace+3)^0,f,c
  8837  004694  500D               	movf	(??_isspace+3)^0,w,c
  8838  004696  E109               	bnz	u7350
  8839  004698  0E05               	movlw	5
  8840  00469A  5C0C               	subwf	(??_isspace+2)^0,w,c
  8841  00469C  A0D8               	btfss	status,0,c
  8842  00469E  EF53  F023         	goto	u7351
  8843  0046A2  EF55  F023         	goto	u7350
  8844  0046A6                     u7351:
  8845  0046A6  EF57  F023         	goto	l5895
  8846  0046AA                     u7350:
  8847  0046AA  0E00               	movlw	0
  8848  0046AC  6E0E               	movwf	_isspace$2396^0,c
  8849  0046AE                     l5895:
  8850  0046AE  C00E  F008         	movff	_isspace$2396,?_isspace
  8851  0046B2  6A09               	clrf	(?_isspace+1)^0,c
  8852  0046B4  0012               	return		;funcret
  8853  0046B6                     __end_of_isspace:
  8854                           	callstack 0
  8855                           
  8856 ;; *************** function _isdigit *****************
  8857 ;; Defined at:
  8858 ;;		line 5 in file "C:\Program Files\Microchip\xc8\v2.32\pic\sources\c99\common\isdigit.c"
  8859 ;; Parameters:    Size  Location     Type
  8860 ;;  c               2    7[COMRAM] int 
  8861 ;; Auto vars:     Size  Location     Type
  8862 ;;		None
  8863 ;; Return value:  Size  Location     Type
  8864 ;;                  2    7[COMRAM] int 
  8865 ;; Registers used:
  8866 ;;		wreg, status,2, status,0
  8867 ;; Tracked objects:
  8868 ;;		On entry : 0/0
  8869 ;;		On exit  : 0/0
  8870 ;;		Unchanged: 0/0
  8871 ;; Data sizes:     COMRAM   BANK0   BANK1   BANK2   BANK3   BANK4   BANK5   BANK6   BANK7   BANK8   BANK9  BANK10  BANK1
      +1  BANK12  BANK13  BANK14  BANK15
  8872 ;;      Params:         2       0       0       0       0       0       0       0       0       0       0       0       
      +0       0       0       0       0
  8873 ;;      Locals:         0       0       0       0       0       0       0       0       0       0       0       0       
      +0       0       0       0       0
  8874 ;;      Temps:          4       0       0       0       0       0       0       0       0       0       0       0       
      +0       0       0       0       0
  8875 ;;      Totals:         6       0       0       0       0       0       0       0       0       0       0       0       
      +0       0       0       0       0
  8876 ;;Total ram usage:        6 bytes
  8877 ;; Hardware stack levels used: 1
  8878 ;; Hardware stack levels required when called: 5
  8879 ;; This function calls:
  8880 ;;		Nothing
  8881 ;; This function is called by:
  8882 ;;		_vfpfcnvrt
  8883 ;;		_atoi
  8884 ;; This function uses a non-reentrant model
  8885 ;;
  8886                           
  8887                           	psect	text33
  8888  00488E                     __ptext33:
  8889                           	callstack 0
  8890  00488E                     _isdigit:
  8891                           	callstack 21
  8892  00488E  0ED0               	movlw	208
  8893  004890  6E0A               	movwf	??_isdigit^0,c
  8894  004892  0EFF               	movlw	255
  8895  004894  6E0B               	movwf	(??_isdigit+1)^0,c
  8896  004896  C008  F00C         	movff	isdigit@c,??_isdigit+2
  8897  00489A  C009  F00D         	movff	isdigit@c+1,??_isdigit+3
  8898  00489E  500A               	movf	??_isdigit^0,w,c
  8899  0048A0  260C               	addwf	(??_isdigit+2)^0,f,c
  8900  0048A2  500B               	movf	(??_isdigit+1)^0,w,c
  8901  0048A4  220D               	addwfc	(??_isdigit+3)^0,f,c
  8902  0048A6  500D               	movf	(??_isdigit+3)^0,w,c
  8903  0048A8  E10A               	bnz	u7320
  8904  0048AA  0E0A               	movlw	10
  8905  0048AC  5C0C               	subwf	(??_isdigit+2)^0,w,c
  8906  0048AE  A0D8               	btfss	status,0,c
  8907  0048B0  EF5C  F024         	goto	u7321
  8908  0048B4  EF5F  F024         	goto	u7320
  8909  0048B8                     u7321:
  8910  0048B8  0E01               	movlw	1
  8911  0048BA  EF60  F024         	goto	u7330
  8912  0048BE                     u7320:
  8913  0048BE  0E00               	movlw	0
  8914  0048C0                     u7330:
  8915  0048C0  6E08               	movwf	?_isdigit^0,c
  8916  0048C2  6A09               	clrf	(?_isdigit+1)^0,c
  8917  0048C4  0012               	return		;funcret
  8918  0048C6                     __end_of_isdigit:
  8919                           	callstack 0
  8920                           
  8921 ;; *************** function ___wmul *****************
  8922 ;; Defined at:
  8923 ;;		line 15 in file "C:\Program Files\Microchip\xc8\v2.32\pic\sources\c99\common\Umul16.c"
  8924 ;; Parameters:    Size  Location     Type
  8925 ;;  multiplier      2    7[COMRAM] unsigned int 
  8926 ;;  multiplicand    2    9[COMRAM] unsigned int 
  8927 ;; Auto vars:     Size  Location     Type
  8928 ;;  product         2   11[COMRAM] unsigned int 
  8929 ;; Return value:  Size  Location     Type
  8930 ;;                  2    7[COMRAM] unsigned int 
  8931 ;; Registers used:
  8932 ;;		wreg, status,2, status,0, prodl, prodh
  8933 ;; Tracked objects:
  8934 ;;		On entry : 0/0
  8935 ;;		On exit  : 0/0
  8936 ;;		Unchanged: 0/0
  8937 ;; Data sizes:     COMRAM   BANK0   BANK1   BANK2   BANK3   BANK4   BANK5   BANK6   BANK7   BANK8   BANK9  BANK10  BANK1
      +1  BANK12  BANK13  BANK14  BANK15
  8938 ;;      Params:         4       0       0       0       0       0       0       0       0       0       0       0       
      +0       0       0       0       0
  8939 ;;      Locals:         2       0       0       0       0       0       0       0       0       0       0       0       
      +0       0       0       0       0
  8940 ;;      Temps:          0       0       0       0       0       0       0       0       0       0       0       0       
      +0       0       0       0       0
  8941 ;;      Totals:         6       0       0       0       0       0       0       0       0       0       0       0       
      +0       0       0       0       0
  8942 ;;Total ram usage:        6 bytes
  8943 ;; Hardware stack levels used: 1
  8944 ;; Hardware stack levels required when called: 5
  8945 ;; This function calls:
  8946 ;;		Nothing
  8947 ;; This function is called by:
  8948 ;;		_atoi
  8949 ;; This function uses a non-reentrant model
  8950 ;;
  8951                           
  8952                           	psect	text34
  8953  004934                     __ptext34:
  8954                           	callstack 0
  8955  004934                     ___wmul:
  8956                           	callstack 20
  8957  004934  5008               	movf	___wmul@multiplier^0,w,c
  8958  004936  020A               	mulwf	___wmul@multiplicand^0,c
  8959  004938  CFF3 F00C          	movff	prodl,___wmul@product
  8960  00493C  CFF4 F00D          	movff	prodh,___wmul@product+1
  8961  004940  5008               	movf	___wmul@multiplier^0,w,c
  8962  004942  020B               	mulwf	(___wmul@multiplicand+1)^0,c
  8963  004944  50F3               	movf	243,w,c
  8964  004946  260D               	addwf	(___wmul@product+1)^0,f,c
  8965  004948  5009               	movf	(___wmul@multiplier+1)^0,w,c
  8966  00494A  020A               	mulwf	___wmul@multiplicand^0,c
  8967  00494C  50F3               	movf	243,w,c
  8968  00494E  260D               	addwf	(___wmul@product+1)^0,f,c
  8969  004950  C00C  F008         	movff	___wmul@product,?___wmul
  8970  004954  C00D  F009         	movff	___wmul@product+1,?___wmul+1
  8971  004958  0012               	return		;funcret
  8972  00495A                     __end_of___wmul:
  8973                           	callstack 0
  8974                           
  8975 ;; *************** function _readADC *****************
  8976 ;; Defined at:
  8977 ;;		line 498 in file "C:/Users/Will/Universal Documents/Academics/CU Boulder/2021/Fall 2021/Microavionics/Labs/Lab6/Watk
      +ins_William_Lab6_Part2.c"
  8978 ;; Parameters:    Size  Location     Type
  8979 ;;		None
  8980 ;; Auto vars:     Size  Location     Type
  8981 ;;		None
  8982 ;; Return value:  Size  Location     Type
  8983 ;;                  1    wreg      void 
  8984 ;; Registers used:
  8985 ;;		wreg, status,2, status,0
  8986 ;; Tracked objects:
  8987 ;;		On entry : 0/0
  8988 ;;		On exit  : 0/0
  8989 ;;		Unchanged: 0/0
  8990 ;; Data sizes:     COMRAM   BANK0   BANK1   BANK2   BANK3   BANK4   BANK5   BANK6   BANK7   BANK8   BANK9  BANK10  BANK1
      +1  BANK12  BANK13  BANK14  BANK15
  8991 ;;      Params:         0       0       0       0       0       0       0       0       0       0       0       0       
      +0       0       0       0       0
  8992 ;;      Locals:         0       0       0       0       0       0       0       0       0       0       0       0       
      +0       0       0       0       0
  8993 ;;      Temps:          0       0       0       0       0       0       0       0       0       0       0       0       
      +0       0       0       0       0
  8994 ;;      Totals:         0       0       0       0       0       0       0       0       0       0       0       0       
      +0       0       0       0       0
  8995 ;;Total ram usage:        0 bytes
  8996 ;; Hardware stack levels used: 1
  8997 ;; Hardware stack levels required when called: 5
  8998 ;; This function calls:
  8999 ;;		Nothing
  9000 ;; This function is called by:
  9001 ;;		_handleADC
  9002 ;; This function uses a non-reentrant model
  9003 ;;
  9004                           
  9005                           	psect	text35
  9006  0043BA                     __ptext35:
  9007                           	callstack 0
  9008  0043BA                     _readADC:
  9009                           	callstack 24
  9010  0043BA                     
  9011                           ;C:/Users/Will/Universal Documents/Academics/CU Boulder/2021/Fall 2021/Microavionics/Lab
      +                          s/Lab6/Watkins_William_Lab6_Part2.c: 499:     _delay((unsigned long)((4)*(16000000/40000
      +                          00.0)));
  9012  0043BA  0E05               	movlw	5
  9013  0043BC                     u8307:
  9014  0043BC  2EE8               	decfsz	wreg,f,c
  9015  0043BE  D7FE               	bra	u8307
  9016  0043C0  F000               	nop	
  9017  0043C2                     
  9018                           ;C:/Users/Will/Universal Documents/Academics/CU Boulder/2021/Fall 2021/Microavionics/Lab
      +                          s/Lab6/Watkins_William_Lab6_Part2.c: 500:     ADCON0bits.GO = 1;
  9019  0043C2  82C2               	bsf	194,1,c	;volatile
  9020  0043C4                     l327:
  9021  0043C4  B2C2               	btfsc	194,1,c	;volatile
  9022  0043C6  EFE7  F021         	goto	u5321
  9023  0043CA  EFE9  F021         	goto	u5320
  9024  0043CE                     u5321:
  9025  0043CE  EFE2  F021         	goto	l327
  9026  0043D2                     u5320:
  9027  0043D2                     
  9028                           ;C:/Users/Will/Universal Documents/Academics/CU Boulder/2021/Fall 2021/Microavionics/Lab
      +                          s/Lab6/Watkins_William_Lab6_Part2.c: 502:     trash = ADRES;
  9029  0043D2  CFC3 F0CA          	movff	4035,_trash	;volatile
  9030  0043D6  CFC4 F0CB          	movff	4036,_trash+1	;volatile
  9031                           
  9032                           ;C:/Users/Will/Universal Documents/Academics/CU Boulder/2021/Fall 2021/Microavionics/Lab
      +                          s/Lab6/Watkins_William_Lab6_Part2.c: 503:     ADCON0bits.GO = 1;
  9033  0043DA  82C2               	bsf	194,1,c	;volatile
  9034  0043DC                     l330:
  9035  0043DC  B2C2               	btfsc	194,1,c	;volatile
  9036  0043DE  EFF3  F021         	goto	u5331
  9037  0043E2  EFF5  F021         	goto	u5330
  9038  0043E6                     u5331:
  9039  0043E6  EFEE  F021         	goto	l330
  9040  0043EA                     u5330:
  9041  0043EA                     
  9042                           ;C:/Users/Will/Universal Documents/Academics/CU Boulder/2021/Fall 2021/Microavionics/Lab
      +                          s/Lab6/Watkins_William_Lab6_Part2.c: 505:     if (sensor != 1) {
  9043  0043EA  0100               	movlb	0	; () banked
  9044  0043EC  05E1               	decf	_sensor& (0+255),w,b
  9045  0043EE  B4D8               	btfsc	status,2,c
  9046  0043F0  EFFC  F021         	goto	u5341
  9047  0043F4  EFFE  F021         	goto	u5340
  9048  0043F8                     u5341:
  9049  0043F8  EF04  F022         	goto	l4635
  9050  0043FC                     u5340:
  9051  0043FC                     
  9052                           ; BSR set to: 0
  9053                           ;C:/Users/Will/Universal Documents/Academics/CU Boulder/2021/Fall 2021/Microavionics/Lab
      +                          s/Lab6/Watkins_William_Lab6_Part2.c: 506:         temperature = ADRES;
  9054  0043FC  CFC3 F0CE          	movff	4035,_temperature	;volatile
  9055  004400  CFC4 F0CF          	movff	4036,_temperature+1	;volatile
  9056                           
  9057                           ;C:/Users/Will/Universal Documents/Academics/CU Boulder/2021/Fall 2021/Microavionics/Lab
      +                          s/Lab6/Watkins_William_Lab6_Part2.c: 507:     }
  9058  004404  EF10  F022         	goto	l336
  9059  004408                     l4635:
  9060                           
  9061                           ; BSR set to: 0
  9062  004408  05E1               	decf	_sensor& (0+255),w,b
  9063  00440A  A4D8               	btfss	status,2,c
  9064  00440C  EF0A  F022         	goto	u5351
  9065  004410  EF0C  F022         	goto	u5350
  9066  004414                     u5351:
  9067  004414  EF10  F022         	goto	l336
  9068  004418                     u5350:
  9069  004418                     
  9070                           ; BSR set to: 0
  9071                           ;C:/Users/Will/Universal Documents/Academics/CU Boulder/2021/Fall 2021/Microavionics/Lab
      +                          s/Lab6/Watkins_William_Lab6_Part2.c: 509:         potentiometer = ADRES;
  9072  004418  CFC3 F0CC          	movff	4035,_potentiometer	;volatile
  9073  00441C  CFC4 F0CD          	movff	4036,_potentiometer+1	;volatile
  9074  004420                     l336:
  9075                           
  9076                           ; BSR set to: 0
  9077  004420  0012               	return		;funcret
  9078  004422                     __end_of_readADC:
  9079                           	callstack 0
  9080                           
  9081 ;; *************** function ___xxtofl *****************
  9082 ;; Defined at:
  9083 ;;		line 10 in file "C:\Program Files\Microchip\xc8\v2.32\pic\sources\c99\common\xxtofl.c"
  9084 ;; Parameters:    Size  Location     Type
  9085 ;;  sign            1    wreg     unsigned char 
  9086 ;;  val             4    7[COMRAM] long 
  9087 ;; Auto vars:     Size  Location     Type
  9088 ;;  sign            1   15[COMRAM] unsigned char 
  9089 ;;  arg             4   17[COMRAM] unsigned long 
  9090 ;;  exp             1   16[COMRAM] unsigned char 
  9091 ;; Return value:  Size  Location     Type
  9092 ;;                  4    7[COMRAM] unsigned char 
  9093 ;; Registers used:
  9094 ;;		wreg, status,2, status,0
  9095 ;; Tracked objects:
  9096 ;;		On entry : 0/0
  9097 ;;		On exit  : 0/0
  9098 ;;		Unchanged: 0/0
  9099 ;; Data sizes:     COMRAM   BANK0   BANK1   BANK2   BANK3   BANK4   BANK5   BANK6   BANK7   BANK8   BANK9  BANK10  BANK1
      +1  BANK12  BANK13  BANK14  BANK15
  9100 ;;      Params:         4       0       0       0       0       0       0       0       0       0       0       0       
      +0       0       0       0       0
  9101 ;;      Locals:         6       0       0       0       0       0       0       0       0       0       0       0       
      +0       0       0       0       0
  9102 ;;      Temps:          4       0       0       0       0       0       0       0       0       0       0       0       
      +0       0       0       0       0
  9103 ;;      Totals:        14       0       0       0       0       0       0       0       0       0       0       0       
      +0       0       0       0       0
  9104 ;;Total ram usage:       14 bytes
  9105 ;; Hardware stack levels used: 1
  9106 ;; Hardware stack levels required when called: 5
  9107 ;; This function calls:
  9108 ;;		Nothing
  9109 ;; This function is called by:
  9110 ;;		_handleADC
  9111 ;; This function uses a non-reentrant model
  9112 ;;
  9113                           
  9114                           	psect	text36
  9115  0030BA                     __ptext36:
  9116                           	callstack 0
  9117  0030BA                     ___xxtofl:
  9118                           	callstack 24
  9119                           
  9120                           ; BSR set to: 0
  9121                           ;incstack = 0
  9122                           ;___xxtofl@sign stored from wreg
  9123  0030BA  6E10               	movwf	___xxtofl@sign^0,c
  9124  0030BC  5010               	movf	___xxtofl@sign^0,w,c
  9125  0030BE  B4D8               	btfsc	status,2,c
  9126  0030C0  EF64  F018         	goto	u5441
  9127  0030C4  EF66  F018         	goto	u5440
  9128  0030C8                     u5441:
  9129  0030C8  EF88  F018         	goto	l1098
  9130  0030CC                     u5440:
  9131  0030CC  BE0B               	btfsc	(___xxtofl@val+3)^0,7,c
  9132  0030CE  EF6D  F018         	goto	u5450
  9133  0030D2  EF6B  F018         	goto	u5451
  9134  0030D6                     u5451:
  9135  0030D6  EF88  F018         	goto	l1098
  9136  0030DA                     u5450:
  9137  0030DA  C008  F00C         	movff	___xxtofl@val,??___xxtofl
  9138  0030DE  C009  F00D         	movff	___xxtofl@val+1,??___xxtofl+1
  9139  0030E2  C00A  F00E         	movff	___xxtofl@val+2,??___xxtofl+2
  9140  0030E6  C00B  F00F         	movff	___xxtofl@val+3,??___xxtofl+3
  9141  0030EA  1E0C               	comf	??___xxtofl^0,f,c
  9142  0030EC  1E0D               	comf	(??___xxtofl+1)^0,f,c
  9143  0030EE  1E0E               	comf	(??___xxtofl+2)^0,f,c
  9144  0030F0  1E0F               	comf	(??___xxtofl+3)^0,f,c
  9145  0030F2  2A0C               	incf	??___xxtofl^0,f,c
  9146  0030F4  0E00               	movlw	0
  9147  0030F6  220D               	addwfc	(??___xxtofl+1)^0,f,c
  9148  0030F8  220E               	addwfc	(??___xxtofl+2)^0,f,c
  9149  0030FA  220F               	addwfc	(??___xxtofl+3)^0,f,c
  9150  0030FC  C00C  F012         	movff	??___xxtofl,___xxtofl@arg
  9151  003100  C00D  F013         	movff	??___xxtofl+1,___xxtofl@arg+1
  9152  003104  C00E  F014         	movff	??___xxtofl+2,___xxtofl@arg+2
  9153  003108  C00F  F015         	movff	??___xxtofl+3,___xxtofl@arg+3
  9154  00310C  EF90  F018         	goto	l4713
  9155  003110                     l1098:
  9156  003110  C008  F012         	movff	___xxtofl@val,___xxtofl@arg
  9157  003114  C009  F013         	movff	___xxtofl@val+1,___xxtofl@arg+1
  9158  003118  C00A  F014         	movff	___xxtofl@val+2,___xxtofl@arg+2
  9159  00311C  C00B  F015         	movff	___xxtofl@val+3,___xxtofl@arg+3
  9160  003120                     l4713:
  9161  003120  5008               	movf	___xxtofl@val^0,w,c
  9162  003122  1009               	iorwf	(___xxtofl@val+1)^0,w,c
  9163  003124  100A               	iorwf	(___xxtofl@val+2)^0,w,c
  9164  003126  100B               	iorwf	(___xxtofl@val+3)^0,w,c
  9165  003128  A4D8               	btfss	status,2,c
  9166  00312A  EF99  F018         	goto	u5461
  9167  00312E  EF9B  F018         	goto	u5460
  9168  003132                     u5461:
  9169  003132  EFA5  F018         	goto	l4719
  9170  003136                     u5460:
  9171  003136  0E00               	movlw	0
  9172  003138  6E08               	movwf	?___xxtofl^0,c
  9173  00313A  0E00               	movlw	0
  9174  00313C  6E09               	movwf	(?___xxtofl+1)^0,c
  9175  00313E  0E00               	movlw	0
  9176  003140  6E0A               	movwf	(?___xxtofl+2)^0,c
  9177  003142  0E00               	movlw	0
  9178  003144  6E0B               	movwf	(?___xxtofl+3)^0,c
  9179  003146  EF36  F019         	goto	l1101
  9180  00314A                     l4719:
  9181  00314A  0E96               	movlw	150
  9182  00314C  6E11               	movwf	___xxtofl@exp^0,c
  9183  00314E  EFAF  F018         	goto	l4723
  9184  003152                     l4721:
  9185  003152  2A11               	incf	___xxtofl@exp^0,f,c
  9186  003154  90D8               	bcf	status,0,c
  9187  003156  3215               	rrcf	(___xxtofl@arg+3)^0,f,c
  9188  003158  3214               	rrcf	(___xxtofl@arg+2)^0,f,c
  9189  00315A  3213               	rrcf	(___xxtofl@arg+1)^0,f,c
  9190  00315C  3212               	rrcf	___xxtofl@arg^0,f,c
  9191  00315E                     l4723:
  9192  00315E  0E00               	movlw	0
  9193  003160  1412               	andwf	___xxtofl@arg^0,w,c
  9194  003162  6E0C               	movwf	??___xxtofl^0,c
  9195  003164  0E00               	movlw	0
  9196  003166  1413               	andwf	(___xxtofl@arg+1)^0,w,c
  9197  003168  6E0D               	movwf	(??___xxtofl+1)^0,c
  9198  00316A  0E00               	movlw	0
  9199  00316C  1414               	andwf	(___xxtofl@arg+2)^0,w,c
  9200  00316E  6E0E               	movwf	(??___xxtofl+2)^0,c
  9201  003170  0EFE               	movlw	254
  9202  003172  1415               	andwf	(___xxtofl@arg+3)^0,w,c
  9203  003174  6E0F               	movwf	(??___xxtofl+3)^0,c
  9204  003176  500C               	movf	??___xxtofl^0,w,c
  9205  003178  100D               	iorwf	(??___xxtofl+1)^0,w,c
  9206  00317A  100E               	iorwf	(??___xxtofl+2)^0,w,c
  9207  00317C  100F               	iorwf	(??___xxtofl+3)^0,w,c
  9208  00317E  A4D8               	btfss	status,2,c
  9209  003180  EFC4  F018         	goto	u5471
  9210  003184  EFC6  F018         	goto	u5470
  9211  003188                     u5471:
  9212  003188  EFA9  F018         	goto	l4721
  9213  00318C                     u5470:
  9214  00318C  EFD4  F018         	goto	l1105
  9215  003190                     l4725:
  9216  003190  2A11               	incf	___xxtofl@exp^0,f,c
  9217  003192  0E01               	movlw	1
  9218  003194  2612               	addwf	___xxtofl@arg^0,f,c
  9219  003196  0E00               	movlw	0
  9220  003198  2213               	addwfc	(___xxtofl@arg+1)^0,f,c
  9221  00319A  2214               	addwfc	(___xxtofl@arg+2)^0,f,c
  9222  00319C  2215               	addwfc	(___xxtofl@arg+3)^0,f,c
  9223  00319E  90D8               	bcf	status,0,c
  9224  0031A0  3215               	rrcf	(___xxtofl@arg+3)^0,f,c
  9225  0031A2  3214               	rrcf	(___xxtofl@arg+2)^0,f,c
  9226  0031A4  3213               	rrcf	(___xxtofl@arg+1)^0,f,c
  9227  0031A6  3212               	rrcf	___xxtofl@arg^0,f,c
  9228  0031A8                     l1105:
  9229  0031A8  0E00               	movlw	0
  9230  0031AA  1412               	andwf	___xxtofl@arg^0,w,c
  9231  0031AC  6E0C               	movwf	??___xxtofl^0,c
  9232  0031AE  0E00               	movlw	0
  9233  0031B0  1413               	andwf	(___xxtofl@arg+1)^0,w,c
  9234  0031B2  6E0D               	movwf	(??___xxtofl+1)^0,c
  9235  0031B4  0E00               	movlw	0
  9236  0031B6  1414               	andwf	(___xxtofl@arg+2)^0,w,c
  9237  0031B8  6E0E               	movwf	(??___xxtofl+2)^0,c
  9238  0031BA  0EFF               	movlw	255
  9239  0031BC  1415               	andwf	(___xxtofl@arg+3)^0,w,c
  9240  0031BE  6E0F               	movwf	(??___xxtofl+3)^0,c
  9241  0031C0  500C               	movf	??___xxtofl^0,w,c
  9242  0031C2  100D               	iorwf	(??___xxtofl+1)^0,w,c
  9243  0031C4  100E               	iorwf	(??___xxtofl+2)^0,w,c
  9244  0031C6  100F               	iorwf	(??___xxtofl+3)^0,w,c
  9245  0031C8  A4D8               	btfss	status,2,c
  9246  0031CA  EFE9  F018         	goto	u5481
  9247  0031CE  EFEB  F018         	goto	u5480
  9248  0031D2                     u5481:
  9249  0031D2  EFC8  F018         	goto	l4725
  9250  0031D6                     u5480:
  9251  0031D6  EFF3  F018         	goto	l4733
  9252  0031DA                     l4731:
  9253  0031DA  0611               	decf	___xxtofl@exp^0,f,c
  9254  0031DC  90D8               	bcf	status,0,c
  9255  0031DE  3612               	rlcf	___xxtofl@arg^0,f,c
  9256  0031E0  3613               	rlcf	(___xxtofl@arg+1)^0,f,c
  9257  0031E2  3614               	rlcf	(___xxtofl@arg+2)^0,f,c
  9258  0031E4  3615               	rlcf	(___xxtofl@arg+3)^0,f,c
  9259  0031E6                     l4733:
  9260  0031E6  BE14               	btfsc	(___xxtofl@arg+2)^0,7,c
  9261  0031E8  EFF8  F018         	goto	u5491
  9262  0031EC  EFFA  F018         	goto	u5490
  9263  0031F0                     u5491:
  9264  0031F0  EF02  F019         	goto	l1112
  9265  0031F4                     u5490:
  9266  0031F4  0E02               	movlw	2
  9267  0031F6  6011               	cpfslt	___xxtofl@exp^0,c
  9268  0031F8  EF00  F019         	goto	u5501
  9269  0031FC  EF02  F019         	goto	u5500
  9270  003200                     u5501:
  9271  003200  EFED  F018         	goto	l4731
  9272  003204                     u5500:
  9273  003204                     l1112:
  9274  003204  B011               	btfsc	___xxtofl@exp^0,0,c
  9275  003206  EF07  F019         	goto	u5511
  9276  00320A  EF09  F019         	goto	u5510
  9277  00320E                     u5511:
  9278  00320E  EF0A  F019         	goto	l4739
  9279  003212                     u5510:
  9280  003212  9E14               	bcf	(___xxtofl@arg+2)^0,7,c
  9281  003214                     l4739:
  9282  003214  90D8               	bcf	status,0,c
  9283  003216  3211               	rrcf	___xxtofl@exp^0,f,c
  9284  003218  C011  F00C         	movff	___xxtofl@exp,??___xxtofl
  9285  00321C  6A0D               	clrf	(??___xxtofl+1)^0,c
  9286  00321E  6A0E               	clrf	(??___xxtofl+2)^0,c
  9287  003220  6A0F               	clrf	(??___xxtofl+3)^0,c
  9288  003222  C00C  F00F         	movff	??___xxtofl,??___xxtofl+3
  9289  003226  6A0E               	clrf	(??___xxtofl+2)^0,c
  9290  003228  6A0D               	clrf	(??___xxtofl+1)^0,c
  9291  00322A  6A0C               	clrf	??___xxtofl^0,c
  9292  00322C  500C               	movf	??___xxtofl^0,w,c
  9293  00322E  1212               	iorwf	___xxtofl@arg^0,f,c
  9294  003230  500D               	movf	(??___xxtofl+1)^0,w,c
  9295  003232  1213               	iorwf	(___xxtofl@arg+1)^0,f,c
  9296  003234  500E               	movf	(??___xxtofl+2)^0,w,c
  9297  003236  1214               	iorwf	(___xxtofl@arg+2)^0,f,c
  9298  003238  500F               	movf	(??___xxtofl+3)^0,w,c
  9299  00323A  1215               	iorwf	(___xxtofl@arg+3)^0,f,c
  9300  00323C  5010               	movf	___xxtofl@sign^0,w,c
  9301  00323E  B4D8               	btfsc	status,2,c
  9302  003240  EF24  F019         	goto	u5521
  9303  003244  EF26  F019         	goto	u5520
  9304  003248                     u5521:
  9305  003248  EF2E  F019         	goto	l4749
  9306  00324C                     u5520:
  9307  00324C  BE0B               	btfsc	(___xxtofl@val+3)^0,7,c
  9308  00324E  EF2D  F019         	goto	u5530
  9309  003252  EF2B  F019         	goto	u5531
  9310  003256                     u5531:
  9311  003256  EF2E  F019         	goto	l4749
  9312  00325A                     u5530:
  9313  00325A  8E15               	bsf	(___xxtofl@arg+3)^0,7,c
  9314  00325C                     l4749:
  9315  00325C  C012  F008         	movff	___xxtofl@arg,?___xxtofl
  9316  003260  C013  F009         	movff	___xxtofl@arg+1,?___xxtofl+1
  9317  003264  C014  F00A         	movff	___xxtofl@arg+2,?___xxtofl+2
  9318  003268  C015  F00B         	movff	___xxtofl@arg+3,?___xxtofl+3
  9319  00326C                     l1101:
  9320  00326C  0012               	return		;funcret
  9321  00326E                     __end_of___xxtofl:
  9322                           	callstack 0
  9323                           
  9324 ;; *************** function _displayLCD *****************
  9325 ;; Defined at:
  9326 ;;		line 521 in file "C:/Users/Will/Universal Documents/Academics/CU Boulder/2021/Fall 2021/Microavionics/Labs/Lab6/Watk
      +ins_William_Lab6_Part2.c"
  9327 ;; Parameters:    Size  Location     Type
  9328 ;;		None
  9329 ;; Auto vars:     Size  Location     Type
  9330 ;;		None
  9331 ;; Return value:  Size  Location     Type
  9332 ;;                  1    wreg      void 
  9333 ;; Registers used:
  9334 ;;		wreg, fsr1l, fsr1h, fsr2l, fsr2h, status,2, status,0, tblptrl, tblptrh, tblptru, cstack
  9335 ;; Tracked objects:
  9336 ;;		On entry : 0/0
  9337 ;;		On exit  : 0/0
  9338 ;;		Unchanged: 0/0
  9339 ;; Data sizes:     COMRAM   BANK0   BANK1   BANK2   BANK3   BANK4   BANK5   BANK6   BANK7   BANK8   BANK9  BANK10  BANK1
      +1  BANK12  BANK13  BANK14  BANK15
  9340 ;;      Params:         0       0       0       0       0       0       0       0       0       0       0       0       
      +0       0       0       0       0
  9341 ;;      Locals:         0       0       0       0       0       0       0       0       0       0       0       0       
      +0       0       0       0       0
  9342 ;;      Temps:          0       0       0       0       0       0       0       0       0       0       0       0       
      +0       0       0       0       0
  9343 ;;      Totals:         0       0       0       0       0       0       0       0       0       0       0       0       
      +0       0       0       0       0
  9344 ;;Total ram usage:        0 bytes
  9345 ;; Hardware stack levels used: 1
  9346 ;; Hardware stack levels required when called: 7
  9347 ;; This function calls:
  9348 ;;		_DisplayC
  9349 ;; This function is called by:
  9350 ;;		_main
  9351 ;; This function uses a non-reentrant model
  9352 ;;
  9353                           
  9354                           	psect	text37
  9355  00499A                     __ptext37:
  9356                           	callstack 0
  9357  00499A                     _displayLCD:
  9358                           	callstack 23
  9359  00499A                     
  9360                           ;C:/Users/Will/Universal Documents/Academics/CU Boulder/2021/Fall 2021/Microavionics/Lab
      +                          s/Lab6/Watkins_William_Lab6_Part2.c: 522:     DisplayC(row1LCD);
  9361  00499A  0EB9               	movlw	low _row1LCD
  9362  00499C  6E12               	movwf	DisplayC@LCDStr^0,c
  9363  00499E  0E01               	movlw	high _row1LCD
  9364  0049A0  6E13               	movwf	(DisplayC@LCDStr+1)^0,c
  9365  0049A2  ECAD  F024         	call	_DisplayC	;wreg free
  9366                           
  9367                           ;C:/Users/Will/Universal Documents/Academics/CU Boulder/2021/Fall 2021/Microavionics/Lab
      +                          s/Lab6/Watkins_William_Lab6_Part2.c: 523:     DisplayC(row2LCD);
  9368  0049A6  0EAF               	movlw	low _row2LCD
  9369  0049A8  6E12               	movwf	DisplayC@LCDStr^0,c
  9370  0049AA  0E01               	movlw	high _row2LCD
  9371  0049AC  6E13               	movwf	(DisplayC@LCDStr+1)^0,c
  9372  0049AE  ECAD  F024         	call	_DisplayC	;wreg free
  9373  0049B2  0012               	return		;funcret
  9374  0049B4                     __end_of_displayLCD:
  9375                           	callstack 0
  9376                           
  9377 ;; *************** function _DisplayC *****************
  9378 ;; Defined at:
  9379 ;;		line 94 in file "../LCDroutinesEasyPic.c"
  9380 ;; Parameters:    Size  Location     Type
  9381 ;;  LCDStr          2   17[COMRAM] PTR const unsigned char 
  9382 ;;		 -> row1LCD(9), row2LCD(10), 
  9383 ;; Auto vars:     Size  Location     Type
  9384 ;;  temp           10   19[COMRAM] unsigned char [10]
  9385 ;; Return value:  Size  Location     Type
  9386 ;;                  1    wreg      void 
  9387 ;; Registers used:
  9388 ;;		wreg, fsr1l, fsr1h, fsr2l, fsr2h, status,2, status,0, tblptrl, tblptrh, tblptru, cstack
  9389 ;; Tracked objects:
  9390 ;;		On entry : 0/0
  9391 ;;		On exit  : 0/0
  9392 ;;		Unchanged: 0/0
  9393 ;; Data sizes:     COMRAM   BANK0   BANK1   BANK2   BANK3   BANK4   BANK5   BANK6   BANK7   BANK8   BANK9  BANK10  BANK1
      +1  BANK12  BANK13  BANK14  BANK15
  9394 ;;      Params:         2       0       0       0       0       0       0       0       0       0       0       0       
      +0       0       0       0       0
  9395 ;;      Locals:        10       0       0       0       0       0       0       0       0       0       0       0       
      +0       0       0       0       0
  9396 ;;      Temps:          0       0       0       0       0       0       0       0       0       0       0       0       
      +0       0       0       0       0
  9397 ;;      Totals:        12       0       0       0       0       0       0       0       0       0       0       0       
      +0       0       0       0       0
  9398 ;;Total ram usage:       12 bytes
  9399 ;; Hardware stack levels used: 1
  9400 ;; Hardware stack levels required when called: 6
  9401 ;; This function calls:
  9402 ;;		_DisplayV
  9403 ;;		_strcpy
  9404 ;; This function is called by:
  9405 ;;		_displayLCD
  9406 ;; This function uses a non-reentrant model
  9407 ;;
  9408                           
  9409                           	psect	text38
  9410  00495A                     __ptext38:
  9411                           	callstack 0
  9412  00495A                     _DisplayC:
  9413                           	callstack 23
  9414  00495A                     
  9415                           ;../LCDroutinesEasyPic.c: 95:     char temp[10];;../LCDroutinesEasyPic.c: 96:     strcpy
      +                          (temp,LCDStr);
  9416  00495A  0E14               	movlw	low DisplayC@temp
  9417  00495C  6E08               	movwf	strcpy@dest^0,c
  9418  00495E  0E00               	movlw	high DisplayC@temp
  9419  004960  6E09               	movwf	(strcpy@dest+1)^0,c
  9420  004962  C012  F00A         	movff	DisplayC@LCDStr,strcpy@src
  9421  004966  C013  F00B         	movff	DisplayC@LCDStr+1,strcpy@src+1
  9422  00496A  ECA8  F022         	call	_strcpy	;wreg free
  9423  00496E                     
  9424                           ;../LCDroutinesEasyPic.c: 97:     DisplayV(temp);
  9425  00496E  0E14               	movlw	low DisplayC@temp
  9426  004970  6E08               	movwf	DisplayV@LCDStr^0,c
  9427  004972  0E00               	movlw	high DisplayC@temp
  9428  004974  6E09               	movwf	(DisplayV@LCDStr+1)^0,c
  9429  004976  ECBB  F01F         	call	_DisplayV	;wreg free
  9430  00497A  0012               	return		;funcret
  9431  00497C                     __end_of_DisplayC:
  9432                           	callstack 0
  9433                           
  9434 ;; *************** function _strcpy *****************
  9435 ;; Defined at:
  9436 ;;		line 3 in file "C:\Program Files\Microchip\xc8\v2.32\pic\sources\c99\common\strcpy.c"
  9437 ;; Parameters:    Size  Location     Type
  9438 ;;  dest            2    7[COMRAM] PTR unsigned char 
  9439 ;;		 -> dbuf(80), DisplayC@temp(10), 
  9440 ;;  src             2    9[COMRAM] PTR const unsigned char 
  9441 ;;		 -> STR_8(4), STR_7(4), STR_4(4), STR_3(4), 
  9442 ;;		 -> dbuf(80), row1LCD(9), row2LCD(10), 
  9443 ;; Auto vars:     Size  Location     Type
  9444 ;;  d               2   15[COMRAM] PTR unsigned char 
  9445 ;;		 -> dbuf(80), DisplayC@temp(10), 
  9446 ;;  s               2   13[COMRAM] PTR const unsigned char 
  9447 ;;		 -> STR_8(4), STR_7(4), STR_4(4), STR_3(4), 
  9448 ;;		 -> dbuf(80), row1LCD(9), row2LCD(10), 
  9449 ;; Return value:  Size  Location     Type
  9450 ;;                  2    7[COMRAM] PTR unsigned char 
  9451 ;; Registers used:
  9452 ;;		wreg, fsr1l, fsr1h, fsr2l, fsr2h, status,2, status,0, tblptrl, tblptrh, tblptru
  9453 ;; Tracked objects:
  9454 ;;		On entry : 0/0
  9455 ;;		On exit  : 0/0
  9456 ;;		Unchanged: 0/0
  9457 ;; Data sizes:     COMRAM   BANK0   BANK1   BANK2   BANK3   BANK4   BANK5   BANK6   BANK7   BANK8   BANK9  BANK10  BANK1
      +1  BANK12  BANK13  BANK14  BANK15
  9458 ;;      Params:         4       0       0       0       0       0       0       0       0       0       0       0       
      +0       0       0       0       0
  9459 ;;      Locals:         4       0       0       0       0       0       0       0       0       0       0       0       
      +0       0       0       0       0
  9460 ;;      Temps:          2       0       0       0       0       0       0       0       0       0       0       0       
      +0       0       0       0       0
  9461 ;;      Totals:        10       0       0       0       0       0       0       0       0       0       0       0       
      +0       0       0       0       0
  9462 ;;Total ram usage:       10 bytes
  9463 ;; Hardware stack levels used: 1
  9464 ;; Hardware stack levels required when called: 5
  9465 ;; This function calls:
  9466 ;;		Nothing
  9467 ;; This function is called by:
  9468 ;;		_DisplayC
  9469 ;;		_efgtoa
  9470 ;; This function uses a non-reentrant model
  9471 ;;
  9472                           
  9473                           	psect	text39
  9474  004550                     __ptext39:
  9475                           	callstack 0
  9476  004550                     _strcpy:
  9477                           	callstack 20
  9478  004550  C00A  F00E         	movff	strcpy@src,strcpy@s
  9479  004554  C00B  F00F         	movff	strcpy@src+1,strcpy@s+1
  9480  004558  C008  F010         	movff	strcpy@dest,strcpy@d
  9481  00455C  C009  F011         	movff	strcpy@dest+1,strcpy@d+1
  9482  004560                     l5349:
  9483  004560  500E               	movf	strcpy@s^0,w,c
  9484  004562  6E0C               	movwf	??_strcpy^0,c
  9485  004564  500F               	movf	(strcpy@s+1)^0,w,c
  9486  004566  6E0D               	movwf	(??_strcpy+1)^0,c
  9487  004568  4A0E               	infsnz	strcpy@s^0,f,c
  9488  00456A  2A0F               	incf	(strcpy@s+1)^0,f,c
  9489  00456C  C00C  FFF6         	movff	??_strcpy,tblptrl
  9490  004570  C00D  FFF7         	movff	??_strcpy+1,tblptrh
  9491  004574  0E00               	movlw	low (__smallconst shr (0+16))
  9492  004576  6EF8               	movwf	tblptru,c
  9493  004578  C010  FFD9         	movff	strcpy@d,fsr2l
  9494  00457C  C011  FFDA         	movff	strcpy@d+1,fsr2h
  9495  004580  4A10               	infsnz	strcpy@d^0,f,c
  9496  004582  2A11               	incf	(strcpy@d+1)^0,f,c
  9497  004584  0E0F               	movlw	(high __ramtop+-1)
  9498  004586  64F7               	cpfsgt	tblptrh,c
  9499  004588  D003               	bra	u6367
  9500  00458A  0008               	tblrd		*
  9501  00458C  50F5               	movf	tablat,w,c
  9502  00458E  D005               	bra	u6360
  9503  004590                     u6367:
  9504  004590  CFF6 FFE1          	movff	tblptrl,fsr1l
  9505  004594  CFF7 FFE2          	movff	tblptrh,fsr1h
  9506  004598  50E7               	movf	indf1,w,c
  9507  00459A                     u6360:
  9508  00459A  6EDF               	movwf	indf2,c
  9509  00459C  50DF               	movf	indf2,w,c
  9510  00459E  A4D8               	btfss	status,2,c
  9511  0045A0  EFD4  F022         	goto	u6371
  9512  0045A4  EFD6  F022         	goto	u6370
  9513  0045A8                     u6371:
  9514  0045A8  EFB0  F022         	goto	l5349
  9515  0045AC                     u6370:
  9516  0045AC  0012               	return		;funcret
  9517  0045AE                     __end_of_strcpy:
  9518                           	callstack 0
  9519                           
  9520 ;; *************** function _DisplayV *****************
  9521 ;; Defined at:
  9522 ;;		line 110 in file "../LCDroutinesEasyPic.c"
  9523 ;; Parameters:    Size  Location     Type
  9524 ;;  LCDStr          2    7[COMRAM] PTR const unsigned char 
  9525 ;;		 -> DisplayC@temp(10), 
  9526 ;; Auto vars:     Size  Location     Type
  9527 ;;  count           1   10[COMRAM] unsigned char 
  9528 ;;  nibble          1    9[COMRAM] unsigned char 
  9529 ;; Return value:  Size  Location     Type
  9530 ;;                  1    wreg      void 
  9531 ;; Registers used:
  9532 ;;		wreg, fsr2l, fsr2h, status,2, status,0
  9533 ;; Tracked objects:
  9534 ;;		On entry : 0/0
  9535 ;;		On exit  : 0/0
  9536 ;;		Unchanged: 0/0
  9537 ;; Data sizes:     COMRAM   BANK0   BANK1   BANK2   BANK3   BANK4   BANK5   BANK6   BANK7   BANK8   BANK9  BANK10  BANK1
      +1  BANK12  BANK13  BANK14  BANK15
  9538 ;;      Params:         2       0       0       0       0       0       0       0       0       0       0       0       
      +0       0       0       0       0
  9539 ;;      Locals:         2       0       0       0       0       0       0       0       0       0       0       0       
      +0       0       0       0       0
  9540 ;;      Temps:          0       0       0       0       0       0       0       0       0       0       0       0       
      +0       0       0       0       0
  9541 ;;      Totals:         4       0       0       0       0       0       0       0       0       0       0       0       
      +0       0       0       0       0
  9542 ;;Total ram usage:        4 bytes
  9543 ;; Hardware stack levels used: 1
  9544 ;; Hardware stack levels required when called: 5
  9545 ;; This function calls:
  9546 ;;		Nothing
  9547 ;; This function is called by:
  9548 ;;		_DisplayC
  9549 ;; This function uses a non-reentrant model
  9550 ;;
  9551                           
  9552                           	psect	text40
  9553  003F76                     __ptext40:
  9554                           	callstack 0
  9555  003F76                     _DisplayV:
  9556                           	callstack 23
  9557  003F76                     
  9558                           ;../LCDroutinesEasyPic.c: 111:     unsigned char count = 0;
  9559  003F76  0E00               	movlw	0
  9560  003F78  6E0B               	movwf	DisplayV@count^0,c
  9561                           
  9562                           ;../LCDroutinesEasyPic.c: 114:     while(LCDStr[count] != 0x00) {
  9563  003F7A  EF06  F020         	goto	l26
  9564  003F7E                     l27:
  9565                           
  9566                           ;../LCDroutinesEasyPic.c: 116:         LATBbits.LATB5 = 0;
  9567  003F7E  9A8A               	bcf	138,5,c	;volatile
  9568  003F80                     
  9569                           ;../LCDroutinesEasyPic.c: 117:         LATB = PORTB & 0b11000000;
  9570  003F80  5081               	movf	129,w,c	;volatile
  9571  003F82  0BC0               	andlw	192
  9572  003F84  6E8A               	movwf	138,c	;volatile
  9573  003F86                     
  9574                           ;../LCDroutinesEasyPic.c: 118:         if(count==0){
  9575  003F86  500B               	movf	DisplayV@count^0,w,c
  9576  003F88  A4D8               	btfss	status,2,c
  9577  003F8A  EFC9  F01F         	goto	u5271
  9578  003F8E  EFCB  F01F         	goto	u5270
  9579  003F92                     u5271:
  9580  003F92  EFCE  F01F         	goto	l28
  9581  003F96                     u5270:
  9582  003F96                     
  9583                           ;../LCDroutinesEasyPic.c: 119:             LATBbits.LATB4 = 0;
  9584  003F96  988A               	bcf	138,4,c	;volatile
  9585                           
  9586                           ;../LCDroutinesEasyPic.c: 120:         }
  9587  003F98  EFCF  F01F         	goto	l29
  9588  003F9C                     l28:
  9589                           
  9590                           ;../LCDroutinesEasyPic.c: 122:             LATBbits.LATB4 = 1;
  9591  003F9C  888A               	bsf	138,4,c	;volatile
  9592  003F9E                     l29:
  9593                           
  9594                           ;../LCDroutinesEasyPic.c: 124:         LATBbits.LATB5 = 1;
  9595  003F9E  8A8A               	bsf	138,5,c	;volatile
  9596  003FA0                     
  9597                           ;../LCDroutinesEasyPic.c: 125:         nibble = 0xF0 & LCDStr[count];
  9598  003FA0  500B               	movf	DisplayV@count^0,w,c
  9599  003FA2  2408               	addwf	DisplayV@LCDStr^0,w,c
  9600  003FA4  6ED9               	movwf	fsr2l,c
  9601  003FA6  0E00               	movlw	0
  9602  003FA8  2009               	addwfc	(DisplayV@LCDStr+1)^0,w,c
  9603  003FAA  6EDA               	movwf	fsr2h,c
  9604  003FAC  50DF               	movf	indf2,w,c
  9605  003FAE  0BF0               	andlw	240
  9606  003FB0  6E0A               	movwf	DisplayV@nibble^0,c
  9607  003FB2                     
  9608                           ;../LCDroutinesEasyPic.c: 126:         nibble = nibble >> 4;
  9609  003FB2  380A               	swapf	DisplayV@nibble^0,w,c
  9610  003FB4  0B0F               	andlw	15
  9611  003FB6  6E0A               	movwf	DisplayV@nibble^0,c
  9612  003FB8                     
  9613                           ;../LCDroutinesEasyPic.c: 127:         LATB = nibble | PORTB;
  9614  003FB8  500A               	movf	DisplayV@nibble^0,w,c
  9615  003FBA  1081               	iorwf	129,w,c	;volatile
  9616  003FBC  6E8A               	movwf	138,c	;volatile
  9617  003FBE                     
  9618                           ;../LCDroutinesEasyPic.c: 128:         LATBbits.LATB5 = 0;
  9619  003FBE  9A8A               	bcf	138,5,c	;volatile
  9620  003FC0                     
  9621                           ;../LCDroutinesEasyPic.c: 129:         _delay((unsigned long)((50)*(16000000/4000000.0))
      +                          );
  9622  003FC0  0E42               	movlw	66
  9623  003FC2                     u8317:
  9624  003FC2  2EE8               	decfsz	wreg,f,c
  9625  003FC4  D7FE               	bra	u8317
  9626  003FC6  D000               	nop2	
  9627  003FC8                     
  9628                           ;../LCDroutinesEasyPic.c: 132:         LATB = PORTB & 0b11000000;
  9629  003FC8  5081               	movf	129,w,c	;volatile
  9630  003FCA  0BC0               	andlw	192
  9631  003FCC  6E8A               	movwf	138,c	;volatile
  9632  003FCE                     
  9633                           ;../LCDroutinesEasyPic.c: 133:         if(count==0){
  9634  003FCE  500B               	movf	DisplayV@count^0,w,c
  9635  003FD0  A4D8               	btfss	status,2,c
  9636  003FD2  EFED  F01F         	goto	u5281
  9637  003FD6  EFEF  F01F         	goto	u5280
  9638  003FDA                     u5281:
  9639  003FDA  EFF2  F01F         	goto	l30
  9640  003FDE                     u5280:
  9641  003FDE                     
  9642                           ;../LCDroutinesEasyPic.c: 134:             LATBbits.LATB4 = 0;
  9643  003FDE  988A               	bcf	138,4,c	;volatile
  9644                           
  9645                           ;../LCDroutinesEasyPic.c: 135:         }
  9646  003FE0  EFF3  F01F         	goto	l31
  9647  003FE4                     l30:
  9648                           
  9649                           ;../LCDroutinesEasyPic.c: 137:             LATBbits.LATB4 = 1;
  9650  003FE4  888A               	bsf	138,4,c	;volatile
  9651  003FE6                     l31:
  9652                           
  9653                           ;../LCDroutinesEasyPic.c: 139:         LATBbits.LATB5 = 1;
  9654  003FE6  8A8A               	bsf	138,5,c	;volatile
  9655  003FE8                     
  9656                           ;../LCDroutinesEasyPic.c: 140:         nibble = 0x0F & LCDStr[count];
  9657  003FE8  500B               	movf	DisplayV@count^0,w,c
  9658  003FEA  2408               	addwf	DisplayV@LCDStr^0,w,c
  9659  003FEC  6ED9               	movwf	fsr2l,c
  9660  003FEE  0E00               	movlw	0
  9661  003FF0  2009               	addwfc	(DisplayV@LCDStr+1)^0,w,c
  9662  003FF2  6EDA               	movwf	fsr2h,c
  9663  003FF4  50DF               	movf	indf2,w,c
  9664  003FF6  0B0F               	andlw	15
  9665  003FF8  6E0A               	movwf	DisplayV@nibble^0,c
  9666  003FFA                     
  9667                           ;../LCDroutinesEasyPic.c: 141:         LATB = nibble | PORTB;
  9668  003FFA  500A               	movf	DisplayV@nibble^0,w,c
  9669  003FFC  1081               	iorwf	129,w,c	;volatile
  9670  003FFE  6E8A               	movwf	138,c	;volatile
  9671  004000                     
  9672                           ;../LCDroutinesEasyPic.c: 142:         LATBbits.LATB5 = 0;
  9673  004000  9A8A               	bcf	138,5,c	;volatile
  9674  004002                     
  9675                           ;../LCDroutinesEasyPic.c: 143:         _delay((unsigned long)((50)*(16000000/4000000.0))
      +                          );
  9676  004002  0E42               	movlw	66
  9677  004004                     u8327:
  9678  004004  2EE8               	decfsz	wreg,f,c
  9679  004006  D7FE               	bra	u8327
  9680  004008  D000               	nop2	
  9681  00400A                     
  9682                           ;../LCDroutinesEasyPic.c: 146:         count++;
  9683  00400A  2A0B               	incf	DisplayV@count^0,f,c
  9684  00400C                     l26:
  9685                           
  9686                           ;../LCDroutinesEasyPic.c: 114:     while(LCDStr[count] != 0x00) {
  9687  00400C  500B               	movf	DisplayV@count^0,w,c
  9688  00400E  2408               	addwf	DisplayV@LCDStr^0,w,c
  9689  004010  6ED9               	movwf	fsr2l,c
  9690  004012  0E00               	movlw	0
  9691  004014  2009               	addwfc	(DisplayV@LCDStr+1)^0,w,c
  9692  004016  6EDA               	movwf	fsr2h,c
  9693  004018  50DF               	movf	indf2,w,c
  9694  00401A  A4D8               	btfss	status,2,c
  9695  00401C  EF12  F020         	goto	u5291
  9696  004020  EF14  F020         	goto	u5290
  9697  004024                     u5291:
  9698  004024  EFBF  F01F         	goto	l27
  9699  004028                     u5290:
  9700  004028  0012               	return		;funcret
  9701  00402A                     __end_of_DisplayV:
  9702                           	callstack 0
  9703                           
  9704 ;; *************** function _Initial *****************
  9705 ;; Defined at:
  9706 ;;		line 268 in file "C:/Users/Will/Universal Documents/Academics/CU Boulder/2021/Fall 2021/Microavionics/Labs/Lab6/Watk
      +ins_William_Lab6_Part2.c"
  9707 ;; Parameters:    Size  Location     Type
  9708 ;;		None
  9709 ;; Auto vars:     Size  Location     Type
  9710 ;;		None
  9711 ;; Return value:  Size  Location     Type
  9712 ;;                  1    wreg      void 
  9713 ;; Registers used:
  9714 ;;		wreg, status,2, status,0, tblptrl, tblptrh, tblptru, cstack
  9715 ;; Tracked objects:
  9716 ;;		On entry : 0/0
  9717 ;;		On exit  : 0/0
  9718 ;;		Unchanged: 0/0
  9719 ;; Data sizes:     COMRAM   BANK0   BANK1   BANK2   BANK3   BANK4   BANK5   BANK6   BANK7   BANK8   BANK9  BANK10  BANK1
      +1  BANK12  BANK13  BANK14  BANK15
  9720 ;;      Params:         0       0       0       0       0       0       0       0       0       0       0       0       
      +0       0       0       0       0
  9721 ;;      Locals:         0       0       0       0       0       0       0       0       0       0       0       0       
      +0       0       0       0       0
  9722 ;;      Temps:          0       0       0       0       0       0       0       0       0       0       0       0       
      +0       0       0       0       0
  9723 ;;      Totals:         0       0       0       0       0       0       0       0       0       0       0       0       
      +0       0       0       0       0
  9724 ;;Total ram usage:        0 bytes
  9725 ;; Hardware stack levels used: 1
  9726 ;; Hardware stack levels required when called: 6
  9727 ;; This function calls:
  9728 ;;		_InitLCD
  9729 ;; This function is called by:
  9730 ;;		_main
  9731 ;; This function uses a non-reentrant model
  9732 ;;
  9733                           
  9734                           	psect	text41
  9735  0038D4                     __ptext41:
  9736                           	callstack 0
  9737  0038D4                     _Initial:
  9738                           	callstack 24
  9739  0038D4                     
  9740                           ;C:/Users/Will/Universal Documents/Academics/CU Boulder/2021/Fall 2021/Microavionics/Lab
      +                          s/Lab6/Watkins_William_Lab6_Part2.c: 272:     TRISA = 0b00101001;
  9741  0038D4  0E29               	movlw	41
  9742  0038D6  6E92               	movwf	146,c	;volatile
  9743                           
  9744                           ;C:/Users/Will/Universal Documents/Academics/CU Boulder/2021/Fall 2021/Microavionics/Lab
      +                          s/Lab6/Watkins_William_Lab6_Part2.c: 273:     LATA = 0;
  9745  0038D8  0E00               	movlw	0
  9746  0038DA  6E89               	movwf	137,c	;volatile
  9747                           
  9748                           ;C:/Users/Will/Universal Documents/Academics/CU Boulder/2021/Fall 2021/Microavionics/Lab
      +                          s/Lab6/Watkins_William_Lab6_Part2.c: 274:     TRISD = 0b00001111;
  9749  0038DC  0E0F               	movlw	15
  9750  0038DE  6E95               	movwf	149,c	;volatile
  9751                           
  9752                           ;C:/Users/Will/Universal Documents/Academics/CU Boulder/2021/Fall 2021/Microavionics/Lab
      +                          s/Lab6/Watkins_William_Lab6_Part2.c: 275:     LATD = 0;
  9753  0038E0  0E00               	movlw	0
  9754  0038E2  6E8C               	movwf	140,c	;volatile
  9755                           
  9756                           ;C:/Users/Will/Universal Documents/Academics/CU Boulder/2021/Fall 2021/Microavionics/Lab
      +                          s/Lab6/Watkins_William_Lab6_Part2.c: 276:     TRISC = 0b10010011;
  9757  0038E4  0E93               	movlw	147
  9758  0038E6  6E94               	movwf	148,c	;volatile
  9759                           
  9760                           ;C:/Users/Will/Universal Documents/Academics/CU Boulder/2021/Fall 2021/Microavionics/Lab
      +                          s/Lab6/Watkins_William_Lab6_Part2.c: 277:     LATC = 0;
  9761  0038E8  0E00               	movlw	0
  9762  0038EA  6E8B               	movwf	139,c	;volatile
  9763                           
  9764                           ;C:/Users/Will/Universal Documents/Academics/CU Boulder/2021/Fall 2021/Microavionics/Lab
      +                          s/Lab6/Watkins_William_Lab6_Part2.c: 278:     TRISE = 0b00000000;
  9765  0038EC  0E00               	movlw	0
  9766  0038EE  6E96               	movwf	150,c	;volatile
  9767  0038F0                     
  9768                           ;C:/Users/Will/Universal Documents/Academics/CU Boulder/2021/Fall 2021/Microavionics/Lab
      +                          s/Lab6/Watkins_William_Lab6_Part2.c: 279:     LATEbits.LATE0 = 1;
  9769  0038F0  808D               	bsf	141,0,c	;volatile
  9770  0038F2                     
  9771                           ;C:/Users/Will/Universal Documents/Academics/CU Boulder/2021/Fall 2021/Microavionics/Lab
      +                          s/Lab6/Watkins_William_Lab6_Part2.c: 285:     TRISBbits.TRISB4 = 0;
  9772  0038F2  9893               	bcf	147,4,c	;volatile
  9773  0038F4                     
  9774                           ;C:/Users/Will/Universal Documents/Academics/CU Boulder/2021/Fall 2021/Microavionics/Lab
      +                          s/Lab6/Watkins_William_Lab6_Part2.c: 286:     TRISBbits.TRISB5 = 0;
  9775  0038F4  9A93               	bcf	147,5,c	;volatile
  9776                           
  9777                           ;C:/Users/Will/Universal Documents/Academics/CU Boulder/2021/Fall 2021/Microavionics/Lab
      +                          s/Lab6/Watkins_William_Lab6_Part2.c: 287:     TRISB = 0b11000000;
  9778  0038F6  0EC0               	movlw	192
  9779  0038F8  6E93               	movwf	147,c	;volatile
  9780                           
  9781                           ;C:/Users/Will/Universal Documents/Academics/CU Boulder/2021/Fall 2021/Microavionics/Lab
      +                          s/Lab6/Watkins_William_Lab6_Part2.c: 290:     LATB = 0;
  9782  0038FA  0E00               	movlw	0
  9783  0038FC  6E8A               	movwf	138,c	;volatile
  9784                           
  9785                           ;C:/Users/Will/Universal Documents/Academics/CU Boulder/2021/Fall 2021/Microavionics/Lab
      +                          s/Lab6/Watkins_William_Lab6_Part2.c: 296:     ANCON0 = 0b00001001;
  9786  0038FE  0E09               	movlw	9
  9787  003900  010F               	movlb	15	; () banked
  9788  003902  6F25               	movwf	37,b	;volatile
  9789                           
  9790                           ;C:/Users/Will/Universal Documents/Academics/CU Boulder/2021/Fall 2021/Microavionics/Lab
      +                          s/Lab6/Watkins_William_Lab6_Part2.c: 297:     ANCON1 = 0;
  9791  003904  0E00               	movlw	0
  9792  003906  6F24               	movwf	36,b	;volatile
  9793                           
  9794                           ;C:/Users/Will/Universal Documents/Academics/CU Boulder/2021/Fall 2021/Microavionics/Lab
      +                          s/Lab6/Watkins_William_Lab6_Part2.c: 298:     ANCON2 = 0;
  9795  003908  0E00               	movlw	0
  9796  00390A  6F23               	movwf	35,b	;volatile
  9797                           
  9798                           ;C:/Users/Will/Universal Documents/Academics/CU Boulder/2021/Fall 2021/Microavionics/Lab
      +                          s/Lab6/Watkins_William_Lab6_Part2.c: 300:     ADCON0 = 0b00001100;
  9799  00390C  0E0C               	movlw	12
  9800  00390E  6EC2               	movwf	194,c	;volatile
  9801                           
  9802                           ;C:/Users/Will/Universal Documents/Academics/CU Boulder/2021/Fall 2021/Microavionics/Lab
      +                          s/Lab6/Watkins_William_Lab6_Part2.c: 301:     ADCON1bits.VCFG = 0b00;
  9803  003910  0ECF               	movlw	-49
  9804  003912  16C1               	andwf	193,f,c	;volatile
  9805  003914                     
  9806                           ; BSR set to: 15
  9807                           ;C:/Users/Will/Universal Documents/Academics/CU Boulder/2021/Fall 2021/Microavionics/Lab
      +                          s/Lab6/Watkins_William_Lab6_Part2.c: 302:     ADCON1bits.VNCFG = 0;
  9808  003914  96C1               	bcf	193,3,c	;volatile
  9809                           
  9810                           ;C:/Users/Will/Universal Documents/Academics/CU Boulder/2021/Fall 2021/Microavionics/Lab
      +                          s/Lab6/Watkins_William_Lab6_Part2.c: 303:     ADCON2 = 0b10010101;
  9811  003916  0E95               	movlw	149
  9812  003918  6EC0               	movwf	192,c	;volatile
  9813                           
  9814                           ;C:/Users/Will/Universal Documents/Academics/CU Boulder/2021/Fall 2021/Microavionics/Lab
      +                          s/Lab6/Watkins_William_Lab6_Part2.c: 308:     T0CON = 0b00000100;
  9815  00391A  0E04               	movlw	4
  9816  00391C  6ED5               	movwf	213,c	;volatile
  9817                           
  9818                           ;C:/Users/Will/Universal Documents/Academics/CU Boulder/2021/Fall 2021/Microavionics/Lab
      +                          s/Lab6/Watkins_William_Lab6_Part2.c: 309:     TMR0H = 0x0B;
  9819  00391E  0E0B               	movlw	11
  9820  003920  6ED7               	movwf	215,c	;volatile
  9821                           
  9822                           ;C:/Users/Will/Universal Documents/Academics/CU Boulder/2021/Fall 2021/Microavionics/Lab
      +                          s/Lab6/Watkins_William_Lab6_Part2.c: 310:     TMR0L = 0xDC;
  9823  003922  0EDC               	movlw	220
  9824  003924  6ED6               	movwf	214,c	;volatile
  9825                           
  9826                           ;C:/Users/Will/Universal Documents/Academics/CU Boulder/2021/Fall 2021/Microavionics/Lab
      +                          s/Lab6/Watkins_William_Lab6_Part2.c: 313:     T1CON = 0b00000010;
  9827  003926  0E02               	movlw	2
  9828  003928  6ECD               	movwf	205,c	;volatile
  9829                           
  9830                           ;C:/Users/Will/Universal Documents/Academics/CU Boulder/2021/Fall 2021/Microavionics/Lab
      +                          s/Lab6/Watkins_William_Lab6_Part2.c: 316:     T3CON = 0b00000010;
  9831  00392A  0E02               	movlw	2
  9832  00392C  6EB1               	movwf	177,c	;volatile
  9833  00392E                     
  9834                           ; BSR set to: 15
  9835                           ;C:/Users/Will/Universal Documents/Academics/CU Boulder/2021/Fall 2021/Microavionics/Lab
      +                          s/Lab6/Watkins_William_Lab6_Part2.c: 323:     currentCCPR3 = timeON;
  9836  00392E  C0E7  F0FA         	movff	_timeON,_currentCCPR3
  9837  003932  C0E8  F0FB         	movff	_timeON+1,_currentCCPR3+1
  9838  003936  C0E9  F0FC         	movff	_timeON+2,_currentCCPR3+2
  9839  00393A  C0EA  F0FD         	movff	_timeON+3,_currentCCPR3+3
  9840                           
  9841                           ;C:/Users/Will/Universal Documents/Academics/CU Boulder/2021/Fall 2021/Microavionics/Lab
      +                          s/Lab6/Watkins_William_Lab6_Part2.c: 326:     CCP1CON = 0b00001010;
  9842  00393E  0E0A               	movlw	10
  9843  003940  6EBB               	movwf	187,c	;volatile
  9844                           
  9845                           ;C:/Users/Will/Universal Documents/Academics/CU Boulder/2021/Fall 2021/Microavionics/Lab
      +                          s/Lab6/Watkins_William_Lab6_Part2.c: 327:     CCPTMRS0bits.C1TSEL = 0;
  9846  003942  0EF8               	movlw	-8
  9847  003944  172D               	andwf	45,f,b	;volatile
  9848                           
  9849                           ;C:/Users/Will/Universal Documents/Academics/CU Boulder/2021/Fall 2021/Microavionics/Lab
      +                          s/Lab6/Watkins_William_Lab6_Part2.c: 328:     CCPR1 = DACInterval;
  9850  003946  0E0F               	movlw	15
  9851  003948  6EBD               	movwf	189,c	;volatile
  9852  00394A  0E42               	movlw	66
  9853  00394C  6EBC               	movwf	188,c	;volatile
  9854                           
  9855                           ;C:/Users/Will/Universal Documents/Academics/CU Boulder/2021/Fall 2021/Microavionics/Lab
      +                          s/Lab6/Watkins_William_Lab6_Part2.c: 331:     CCP3CON = 0b00001010;
  9856  00394E  0E0A               	movlw	10
  9857  003950  6F49               	movwf	73,b	;volatile
  9858                           
  9859                           ;C:/Users/Will/Universal Documents/Academics/CU Boulder/2021/Fall 2021/Microavionics/Lab
      +                          s/Lab6/Watkins_William_Lab6_Part2.c: 332:     CCPTMRS0bits.C3TSEL = 0b01;
  9860  003952  512D               	movf	45,w,b	;volatile
  9861  003954  0B3F               	andlw	-193
  9862  003956  0940               	iorlw	64
  9863  003958  6F2D               	movwf	45,b	;volatile
  9864  00395A                     
  9865                           ; BSR set to: 15
  9866                           ;C:/Users/Will/Universal Documents/Academics/CU Boulder/2021/Fall 2021/Microavionics/Lab
      +                          s/Lab6/Watkins_William_Lab6_Part2.c: 333:     CCPR3X = timeON>>16;
  9867  00395A  C0E9  F0FE         	movff	_timeON+2,_CCPR3X
  9868  00395E                     
  9869                           ; BSR set to: 15
  9870                           ;C:/Users/Will/Universal Documents/Academics/CU Boulder/2021/Fall 2021/Microavionics/Lab
      +                          s/Lab6/Watkins_William_Lab6_Part2.c: 334:     CCPR3 = timeON;
  9871  00395E  C0E7  FF4A         	movff	_timeON,3914	;volatile
  9872  003962  C0E8  FF4B         	movff	_timeON+1,3915	;volatile
  9873                           
  9874                           ;C:/Users/Will/Universal Documents/Academics/CU Boulder/2021/Fall 2021/Microavionics/Lab
      +                          s/Lab6/Watkins_William_Lab6_Part2.c: 339:     TXSTA1 = 0b00100000;
  9875  003966  0E20               	movlw	32
  9876  003968  6EAC               	movwf	172,c	;volatile
  9877                           
  9878                           ;C:/Users/Will/Universal Documents/Academics/CU Boulder/2021/Fall 2021/Microavionics/Lab
      +                          s/Lab6/Watkins_William_Lab6_Part2.c: 340:     RCSTA1 = 0b00010000;
  9879  00396A  0E10               	movlw	16
  9880  00396C  6EAB               	movwf	171,c	;volatile
  9881                           
  9882                           ;C:/Users/Will/Universal Documents/Academics/CU Boulder/2021/Fall 2021/Microavionics/Lab
      +                          s/Lab6/Watkins_William_Lab6_Part2.c: 341:     BAUDCON1 = 0b01000000;
  9883  00396E  0E40               	movlw	64
  9884  003970  6E65               	movwf	101,c	;volatile
  9885                           
  9886                           ;C:/Users/Will/Universal Documents/Academics/CU Boulder/2021/Fall 2021/Microavionics/Lab
      +                          s/Lab6/Watkins_William_Lab6_Part2.c: 342:     SPBRG1 = 12;
  9887  003972  0E0C               	movlw	12
  9888  003974  6EAF               	movwf	175,c	;volatile
  9889  003976                     
  9890                           ; BSR set to: 15
  9891                           ;C:/Users/Will/Universal Documents/Academics/CU Boulder/2021/Fall 2021/Microavionics/Lab
      +                          s/Lab6/Watkins_William_Lab6_Part2.c: 346:     SSP1STATbits.SMP = 1;
  9892  003976  8EC7               	bsf	199,7,c	;volatile
  9893  003978                     
  9894                           ; BSR set to: 15
  9895                           ;C:/Users/Will/Universal Documents/Academics/CU Boulder/2021/Fall 2021/Microavionics/Lab
      +                          s/Lab6/Watkins_William_Lab6_Part2.c: 348:     SSP1STATbits.CKE = 1;
  9896  003978  8CC7               	bsf	199,6,c	;volatile
  9897  00397A                     
  9898                           ; BSR set to: 15
  9899                           ;C:/Users/Will/Universal Documents/Academics/CU Boulder/2021/Fall 2021/Microavionics/Lab
      +                          s/Lab6/Watkins_William_Lab6_Part2.c: 349:     SSP1CON1bits.CKP = 0;
  9900  00397A  98C6               	bcf	198,4,c	;volatile
  9901                           
  9902                           ;C:/Users/Will/Universal Documents/Academics/CU Boulder/2021/Fall 2021/Microavionics/Lab
      +                          s/Lab6/Watkins_William_Lab6_Part2.c: 350:     SSP1CON1bits.SSPM = 0b0000;
  9903  00397C  0EF0               	movlw	-16
  9904  00397E  16C6               	andwf	198,f,c	;volatile
  9905  003980                     
  9906                           ; BSR set to: 15
  9907                           ;C:/Users/Will/Universal Documents/Academics/CU Boulder/2021/Fall 2021/Microavionics/Lab
      +                          s/Lab6/Watkins_William_Lab6_Part2.c: 355:     RCONbits.IPEN = 1;
  9908  003980  8ED0               	bsf	208,7,c	;volatile
  9909  003982                     
  9910                           ; BSR set to: 15
  9911                           ;C:/Users/Will/Universal Documents/Academics/CU Boulder/2021/Fall 2021/Microavionics/Lab
      +                          s/Lab6/Watkins_William_Lab6_Part2.c: 356:     INTCONbits.GIEL = 1;
  9912  003982  8CF2               	bsf	242,6,c	;volatile
  9913  003984                     
  9914                           ; BSR set to: 15
  9915                           ;C:/Users/Will/Universal Documents/Academics/CU Boulder/2021/Fall 2021/Microavionics/Lab
      +                          s/Lab6/Watkins_William_Lab6_Part2.c: 357:     INTCONbits.GIEH = 1;
  9916  003984  8EF2               	bsf	242,7,c	;volatile
  9917  003986                     
  9918                           ; BSR set to: 15
  9919                           ;C:/Users/Will/Universal Documents/Academics/CU Boulder/2021/Fall 2021/Microavionics/Lab
      +                          s/Lab6/Watkins_William_Lab6_Part2.c: 360:     INTCON2bits.TMR0IP = 0;
  9920  003986  94F1               	bcf	241,2,c	;volatile
  9921  003988                     
  9922                           ; BSR set to: 15
  9923                           ;C:/Users/Will/Universal Documents/Academics/CU Boulder/2021/Fall 2021/Microavionics/Lab
      +                          s/Lab6/Watkins_William_Lab6_Part2.c: 361:     INTCONbits.TMR0IE = 1;
  9924  003988  8AF2               	bsf	242,5,c	;volatile
  9925  00398A                     
  9926                           ; BSR set to: 15
  9927                           ;C:/Users/Will/Universal Documents/Academics/CU Boulder/2021/Fall 2021/Microavionics/Lab
      +                          s/Lab6/Watkins_William_Lab6_Part2.c: 362:     INTCONbits.TMR0IF = 0;
  9928  00398A  94F2               	bcf	242,2,c	;volatile
  9929  00398C                     
  9930                           ; BSR set to: 15
  9931                           ;C:/Users/Will/Universal Documents/Academics/CU Boulder/2021/Fall 2021/Microavionics/Lab
      +                          s/Lab6/Watkins_William_Lab6_Part2.c: 365:     IPR1bits.TMR1IP = 0;
  9932  00398C  909F               	bcf	159,0,c	;volatile
  9933  00398E                     
  9934                           ; BSR set to: 15
  9935                           ;C:/Users/Will/Universal Documents/Academics/CU Boulder/2021/Fall 2021/Microavionics/Lab
      +                          s/Lab6/Watkins_William_Lab6_Part2.c: 366:     PIE1bits.TMR1IE = 1;
  9936  00398E  809D               	bsf	157,0,c	;volatile
  9937  003990                     
  9938                           ; BSR set to: 15
  9939                           ;C:/Users/Will/Universal Documents/Academics/CU Boulder/2021/Fall 2021/Microavionics/Lab
      +                          s/Lab6/Watkins_William_Lab6_Part2.c: 367:     PIR1bits.TMR1IF = 0;
  9940  003990  909E               	bcf	158,0,c	;volatile
  9941  003992                     
  9942                           ; BSR set to: 15
  9943                           ;C:/Users/Will/Universal Documents/Academics/CU Boulder/2021/Fall 2021/Microavionics/Lab
      +                          s/Lab6/Watkins_William_Lab6_Part2.c: 370:     IPR2bits.TMR3IP = 0;
  9944  003992  92A2               	bcf	162,1,c	;volatile
  9945  003994                     
  9946                           ; BSR set to: 15
  9947                           ;C:/Users/Will/Universal Documents/Academics/CU Boulder/2021/Fall 2021/Microavionics/Lab
      +                          s/Lab6/Watkins_William_Lab6_Part2.c: 371:     PIE2bits.TMR3IE = 1;
  9948  003994  82A0               	bsf	160,1,c	;volatile
  9949  003996                     
  9950                           ; BSR set to: 15
  9951                           ;C:/Users/Will/Universal Documents/Academics/CU Boulder/2021/Fall 2021/Microavionics/Lab
      +                          s/Lab6/Watkins_William_Lab6_Part2.c: 372:     PIR2bits.TMR3IF = 0;
  9952  003996  92A1               	bcf	161,1,c	;volatile
  9953  003998                     
  9954                           ; BSR set to: 15
  9955                           ;C:/Users/Will/Universal Documents/Academics/CU Boulder/2021/Fall 2021/Microavionics/Lab
      +                          s/Lab6/Watkins_William_Lab6_Part2.c: 375:     IPR3bits.CCP1IP = 0;
  9956  003998  92A5               	bcf	165,1,c	;volatile
  9957  00399A                     
  9958                           ; BSR set to: 15
  9959                           ;C:/Users/Will/Universal Documents/Academics/CU Boulder/2021/Fall 2021/Microavionics/Lab
      +                          s/Lab6/Watkins_William_Lab6_Part2.c: 376:     PIE3bits.CCP1IE = 1;
  9960  00399A  82A3               	bsf	163,1,c	;volatile
  9961  00399C                     
  9962                           ; BSR set to: 15
  9963                           ;C:/Users/Will/Universal Documents/Academics/CU Boulder/2021/Fall 2021/Microavionics/Lab
      +                          s/Lab6/Watkins_William_Lab6_Part2.c: 377:     PIR3bits.CCP1IF = 0;
  9964  00399C  92A4               	bcf	164,1,c	;volatile
  9965  00399E                     
  9966                           ; BSR set to: 15
  9967                           ;C:/Users/Will/Universal Documents/Academics/CU Boulder/2021/Fall 2021/Microavionics/Lab
      +                          s/Lab6/Watkins_William_Lab6_Part2.c: 380:     IPR4bits.CCP3IP = 0;
  9968  00399E  90B8               	bcf	184,0,c	;volatile
  9969  0039A0                     
  9970                           ; BSR set to: 15
  9971                           ;C:/Users/Will/Universal Documents/Academics/CU Boulder/2021/Fall 2021/Microavionics/Lab
      +                          s/Lab6/Watkins_William_Lab6_Part2.c: 381:     PIE4bits.CCP3IE = 1;
  9972  0039A0  80B6               	bsf	182,0,c	;volatile
  9973  0039A2                     
  9974                           ; BSR set to: 15
  9975                           ;C:/Users/Will/Universal Documents/Academics/CU Boulder/2021/Fall 2021/Microavionics/Lab
      +                          s/Lab6/Watkins_William_Lab6_Part2.c: 382:     PIR4bits.CCP3IF = 0;
  9976  0039A2  90B7               	bcf	183,0,c	;volatile
  9977  0039A4                     
  9978                           ; BSR set to: 15
  9979                           ;C:/Users/Will/Universal Documents/Academics/CU Boulder/2021/Fall 2021/Microavionics/Lab
      +                          s/Lab6/Watkins_William_Lab6_Part2.c: 385:     IPR1bits.RC1IP = 1;
  9980  0039A4  8A9F               	bsf	159,5,c	;volatile
  9981  0039A6                     
  9982                           ; BSR set to: 15
  9983                           ;C:/Users/Will/Universal Documents/Academics/CU Boulder/2021/Fall 2021/Microavionics/Lab
      +                          s/Lab6/Watkins_William_Lab6_Part2.c: 386:     PIE1bits.RC1IE = 1;
  9984  0039A6  8A9D               	bsf	157,5,c	;volatile
  9985  0039A8                     
  9986                           ; BSR set to: 15
  9987                           ;C:/Users/Will/Universal Documents/Academics/CU Boulder/2021/Fall 2021/Microavionics/Lab
      +                          s/Lab6/Watkins_William_Lab6_Part2.c: 387:     PIR1bits.RC1IF = 0;
  9988  0039A8  9A9E               	bcf	158,5,c	;volatile
  9989  0039AA                     
  9990                           ; BSR set to: 15
  9991                           ;C:/Users/Will/Universal Documents/Academics/CU Boulder/2021/Fall 2021/Microavionics/Lab
      +                          s/Lab6/Watkins_William_Lab6_Part2.c: 388:     IPR1bits.TX1IP = 1;
  9992  0039AA  889F               	bsf	159,4,c	;volatile
  9993                           
  9994                           ;C:/Users/Will/Universal Documents/Academics/CU Boulder/2021/Fall 2021/Microavionics/Lab
      +                          s/Lab6/Watkins_William_Lab6_Part2.c: 393:     LATD = 0b00100000;
  9995  0039AC  0E20               	movlw	32
  9996  0039AE  6E8C               	movwf	140,c	;volatile
  9997  0039B0                     
  9998                           ; BSR set to: 15
  9999                           ;C:/Users/Will/Universal Documents/Academics/CU Boulder/2021/Fall 2021/Microavionics/Lab
      +                          s/Lab6/Watkins_William_Lab6_Part2.c: 394:     T0CONbits.TMR0ON = 1;
 10000  0039B0  8ED5               	bsf	213,7,c	;volatile
 10001  0039B2                     l4821:
 10002  0039B2  0E03               	movlw	3
 10003  0039B4  6456               	cpfsgt	_LED_count^0,c
 10004  0039B6  EFDF  F01C         	goto	u5541
 10005  0039BA  EFE1  F01C         	goto	u5540
 10006  0039BE                     u5541:
 10007  0039BE  EFD9  F01C         	goto	l4821
 10008  0039C2                     u5540:
 10009  0039C2                     
 10010                           ;C:/Users/Will/Universal Documents/Academics/CU Boulder/2021/Fall 2021/Microavionics/Lab
      +                          s/Lab6/Watkins_William_Lab6_Part2.c: 401:     InitLCD();
 10011  0039C2  EC60  F01F         	call	_InitLCD	;wreg free
 10012  0039C6                     
 10013                           ;C:/Users/Will/Universal Documents/Academics/CU Boulder/2021/Fall 2021/Microavionics/Lab
      +                          s/Lab6/Watkins_William_Lab6_Part2.c: 404:     ADCON0bits.ADON = 1;
 10014  0039C6  80C2               	bsf	194,0,c	;volatile
 10015  0039C8                     
 10016                           ;C:/Users/Will/Universal Documents/Academics/CU Boulder/2021/Fall 2021/Microavionics/Lab
      +                          s/Lab6/Watkins_William_Lab6_Part2.c: 407:     RCSTA1bits.SPEN = 1;
 10017  0039C8  8EAB               	bsf	171,7,c	;volatile
 10018  0039CA                     
 10019                           ;C:/Users/Will/Universal Documents/Academics/CU Boulder/2021/Fall 2021/Microavionics/Lab
      +                          s/Lab6/Watkins_William_Lab6_Part2.c: 410:     SSP1CON1bits.SSPEN = 1;
 10020  0039CA  8AC6               	bsf	198,5,c	;volatile
 10021  0039CC                     
 10022                           ;C:/Users/Will/Universal Documents/Academics/CU Boulder/2021/Fall 2021/Microavionics/Lab
      +                          s/Lab6/Watkins_William_Lab6_Part2.c: 413:     LATDbits.LATD4 = 1;
 10023  0039CC  888C               	bsf	140,4,c	;volatile
 10024  0039CE                     
 10025                           ;C:/Users/Will/Universal Documents/Academics/CU Boulder/2021/Fall 2021/Microavionics/Lab
      +                          s/Lab6/Watkins_William_Lab6_Part2.c: 416:     T1CONbits.TMR1ON = 1;
 10026  0039CE  80CD               	bsf	205,0,c	;volatile
 10027  0039D0                     
 10028                           ;C:/Users/Will/Universal Documents/Academics/CU Boulder/2021/Fall 2021/Microavionics/Lab
      +                          s/Lab6/Watkins_William_Lab6_Part2.c: 417:     T3CONbits.TMR3ON = 1;
 10029  0039D0  80B1               	bsf	177,0,c	;volatile
 10030  0039D2  0012               	return		;funcret
 10031  0039D4                     __end_of_Initial:
 10032                           	callstack 0
 10033                           
 10034 ;; *************** function _InitLCD *****************
 10035 ;; Defined at:
 10036 ;;		line 51 in file "../LCDroutinesEasyPic.c"
 10037 ;; Parameters:    Size  Location     Type
 10038 ;;		None
 10039 ;; Auto vars:     Size  Location     Type
 10040 ;;  nibble          1    9[COMRAM] unsigned char 
 10041 ;;  count           1    8[COMRAM] unsigned char 
 10042 ;; Return value:  Size  Location     Type
 10043 ;;                  1    wreg      void 
 10044 ;; Registers used:
 10045 ;;		wreg, status,2, status,0, tblptrl, tblptrh, tblptru
 10046 ;; Tracked objects:
 10047 ;;		On entry : 0/0
 10048 ;;		On exit  : 0/0
 10049 ;;		Unchanged: 0/0
 10050 ;; Data sizes:     COMRAM   BANK0   BANK1   BANK2   BANK3   BANK4   BANK5   BANK6   BANK7   BANK8   BANK9  BANK10  BANK1
      +1  BANK12  BANK13  BANK14  BANK15
 10051 ;;      Params:         0       0       0       0       0       0       0       0       0       0       0       0       
      +0       0       0       0       0
 10052 ;;      Locals:         2       0       0       0       0       0       0       0       0       0       0       0       
      +0       0       0       0       0
 10053 ;;      Temps:          1       0       0       0       0       0       0       0       0       0       0       0       
      +0       0       0       0       0
 10054 ;;      Totals:         3       0       0       0       0       0       0       0       0       0       0       0       
      +0       0       0       0       0
 10055 ;;Total ram usage:        3 bytes
 10056 ;; Hardware stack levels used: 1
 10057 ;; Hardware stack levels required when called: 5
 10058 ;; This function calls:
 10059 ;;		Nothing
 10060 ;; This function is called by:
 10061 ;;		_Initial
 10062 ;; This function uses a non-reentrant model
 10063 ;;
 10064                           
 10065                           	psect	text42
 10066  003EC0                     __ptext42:
 10067                           	callstack 0
 10068  003EC0                     _InitLCD:
 10069                           	callstack 24
 10070  003EC0                     
 10071                           ;../LCDroutinesEasyPic.c: 52:  unsigned char count = 0;
 10072  003EC0  0E00               	movlw	0
 10073  003EC2  6E09               	movwf	InitLCD@count^0,c
 10074  003EC4                     
 10075                           ;../LCDroutinesEasyPic.c: 57:     _delay((unsigned long)((40)*(16000000/4000.0)));
 10076  003EC4  0ED0               	movlw	208
 10077  003EC6  6E08               	movwf	??_InitLCD^0,c
 10078  003EC8  0ECA               	movlw	202
 10079  003ECA                     u8337:
 10080  003ECA  2EE8               	decfsz	wreg,f,c
 10081  003ECC  D7FE               	bra	u8337
 10082  003ECE  2E08               	decfsz	??_InitLCD^0,f,c
 10083  003ED0  D7FC               	bra	u8337
 10084  003ED2                     
 10085                           ;../LCDroutinesEasyPic.c: 60:  LATBbits.LATB4 = 0;
 10086  003ED2  988A               	bcf	138,4,c	;volatile
 10087                           
 10088                           ;../LCDroutinesEasyPic.c: 63:  while( LCDInitStr_[count] != 0x00 ) {
 10089  003ED4  EFA6  F01F         	goto	l4621
 10090  003ED8                     l4593:
 10091                           
 10092                           ;../LCDroutinesEasyPic.c: 64:         LATB = 0;
 10093  003ED8  0E00               	movlw	0
 10094  003EDA  6E8A               	movwf	138,c	;volatile
 10095  003EDC                     
 10096                           ;../LCDroutinesEasyPic.c: 65:   LATBbits.LATB5 = 1;
 10097  003EDC  8A8A               	bsf	138,5,c	;volatile
 10098  003EDE                     
 10099                           ;../LCDroutinesEasyPic.c: 66:         nibble = 0xF0 & LCDInitStr_[count];
 10100  003EDE  0E03               	movlw	low _LCDInitStr_
 10101  003EE0  2409               	addwf	InitLCD@count^0,w,c
 10102  003EE2  6EF6               	movwf	tblptrl,c
 10103  003EE4  6AF7               	clrf	tblptrh,c
 10104  003EE6  0E10               	movlw	high _LCDInitStr_
 10105  003EE8  22F7               	addwfc	tblptrh,f,c
 10106  003EEA                     	if	1	;There are 3 active tblptr bytes
 10107  003EEA  6AF8               	clrf	tblptru,c
 10108  003EEC  0E00               	movlw	low (__mediumconst shr (0+16))
 10109  003EEE  22F8               	addwfc	tblptru,f,c
 10110  003EF0                     	endif
 10111  003EF0  0008               	tblrd		*
 10112  003EF2  50F5               	movf	tablat,w,c
 10113  003EF4  0BF0               	andlw	240
 10114  003EF6  6E0A               	movwf	InitLCD@nibble^0,c
 10115  003EF8                     
 10116                           ;../LCDroutinesEasyPic.c: 67:         nibble = nibble>>4;
 10117  003EF8  380A               	swapf	InitLCD@nibble^0,w,c
 10118  003EFA  0B0F               	andlw	15
 10119  003EFC  6E0A               	movwf	InitLCD@nibble^0,c
 10120  003EFE                     
 10121                           ;../LCDroutinesEasyPic.c: 68:         LATB = nibble | PORTB;
 10122  003EFE  500A               	movf	InitLCD@nibble^0,w,c
 10123  003F00  1081               	iorwf	129,w,c	;volatile
 10124  003F02  6E8A               	movwf	138,c	;volatile
 10125  003F04                     
 10126                           ;../LCDroutinesEasyPic.c: 69:         LATBbits.LATB5 = 0;
 10127  003F04  9A8A               	bcf	138,5,c	;volatile
 10128  003F06                     
 10129                           ;../LCDroutinesEasyPic.c: 70:         _delay((unsigned long)((10)*(16000000/4000.0)));
 10130  003F06  0E34               	movlw	52
 10131  003F08  6E08               	movwf	??_InitLCD^0,c
 10132  003F0A  0EF2               	movlw	242
 10133  003F0C                     u8347:
 10134  003F0C  2EE8               	decfsz	wreg,f,c
 10135  003F0E  D7FE               	bra	u8347
 10136  003F10  2E08               	decfsz	??_InitLCD^0,f,c
 10137  003F12  D7FC               	bra	u8347
 10138  003F14                     
 10139                           ;../LCDroutinesEasyPic.c: 72:         LATB = 0;
 10140  003F14  0E00               	movlw	0
 10141  003F16  6E8A               	movwf	138,c	;volatile
 10142  003F18                     
 10143                           ;../LCDroutinesEasyPic.c: 73:   LATBbits.LATB5 = 1;
 10144  003F18  8A8A               	bsf	138,5,c	;volatile
 10145  003F1A                     
 10146                           ;../LCDroutinesEasyPic.c: 74:         nibble = 0x0F & LCDInitStr_[count];
 10147  003F1A  0E03               	movlw	low _LCDInitStr_
 10148  003F1C  2409               	addwf	InitLCD@count^0,w,c
 10149  003F1E  6EF6               	movwf	tblptrl,c
 10150  003F20  6AF7               	clrf	tblptrh,c
 10151  003F22  0E10               	movlw	high _LCDInitStr_
 10152  003F24  22F7               	addwfc	tblptrh,f,c
 10153  003F26                     	if	1	;There are 3 active tblptr bytes
 10154  003F26  6AF8               	clrf	tblptru,c
 10155  003F28  0E00               	movlw	low (__mediumconst shr (0+16))
 10156  003F2A  22F8               	addwfc	tblptru,f,c
 10157  003F2C                     	endif
 10158  003F2C  0008               	tblrd		*
 10159  003F2E  50F5               	movf	tablat,w,c
 10160  003F30  0B0F               	andlw	15
 10161  003F32  6E0A               	movwf	InitLCD@nibble^0,c
 10162  003F34                     
 10163                           ;../LCDroutinesEasyPic.c: 75:   LATB = nibble | PORTB;
 10164  003F34  500A               	movf	InitLCD@nibble^0,w,c
 10165  003F36  1081               	iorwf	129,w,c	;volatile
 10166  003F38  6E8A               	movwf	138,c	;volatile
 10167  003F3A                     
 10168                           ;../LCDroutinesEasyPic.c: 76:         LATBbits.LATB5 = 0;
 10169  003F3A  9A8A               	bcf	138,5,c	;volatile
 10170  003F3C                     
 10171                           ;../LCDroutinesEasyPic.c: 77:   _delay((unsigned long)((10)*(16000000/4000.0)));
 10172  003F3C  0E34               	movlw	52
 10173  003F3E  6E08               	movwf	??_InitLCD^0,c
 10174  003F40  0EF2               	movlw	242
 10175  003F42                     u8357:
 10176  003F42  2EE8               	decfsz	wreg,f,c
 10177  003F44  D7FE               	bra	u8357
 10178  003F46  2E08               	decfsz	??_InitLCD^0,f,c
 10179  003F48  D7FC               	bra	u8357
 10180  003F4A                     
 10181                           ;../LCDroutinesEasyPic.c: 79:   count++;
 10182  003F4A  2A09               	incf	InitLCD@count^0,f,c
 10183  003F4C                     l4621:
 10184                           
 10185                           ;../LCDroutinesEasyPic.c: 63:  while( LCDInitStr_[count] != 0x00 ) {
 10186  003F4C  0E03               	movlw	low _LCDInitStr_
 10187  003F4E  2409               	addwf	InitLCD@count^0,w,c
 10188  003F50  6EF6               	movwf	tblptrl,c
 10189  003F52  6AF7               	clrf	tblptrh,c
 10190  003F54  0E10               	movlw	high _LCDInitStr_
 10191  003F56  22F7               	addwfc	tblptrh,f,c
 10192  003F58                     	if	1	;There are 3 active tblptr bytes
 10193  003F58  6AF8               	clrf	tblptru,c
 10194  003F5A  0E00               	movlw	low (__mediumconst shr (0+16))
 10195  003F5C  22F8               	addwfc	tblptru,f,c
 10196  003F5E                     	endif
 10197  003F5E  0008               	tblrd		*
 10198  003F60  50F5               	movf	tablat,w,c
 10199  003F62  0900               	iorlw	0
 10200  003F64  A4D8               	btfss	status,2,c
 10201  003F66  EFB7  F01F         	goto	u5311
 10202  003F6A  EFB9  F01F         	goto	u5310
 10203  003F6E                     u5311:
 10204  003F6E  EF6C  F01F         	goto	l4593
 10205  003F72                     u5310:
 10206  003F72                     
 10207                           ;../LCDroutinesEasyPic.c: 82:  LATBbits.LATB4 = 1;
 10208  003F72  888A               	bsf	138,4,c	;volatile
 10209  003F74  0012               	return		;funcret
 10210  003F76                     __end_of_InitLCD:
 10211                           	callstack 0
 10212                           
 10213 ;; *************** function _LoPriISR *****************
 10214 ;; Defined at:
 10215 ;;		line 566 in file "C:/Users/Will/Universal Documents/Academics/CU Boulder/2021/Fall 2021/Microavionics/Labs/Lab6/Watk
      +ins_William_Lab6_Part2.c"
 10216 ;; Parameters:    Size  Location     Type
 10217 ;;		None
 10218 ;; Auto vars:     Size  Location     Type
 10219 ;;		None
 10220 ;; Return value:  Size  Location     Type
 10221 ;;                  1    wreg      void 
 10222 ;; Registers used:
 10223 ;;		wreg, status,2, status,0, cstack
 10224 ;; Tracked objects:
 10225 ;;		On entry : 0/0
 10226 ;;		On exit  : 0/0
 10227 ;;		Unchanged: 0/0
 10228 ;; Data sizes:     COMRAM   BANK0   BANK1   BANK2   BANK3   BANK4   BANK5   BANK6   BANK7   BANK8   BANK9  BANK10  BANK1
      +1  BANK12  BANK13  BANK14  BANK15
 10229 ;;      Params:         0       0       0       0       0       0       0       0       0       0       0       0       
      +0       0       0       0       0
 10230 ;;      Locals:         0       0       0       0       0       0       0       0       0       0       0       0       
      +0       0       0       0       0
 10231 ;;      Temps:          3       0       0       0       0       0       0       0       0       0       0       0       
      +0       0       0       0       0
 10232 ;;      Totals:         3       0       0       0       0       0       0       0       0       0       0       0       
      +0       0       0       0       0
 10233 ;;Total ram usage:        3 bytes
 10234 ;; Hardware stack levels used: 1
 10235 ;; Hardware stack levels required when called: 4
 10236 ;; This function calls:
 10237 ;;		_CCP1Handler
 10238 ;;		_CCP3Handler
 10239 ;;		_TMR0Handler
 10240 ;;		_TMR1Handler
 10241 ;;		_TMR3Handler
 10242 ;; This function is called by:
 10243 ;;		Interrupt level 1
 10244 ;; This function uses a non-reentrant model
 10245 ;;
 10246                           
 10247                           	psect	intcodelo
 10248  000018                     __pintcodelo:
 10249                           	callstack 0
 10250  000018                     _LoPriISR:
 10251                           	callstack 17
 10252                           
 10253                           ;incstack = 0
 10254  000018  8057               	bsf	int$flags,0,c	;set compiler interrupt flag (level 1)
 10255  00001A  CFD8 F005          	movff	status,??_LoPriISR
 10256  00001E  CFE8 F006          	movff	wreg,??_LoPriISR+1
 10257  000022  CFE0 F007          	movff	bsr,??_LoPriISR+2
 10258  000026                     i1l354:
 10259                           
 10260                           ;C:/Users/Will/Universal Documents/Academics/CU Boulder/2021/Fall 2021/Microavionics/Lab
      +                          s/Lab6/Watkins_William_Lab6_Part2.c: 569:         if(PIR3bits.CCP1IF)
 10261  000026  A2A4               	btfss	164,1,c	;volatile
 10262  000028  EF18  F000         	goto	i1u584_21
 10263  00002C  EF1A  F000         	goto	i1u584_20
 10264  000030                     i1u584_21:
 10265  000030  EF1E  F000         	goto	i1l355
 10266  000034                     i1u584_20:
 10267  000034                     
 10268                           ;C:/Users/Will/Universal Documents/Academics/CU Boulder/2021/Fall 2021/Microavionics/Lab
      +                          s/Lab6/Watkins_William_Lab6_Part2.c: 570:         {;C:/Users/Will/Universal Documents/Ac
      +                          ademics/CU Boulder/2021/Fall 2021/Microavionics/Labs/Lab6/Watkins_William_Lab6_Part2.c: 
      +                          571:             CCP1Handler();
 10269  000034  ECBE  F024         	call	_CCP1Handler	;wreg free
 10270                           
 10271                           ;C:/Users/Will/Universal Documents/Academics/CU Boulder/2021/Fall 2021/Microavionics/Lab
      +                          s/Lab6/Watkins_William_Lab6_Part2.c: 572:             continue;
 10272  000038  EF13  F000         	goto	i1l354
 10273  00003C                     i1l355:
 10274                           
 10275                           ;C:/Users/Will/Universal Documents/Academics/CU Boulder/2021/Fall 2021/Microavionics/Lab
      +                          s/Lab6/Watkins_William_Lab6_Part2.c: 574:         if(PIR4bits.CCP3IF)
 10276  00003C  A0B7               	btfss	183,0,c	;volatile
 10277  00003E  EF23  F000         	goto	i1u585_21
 10278  000042  EF25  F000         	goto	i1u585_20
 10279  000046                     i1u585_21:
 10280  000046  EF29  F000         	goto	i1l357
 10281  00004A                     i1u585_20:
 10282  00004A                     
 10283                           ;C:/Users/Will/Universal Documents/Academics/CU Boulder/2021/Fall 2021/Microavionics/Lab
      +                          s/Lab6/Watkins_William_Lab6_Part2.c: 575:         {;C:/Users/Will/Universal Documents/Ac
      +                          ademics/CU Boulder/2021/Fall 2021/Microavionics/Labs/Lab6/Watkins_William_Lab6_Part2.c: 
      +                          576:             CCP3Handler();
 10284  00004A  EC82  F023         	call	_CCP3Handler	;wreg free
 10285                           
 10286                           ;C:/Users/Will/Universal Documents/Academics/CU Boulder/2021/Fall 2021/Microavionics/Lab
      +                          s/Lab6/Watkins_William_Lab6_Part2.c: 577:             continue;
 10287  00004E  EF13  F000         	goto	i1l354
 10288  000052                     i1l357:
 10289                           
 10290                           ;C:/Users/Will/Universal Documents/Academics/CU Boulder/2021/Fall 2021/Microavionics/Lab
      +                          s/Lab6/Watkins_William_Lab6_Part2.c: 579:         if(INTCONbits.TMR0IF)
 10291  000052  A4F2               	btfss	242,2,c	;volatile
 10292  000054  EF2E  F000         	goto	i1u586_21
 10293  000058  EF30  F000         	goto	i1u586_20
 10294  00005C                     i1u586_21:
 10295  00005C  EF34  F000         	goto	i1l358
 10296  000060                     i1u586_20:
 10297  000060                     
 10298                           ;C:/Users/Will/Universal Documents/Academics/CU Boulder/2021/Fall 2021/Microavionics/Lab
      +                          s/Lab6/Watkins_William_Lab6_Part2.c: 580:         {;C:/Users/Will/Universal Documents/Ac
      +                          ademics/CU Boulder/2021/Fall 2021/Microavionics/Labs/Lab6/Watkins_William_Lab6_Part2.c: 
      +                          581:             TMR0Handler();
 10299  000060  EC63  F024         	call	_TMR0Handler	;wreg free
 10300                           
 10301                           ;C:/Users/Will/Universal Documents/Academics/CU Boulder/2021/Fall 2021/Microavionics/Lab
      +                          s/Lab6/Watkins_William_Lab6_Part2.c: 582:             continue;
 10302  000064  EF13  F000         	goto	i1l354
 10303  000068                     i1l358:
 10304                           
 10305                           ;C:/Users/Will/Universal Documents/Academics/CU Boulder/2021/Fall 2021/Microavionics/Lab
      +                          s/Lab6/Watkins_William_Lab6_Part2.c: 584:         if(PIR1bits.TMR1IF)
 10306  000068  A09E               	btfss	158,0,c	;volatile
 10307  00006A  EF39  F000         	goto	i1u587_21
 10308  00006E  EF3B  F000         	goto	i1u587_20
 10309  000072                     i1u587_21:
 10310  000072  EF3F  F000         	goto	i1l359
 10311  000076                     i1u587_20:
 10312  000076                     
 10313                           ;C:/Users/Will/Universal Documents/Academics/CU Boulder/2021/Fall 2021/Microavionics/Lab
      +                          s/Lab6/Watkins_William_Lab6_Part2.c: 585:         {;C:/Users/Will/Universal Documents/Ac
      +                          ademics/CU Boulder/2021/Fall 2021/Microavionics/Labs/Lab6/Watkins_William_Lab6_Part2.c: 
      +                          586:             TMR1Handler();
 10314  000076  EC0B  F025         	call	_TMR1Handler	;wreg free
 10315                           
 10316                           ;C:/Users/Will/Universal Documents/Academics/CU Boulder/2021/Fall 2021/Microavionics/Lab
      +                          s/Lab6/Watkins_William_Lab6_Part2.c: 587:             continue;
 10317  00007A  EF13  F000         	goto	i1l354
 10318  00007E                     i1l359:
 10319                           
 10320                           ;C:/Users/Will/Universal Documents/Academics/CU Boulder/2021/Fall 2021/Microavionics/Lab
      +                          s/Lab6/Watkins_William_Lab6_Part2.c: 589:         if(PIR2bits.TMR3IF)
 10321  00007E  A2A1               	btfss	161,1,c	;volatile
 10322  000080  EF44  F000         	goto	i1u588_21
 10323  000084  EF46  F000         	goto	i1u588_20
 10324  000088                     i1u588_21:
 10325  000088  EF4A  F000         	goto	i1l362
 10326  00008C                     i1u588_20:
 10327  00008C                     
 10328                           ;C:/Users/Will/Universal Documents/Academics/CU Boulder/2021/Fall 2021/Microavionics/Lab
      +                          s/Lab6/Watkins_William_Lab6_Part2.c: 590:         {;C:/Users/Will/Universal Documents/Ac
      +                          ademics/CU Boulder/2021/Fall 2021/Microavionics/Labs/Lab6/Watkins_William_Lab6_Part2.c: 
      +                          591:             TMR3Handler();
 10329  00008C  EC07  F025         	call	_TMR3Handler	;wreg free
 10330                           
 10331                           ;C:/Users/Will/Universal Documents/Academics/CU Boulder/2021/Fall 2021/Microavionics/Lab
      +                          s/Lab6/Watkins_William_Lab6_Part2.c: 592:             continue;
 10332  000090  EF13  F000         	goto	i1l354
 10333  000094                     i1l362:
 10334  000094  C007  FFE0         	movff	??_LoPriISR+2,bsr
 10335  000098  C006  FFE8         	movff	??_LoPriISR+1,wreg
 10336  00009C  C005  FFD8         	movff	??_LoPriISR,status
 10337  0000A0  9057               	bcf	int$flags,0,c	;clear compiler interrupt flag (level 1)
 10338  0000A2  0010               	retfie	
 10339  0000A4                     __end_of_LoPriISR:
 10340                           	callstack 0
 10341                           
 10342 ;; *************** function _TMR3Handler *****************
 10343 ;; Defined at:
 10344 ;;		line 693 in file "C:/Users/Will/Universal Documents/Academics/CU Boulder/2021/Fall 2021/Microavionics/Labs/Lab6/Watk
      +ins_William_Lab6_Part2.c"
 10345 ;; Parameters:    Size  Location     Type
 10346 ;;		None
 10347 ;; Auto vars:     Size  Location     Type
 10348 ;;		None
 10349 ;; Return value:  Size  Location     Type
 10350 ;;                  1    wreg      void 
 10351 ;; Registers used:
 10352 ;;		status,2, status,0
 10353 ;; Tracked objects:
 10354 ;;		On entry : 0/0
 10355 ;;		On exit  : 0/0
 10356 ;;		Unchanged: 0/0
 10357 ;; Data sizes:     COMRAM   BANK0   BANK1   BANK2   BANK3   BANK4   BANK5   BANK6   BANK7   BANK8   BANK9  BANK10  BANK1
      +1  BANK12  BANK13  BANK14  BANK15
 10358 ;;      Params:         0       0       0       0       0       0       0       0       0       0       0       0       
      +0       0       0       0       0
 10359 ;;      Locals:         0       0       0       0       0       0       0       0       0       0       0       0       
      +0       0       0       0       0
 10360 ;;      Temps:          0       0       0       0       0       0       0       0       0       0       0       0       
      +0       0       0       0       0
 10361 ;;      Totals:         0       0       0       0       0       0       0       0       0       0       0       0       
      +0       0       0       0       0
 10362 ;;Total ram usage:        0 bytes
 10363 ;; Hardware stack levels used: 1
 10364 ;; Hardware stack levels required when called: 2
 10365 ;; This function calls:
 10366 ;;		Nothing
 10367 ;; This function is called by:
 10368 ;;		_LoPriISR
 10369 ;; This function uses a non-reentrant model
 10370 ;;
 10371                           
 10372                           	psect	text44
 10373  004A0E                     __ptext44:
 10374                           	callstack 0
 10375  004A0E                     _TMR3Handler:
 10376                           	callstack 18
 10377  004A0E                     
 10378                           ;C:/Users/Will/Universal Documents/Academics/CU Boulder/2021/Fall 2021/Microavionics/Lab
      +                          s/Lab6/Watkins_William_Lab6_Part2.c: 694:     TMR3X++;
 10379  004A0E  0100               	movlb	0	; () banked
 10380  004A10  2BD4               	incf	_TMR3X& (0+255),f,b
 10381  004A12                     
 10382                           ; BSR set to: 0
 10383                           ;C:/Users/Will/Universal Documents/Academics/CU Boulder/2021/Fall 2021/Microavionics/Lab
      +                          s/Lab6/Watkins_William_Lab6_Part2.c: 695:     PIR2bits.TMR3IF = 0;
 10384  004A12  92A1               	bcf	161,1,c	;volatile
 10385  004A14                     
 10386                           ; BSR set to: 0
 10387  004A14  0012               	return		;funcret
 10388  004A16                     __end_of_TMR3Handler:
 10389                           	callstack 0
 10390                           
 10391 ;; *************** function _TMR1Handler *****************
 10392 ;; Defined at:
 10393 ;;		line 680 in file "C:/Users/Will/Universal Documents/Academics/CU Boulder/2021/Fall 2021/Microavionics/Labs/Lab6/Watk
      +ins_William_Lab6_Part2.c"
 10394 ;; Parameters:    Size  Location     Type
 10395 ;;		None
 10396 ;; Auto vars:     Size  Location     Type
 10397 ;;		None
 10398 ;; Return value:  Size  Location     Type
 10399 ;;                  1    wreg      void 
 10400 ;; Registers used:
 10401 ;;		None
 10402 ;; Tracked objects:
 10403 ;;		On entry : 0/0
 10404 ;;		On exit  : 0/0
 10405 ;;		Unchanged: 0/0
 10406 ;; Data sizes:     COMRAM   BANK0   BANK1   BANK2   BANK3   BANK4   BANK5   BANK6   BANK7   BANK8   BANK9  BANK10  BANK1
      +1  BANK12  BANK13  BANK14  BANK15
 10407 ;;      Params:         0       0       0       0       0       0       0       0       0       0       0       0       
      +0       0       0       0       0
 10408 ;;      Locals:         0       0       0       0       0       0       0       0       0       0       0       0       
      +0       0       0       0       0
 10409 ;;      Temps:          0       0       0       0       0       0       0       0       0       0       0       0       
      +0       0       0       0       0
 10410 ;;      Totals:         0       0       0       0       0       0       0       0       0       0       0       0       
      +0       0       0       0       0
 10411 ;;Total ram usage:        0 bytes
 10412 ;; Hardware stack levels used: 1
 10413 ;; Hardware stack levels required when called: 2
 10414 ;; This function calls:
 10415 ;;		Nothing
 10416 ;; This function is called by:
 10417 ;;		_LoPriISR
 10418 ;; This function uses a non-reentrant model
 10419 ;;
 10420                           
 10421                           	psect	text45
 10422  004A16                     __ptext45:
 10423                           	callstack 0
 10424  004A16                     _TMR1Handler:
 10425                           	callstack 18
 10426  004A16                     
 10427                           ;C:/Users/Will/Universal Documents/Academics/CU Boulder/2021/Fall 2021/Microavionics/Lab
      +                          s/Lab6/Watkins_William_Lab6_Part2.c: 682:     PIR1bits.TMR1IF = 0;
 10428  004A16  909E               	bcf	158,0,c	;volatile
 10429  004A18  0012               	return		;funcret
 10430  004A1A                     __end_of_TMR1Handler:
 10431                           	callstack 0
 10432                           
 10433 ;; *************** function _TMR0Handler *****************
 10434 ;; Defined at:
 10435 ;;		line 653 in file "C:/Users/Will/Universal Documents/Academics/CU Boulder/2021/Fall 2021/Microavionics/Labs/Lab6/Watk
      +ins_William_Lab6_Part2.c"
 10436 ;; Parameters:    Size  Location     Type
 10437 ;;		None
 10438 ;; Auto vars:     Size  Location     Type
 10439 ;;		None
 10440 ;; Return value:  Size  Location     Type
 10441 ;;                  1    wreg      void 
 10442 ;; Registers used:
 10443 ;;		wreg, status,2, status,0
 10444 ;; Tracked objects:
 10445 ;;		On entry : 0/0
 10446 ;;		On exit  : 0/0
 10447 ;;		Unchanged: 0/0
 10448 ;; Data sizes:     COMRAM   BANK0   BANK1   BANK2   BANK3   BANK4   BANK5   BANK6   BANK7   BANK8   BANK9  BANK10  BANK1
      +1  BANK12  BANK13  BANK14  BANK15
 10449 ;;      Params:         0       0       0       0       0       0       0       0       0       0       0       0       
      +0       0       0       0       0
 10450 ;;      Locals:         0       0       0       0       0       0       0       0       0       0       0       0       
      +0       0       0       0       0
 10451 ;;      Temps:          0       0       0       0       0       0       0       0       0       0       0       0       
      +0       0       0       0       0
 10452 ;;      Totals:         0       0       0       0       0       0       0       0       0       0       0       0       
      +0       0       0       0       0
 10453 ;;Total ram usage:        0 bytes
 10454 ;; Hardware stack levels used: 1
 10455 ;; Hardware stack levels required when called: 2
 10456 ;; This function calls:
 10457 ;;		Nothing
 10458 ;; This function is called by:
 10459 ;;		_LoPriISR
 10460 ;; This function uses a non-reentrant model
 10461 ;;
 10462                           
 10463                           	psect	text46
 10464  0048C6                     __ptext46:
 10465                           	callstack 0
 10466  0048C6                     _TMR0Handler:
 10467                           	callstack 18
 10468  0048C6                     
 10469                           ;C:/Users/Will/Universal Documents/Academics/CU Boulder/2021/Fall 2021/Microavionics/Lab
      +                          s/Lab6/Watkins_William_Lab6_Part2.c: 654:     T0CONbits.TMR0ON = 0;
 10470  0048C6  9ED5               	bcf	213,7,c	;volatile
 10471  0048C8                     
 10472                           ;C:/Users/Will/Universal Documents/Academics/CU Boulder/2021/Fall 2021/Microavionics/Lab
      +                          s/Lab6/Watkins_William_Lab6_Part2.c: 655:     TMR0H = 0x0B;
 10473  0048C8  0E0B               	movlw	11
 10474  0048CA  6ED7               	movwf	215,c	;volatile
 10475                           
 10476                           ;C:/Users/Will/Universal Documents/Academics/CU Boulder/2021/Fall 2021/Microavionics/Lab
      +                          s/Lab6/Watkins_William_Lab6_Part2.c: 656:     TMR0L = 0xDC;
 10477  0048CC  0EDC               	movlw	220
 10478  0048CE  6ED6               	movwf	214,c	;volatile
 10479  0048D0                     
 10480                           ;C:/Users/Will/Universal Documents/Academics/CU Boulder/2021/Fall 2021/Microavionics/Lab
      +                          s/Lab6/Watkins_William_Lab6_Part2.c: 657:     LED_count++;
 10481  0048D0  2A56               	incf	_LED_count^0,f,c
 10482  0048D2                     
 10483                           ;C:/Users/Will/Universal Documents/Academics/CU Boulder/2021/Fall 2021/Microavionics/Lab
      +                          s/Lab6/Watkins_William_Lab6_Part2.c: 659:     if(LED_count > 3)
 10484  0048D2  0E03               	movlw	3
 10485  0048D4  6456               	cpfsgt	_LED_count^0,c
 10486  0048D6  EF6F  F024         	goto	i1u573_21
 10487  0048DA  EF71  F024         	goto	i1u573_20
 10488  0048DE                     i1u573_21:
 10489  0048DE  EF76  F024         	goto	i1l5013
 10490  0048E2                     i1u573_20:
 10491  0048E2                     
 10492                           ;C:/Users/Will/Universal Documents/Academics/CU Boulder/2021/Fall 2021/Microavionics/Lab
      +                          s/Lab6/Watkins_William_Lab6_Part2.c: 660:     {;C:/Users/Will/Universal Documents/Academ
      +                          ics/CU Boulder/2021/Fall 2021/Microavionics/Labs/Lab6/Watkins_William_Lab6_Part2.c: 661:
      +                                   INTCONbits.TMR0IF = 0;
 10493  0048E2  94F2               	bcf	242,2,c	;volatile
 10494  0048E4                     
 10495                           ;C:/Users/Will/Universal Documents/Academics/CU Boulder/2021/Fall 2021/Microavionics/Lab
      +                          s/Lab6/Watkins_William_Lab6_Part2.c: 662:         LATD = 0;
 10496  0048E4  0E00               	movlw	0
 10497  0048E6  6E8C               	movwf	140,c	;volatile
 10498  0048E8  EF7E  F024         	goto	i1l375
 10499  0048EC                     i1l5013:
 10500                           
 10501                           ;C:/Users/Will/Universal Documents/Academics/CU Boulder/2021/Fall 2021/Microavionics/Lab
      +                          s/Lab6/Watkins_William_Lab6_Part2.c: 665:     oldLATD = ((char) LATD<<1);
 10502  0048EC  508C               	movf	140,w,c	;volatile
 10503  0048EE  248C               	addwf	140,w,c	;volatile
 10504  0048F0  0100               	movlb	0	; () banked
 10505  0048F2  6FE2               	movwf	_oldLATD& (0+255),b
 10506  0048F4                     
 10507                           ; BSR set to: 0
 10508                           ;C:/Users/Will/Universal Documents/Academics/CU Boulder/2021/Fall 2021/Microavionics/Lab
      +                          s/Lab6/Watkins_William_Lab6_Part2.c: 666:     LATD = oldLATD;
 10509  0048F4  C0E2  FF8C         	movff	_oldLATD,3980	;volatile
 10510  0048F8                     
 10511                           ; BSR set to: 0
 10512                           ;C:/Users/Will/Universal Documents/Academics/CU Boulder/2021/Fall 2021/Microavionics/Lab
      +                          s/Lab6/Watkins_William_Lab6_Part2.c: 668:     INTCONbits.TMR0IF = 0;
 10513  0048F8  94F2               	bcf	242,2,c	;volatile
 10514  0048FA                     
 10515                           ; BSR set to: 0
 10516                           ;C:/Users/Will/Universal Documents/Academics/CU Boulder/2021/Fall 2021/Microavionics/Lab
      +                          s/Lab6/Watkins_William_Lab6_Part2.c: 669:     T0CONbits.TMR0ON = 1;
 10517  0048FA  8ED5               	bsf	213,7,c	;volatile
 10518  0048FC                     i1l375:
 10519  0048FC  0012               	return		;funcret
 10520  0048FE                     __end_of_TMR0Handler:
 10521                           	callstack 0
 10522                           
 10523 ;; *************** function _CCP3Handler *****************
 10524 ;; Defined at:
 10525 ;;		line 631 in file "C:/Users/Will/Universal Documents/Academics/CU Boulder/2021/Fall 2021/Microavionics/Labs/Lab6/Watk
      +ins_William_Lab6_Part2.c"
 10526 ;; Parameters:    Size  Location     Type
 10527 ;;		None
 10528 ;; Auto vars:     Size  Location     Type
 10529 ;;		None
 10530 ;; Return value:  Size  Location     Type
 10531 ;;                  1    wreg      void 
 10532 ;; Registers used:
 10533 ;;		wreg, status,2, status,0, cstack
 10534 ;; Tracked objects:
 10535 ;;		On entry : 0/0
 10536 ;;		On exit  : 0/0
 10537 ;;		Unchanged: 0/0
 10538 ;; Data sizes:     COMRAM   BANK0   BANK1   BANK2   BANK3   BANK4   BANK5   BANK6   BANK7   BANK8   BANK9  BANK10  BANK1
      +1  BANK12  BANK13  BANK14  BANK15
 10539 ;;      Params:         0       0       0       0       0       0       0       0       0       0       0       0       
      +0       0       0       0       0
 10540 ;;      Locals:         0       0       0       0       0       0       0       0       0       0       0       0       
      +0       0       0       0       0
 10541 ;;      Temps:          1       0       0       0       0       0       0       0       0       0       0       0       
      +0       0       0       0       0
 10542 ;;      Totals:         1       0       0       0       0       0       0       0       0       0       0       0       
      +0       0       0       0       0
 10543 ;;Total ram usage:        1 bytes
 10544 ;; Hardware stack levels used: 1
 10545 ;; Hardware stack levels required when called: 3
 10546 ;; This function calls:
 10547 ;;		_aliveLED
 10548 ;; This function is called by:
 10549 ;;		_LoPriISR
 10550 ;; This function uses a non-reentrant model
 10551 ;;
 10552                           
 10553                           	psect	text47
 10554  004704                     __ptext47:
 10555                           	callstack 0
 10556  004704                     _CCP3Handler:
 10557                           	callstack 17
 10558  004704                     
 10559                           ;C:/Users/Will/Universal Documents/Academics/CU Boulder/2021/Fall 2021/Microavionics/Lab
      +                          s/Lab6/Watkins_William_Lab6_Part2.c: 634:     if(PIR2bits.TMR3IF && ((CCPR3H & 0b1000000
      +                          0) > 1) )
 10560  004704  A2A1               	btfss	161,1,c	;volatile
 10561  004706  EF87  F023         	goto	i1u570_21
 10562  00470A  EF89  F023         	goto	i1u570_20
 10563  00470E                     i1u570_21:
 10564  00470E  EF98  F023         	goto	i1l4993
 10565  004712                     i1u570_20:
 10566  004712  CF4B F004          	movff	3915,??_CCP3Handler	;volatile
 10567  004716  0E80               	movlw	128
 10568  004718  1604               	andwf	??_CCP3Handler^0,f,c
 10569  00471A  0E01               	movlw	1
 10570  00471C  6404               	cpfsgt	??_CCP3Handler^0,c
 10571  00471E  EF93  F023         	goto	i1u571_21
 10572  004722  EF95  F023         	goto	i1u571_20
 10573  004726                     i1u571_21:
 10574  004726  EF98  F023         	goto	i1l4993
 10575  00472A                     i1u571_20:
 10576  00472A                     
 10577                           ;C:/Users/Will/Universal Documents/Academics/CU Boulder/2021/Fall 2021/Microavionics/Lab
      +                          s/Lab6/Watkins_William_Lab6_Part2.c: 635:     {;C:/Users/Will/Universal Documents/Academ
      +                          ics/CU Boulder/2021/Fall 2021/Microavionics/Labs/Lab6/Watkins_William_Lab6_Part2.c: 636:
      +                                   TMR3X++;
 10578  00472A  0100               	movlb	0	; () banked
 10579  00472C  2BD4               	incf	_TMR3X& (0+255),f,b
 10580  00472E                     
 10581                           ; BSR set to: 0
 10582                           ;C:/Users/Will/Universal Documents/Academics/CU Boulder/2021/Fall 2021/Microavionics/Lab
      +                          s/Lab6/Watkins_William_Lab6_Part2.c: 637:         PIR2bits.TMR3IF = 0;
 10583  00472E  92A1               	bcf	161,1,c	;volatile
 10584  004730                     i1l4993:
 10585                           
 10586                           ;C:/Users/Will/Universal Documents/Academics/CU Boulder/2021/Fall 2021/Microavionics/Lab
      +                          s/Lab6/Watkins_William_Lab6_Part2.c: 639:     if(CCPR3X == TMR3X)
 10587  004730  0100               	movlb	0	; () banked
 10588  004732  51D4               	movf	_TMR3X& (0+255),w,b
 10589  004734  19FE               	xorwf	_CCPR3X& (0+255),w,b
 10590  004736  A4D8               	btfss	status,2,c
 10591  004738  EFA0  F023         	goto	i1u572_21
 10592  00473C  EFA2  F023         	goto	i1u572_20
 10593  004740                     i1u572_21:
 10594  004740  EFA4  F023         	goto	i1l4997
 10595  004744                     i1u572_20:
 10596  004744                     
 10597                           ; BSR set to: 0
 10598                           ;C:/Users/Will/Universal Documents/Academics/CU Boulder/2021/Fall 2021/Microavionics/Lab
      +                          s/Lab6/Watkins_William_Lab6_Part2.c: 640:     {;C:/Users/Will/Universal Documents/Academ
      +                          ics/CU Boulder/2021/Fall 2021/Microavionics/Labs/Lab6/Watkins_William_Lab6_Part2.c: 641:
      +                                   aliveLED();
 10599  004744  ECA6  F023         	call	_aliveLED	;wreg free
 10600  004748                     i1l4997:
 10601                           
 10602                           ;C:/Users/Will/Universal Documents/Academics/CU Boulder/2021/Fall 2021/Microavionics/Lab
      +                          s/Lab6/Watkins_William_Lab6_Part2.c: 643:     PIR4bits.CCP3IF = 0;
 10603  004748  90B7               	bcf	183,0,c	;volatile
 10604  00474A  0012               	return		;funcret
 10605  00474C                     __end_of_CCP3Handler:
 10606                           	callstack 0
 10607                           
 10608 ;; *************** function _aliveLED *****************
 10609 ;; Defined at:
 10610 ;;		line 737 in file "C:/Users/Will/Universal Documents/Academics/CU Boulder/2021/Fall 2021/Microavionics/Labs/Lab6/Watk
      +ins_William_Lab6_Part2.c"
 10611 ;; Parameters:    Size  Location     Type
 10612 ;;		None
 10613 ;; Auto vars:     Size  Location     Type
 10614 ;;		None
 10615 ;; Return value:  Size  Location     Type
 10616 ;;                  1    wreg      void 
 10617 ;; Registers used:
 10618 ;;		wreg, status,2, status,0
 10619 ;; Tracked objects:
 10620 ;;		On entry : 0/0
 10621 ;;		On exit  : 0/0
 10622 ;;		Unchanged: 0/0
 10623 ;; Data sizes:     COMRAM   BANK0   BANK1   BANK2   BANK3   BANK4   BANK5   BANK6   BANK7   BANK8   BANK9  BANK10  BANK1
      +1  BANK12  BANK13  BANK14  BANK15
 10624 ;;      Params:         0       0       0       0       0       0       0       0       0       0       0       0       
      +0       0       0       0       0
 10625 ;;      Locals:         0       0       0       0       0       0       0       0       0       0       0       0       
      +0       0       0       0       0
 10626 ;;      Temps:          0       0       0       0       0       0       0       0       0       0       0       0       
      +0       0       0       0       0
 10627 ;;      Totals:         0       0       0       0       0       0       0       0       0       0       0       0       
      +0       0       0       0       0
 10628 ;;Total ram usage:        0 bytes
 10629 ;; Hardware stack levels used: 1
 10630 ;; Hardware stack levels required when called: 2
 10631 ;; This function calls:
 10632 ;;		Nothing
 10633 ;; This function is called by:
 10634 ;;		_CCP3Handler
 10635 ;; This function uses a non-reentrant model
 10636 ;;
 10637                           
 10638                           	psect	text48
 10639  00474C                     __ptext48:
 10640                           	callstack 0
 10641  00474C                     _aliveLED:
 10642                           	callstack 17
 10643  00474C                     
 10644                           ;C:/Users/Will/Universal Documents/Academics/CU Boulder/2021/Fall 2021/Microavionics/Lab
      +                          s/Lab6/Watkins_William_Lab6_Part2.c: 739:     if(LATDbits.LATD4 == 1)
 10645  00474C  A88C               	btfss	140,4,c	;volatile
 10646  00474E  EFAB  F023         	goto	i1u541_21
 10647  004752  EFAD  F023         	goto	i1u541_20
 10648  004756                     i1u541_21:
 10649  004756  EFB9  F023         	goto	i1l391
 10650  00475A                     i1u541_20:
 10651  00475A                     
 10652                           ;C:/Users/Will/Universal Documents/Academics/CU Boulder/2021/Fall 2021/Microavionics/Lab
      +                          s/Lab6/Watkins_William_Lab6_Part2.c: 740:     {;C:/Users/Will/Universal Documents/Academ
      +                          ics/CU Boulder/2021/Fall 2021/Microavionics/Labs/Lab6/Watkins_William_Lab6_Part2.c: 741:
      +                                   LATDbits.LATD4 = 0;
 10653  00475A  988C               	bcf	140,4,c	;volatile
 10654  00475C                     
 10655                           ;C:/Users/Will/Universal Documents/Academics/CU Boulder/2021/Fall 2021/Microavionics/Lab
      +                          s/Lab6/Watkins_William_Lab6_Part2.c: 742:         currentCCPR3 += timeOFF;
 10656  00475C  0100               	movlb	0	; () banked
 10657  00475E  51E3               	movf	_timeOFF& (0+255),w,b
 10658  004760  27FA               	addwf	_currentCCPR3& (0+255),f,b
 10659  004762  51E4               	movf	(_timeOFF+1)& (0+255),w,b
 10660  004764  23FB               	addwfc	(_currentCCPR3+1)& (0+255),f,b
 10661  004766  51E5               	movf	(_timeOFF+2)& (0+255),w,b
 10662  004768  23FC               	addwfc	(_currentCCPR3+2)& (0+255),f,b
 10663  00476A  51E6               	movf	(_timeOFF+3)& (0+255),w,b
 10664  00476C  23FD               	addwfc	(_currentCCPR3+3)& (0+255),f,b
 10665                           
 10666                           ;C:/Users/Will/Universal Documents/Academics/CU Boulder/2021/Fall 2021/Microavionics/Lab
      +                          s/Lab6/Watkins_William_Lab6_Part2.c: 743:     }
 10667  00476E  EFC3  F023         	goto	i1l4689
 10668  004772                     i1l391:
 10669                           
 10670                           ;C:/Users/Will/Universal Documents/Academics/CU Boulder/2021/Fall 2021/Microavionics/Lab
      +                          s/Lab6/Watkins_William_Lab6_Part2.c: 745:     {;C:/Users/Will/Universal Documents/Academ
      +                          ics/CU Boulder/2021/Fall 2021/Microavionics/Labs/Lab6/Watkins_William_Lab6_Part2.c: 746:
      +                                   LATDbits.LATD4 = 1;
 10671  004772  888C               	bsf	140,4,c	;volatile
 10672  004774                     
 10673                           ;C:/Users/Will/Universal Documents/Academics/CU Boulder/2021/Fall 2021/Microavionics/Lab
      +                          s/Lab6/Watkins_William_Lab6_Part2.c: 747:         currentCCPR3 += timeON;
 10674  004774  0100               	movlb	0	; () banked
 10675  004776  51E7               	movf	_timeON& (0+255),w,b
 10676  004778  27FA               	addwf	_currentCCPR3& (0+255),f,b
 10677  00477A  51E8               	movf	(_timeON+1)& (0+255),w,b
 10678  00477C  23FB               	addwfc	(_currentCCPR3+1)& (0+255),f,b
 10679  00477E  51E9               	movf	(_timeON+2)& (0+255),w,b
 10680  004780  23FC               	addwfc	(_currentCCPR3+2)& (0+255),f,b
 10681  004782  51EA               	movf	(_timeON+3)& (0+255),w,b
 10682  004784  23FD               	addwfc	(_currentCCPR3+3)& (0+255),f,b
 10683  004786                     i1l4689:
 10684                           
 10685                           ; BSR set to: 0
 10686                           ;C:/Users/Will/Universal Documents/Academics/CU Boulder/2021/Fall 2021/Microavionics/Lab
      +                          s/Lab6/Watkins_William_Lab6_Part2.c: 750:     CCPR3X = currentCCPR3>>16 & 0xFF;
 10687  004786  C0FC  F0FE         	movff	_currentCCPR3+2,_CCPR3X
 10688  00478A                     
 10689                           ; BSR set to: 0
 10690                           ;C:/Users/Will/Universal Documents/Academics/CU Boulder/2021/Fall 2021/Microavionics/Lab
      +                          s/Lab6/Watkins_William_Lab6_Part2.c: 751:     CCPR3H = currentCCPR3>>8 & 0xFF;
 10691  00478A  C0FB  FF4B         	movff	_currentCCPR3+1,3915	;volatile
 10692  00478E                     
 10693                           ; BSR set to: 0
 10694                           ;C:/Users/Will/Universal Documents/Academics/CU Boulder/2021/Fall 2021/Microavionics/Lab
      +                          s/Lab6/Watkins_William_Lab6_Part2.c: 752:     CCPR3L = currentCCPR3 & 0xFF;
 10695  00478E  C0FA  FF4A         	movff	_currentCCPR3,3914	;volatile
 10696  004792                     
 10697                           ; BSR set to: 0
 10698  004792  0012               	return		;funcret
 10699  004794                     __end_of_aliveLED:
 10700                           	callstack 0
 10701                           
 10702 ;; *************** function _CCP1Handler *****************
 10703 ;; Defined at:
 10704 ;;		line 612 in file "C:/Users/Will/Universal Documents/Academics/CU Boulder/2021/Fall 2021/Microavionics/Labs/Lab6/Watk
      +ins_William_Lab6_Part2.c"
 10705 ;; Parameters:    Size  Location     Type
 10706 ;;		None
 10707 ;; Auto vars:     Size  Location     Type
 10708 ;;		None
 10709 ;; Return value:  Size  Location     Type
 10710 ;;                  1    wreg      void 
 10711 ;; Registers used:
 10712 ;;		wreg, status,2, status,0, cstack
 10713 ;; Tracked objects:
 10714 ;;		On entry : 0/0
 10715 ;;		On exit  : 0/0
 10716 ;;		Unchanged: 0/0
 10717 ;; Data sizes:     COMRAM   BANK0   BANK1   BANK2   BANK3   BANK4   BANK5   BANK6   BANK7   BANK8   BANK9  BANK10  BANK1
      +1  BANK12  BANK13  BANK14  BANK15
 10718 ;;      Params:         0       0       0       0       0       0       0       0       0       0       0       0       
      +0       0       0       0       0
 10719 ;;      Locals:         0       0       0       0       0       0       0       0       0       0       0       0       
      +0       0       0       0       0
 10720 ;;      Temps:          0       0       0       0       0       0       0       0       0       0       0       0       
      +0       0       0       0       0
 10721 ;;      Totals:         0       0       0       0       0       0       0       0       0       0       0       0       
      +0       0       0       0       0
 10722 ;;Total ram usage:        0 bytes
 10723 ;; Hardware stack levels used: 1
 10724 ;; Hardware stack levels required when called: 3
 10725 ;; This function calls:
 10726 ;;		_updateDAC
 10727 ;; This function is called by:
 10728 ;;		_LoPriISR
 10729 ;; This function uses a non-reentrant model
 10730 ;;
 10731                           
 10732                           	psect	text49
 10733  00497C                     __ptext49:
 10734                           	callstack 0
 10735  00497C                     _CCP1Handler:
 10736                           	callstack 17
 10737  00497C                     
 10738                           ;C:/Users/Will/Universal Documents/Academics/CU Boulder/2021/Fall 2021/Microavionics/Lab
      +                          s/Lab6/Watkins_William_Lab6_Part2.c: 615:     if(PIR1bits.TMR1IF)
 10739  00497C  A09E               	btfss	158,0,c	;volatile
 10740  00497E  EFC3  F024         	goto	i1u569_21
 10741  004982  EFC5  F024         	goto	i1u569_20
 10742  004986                     i1u569_21:
 10743  004986  EFC6  F024         	goto	i1l4981
 10744  00498A                     i1u569_20:
 10745  00498A                     
 10746                           ;C:/Users/Will/Universal Documents/Academics/CU Boulder/2021/Fall 2021/Microavionics/Lab
      +                          s/Lab6/Watkins_William_Lab6_Part2.c: 616:         PIR1bits.TMR1IF = 0;
 10747  00498A  909E               	bcf	158,0,c	;volatile
 10748  00498C                     i1l4981:
 10749                           
 10750                           ;C:/Users/Will/Universal Documents/Academics/CU Boulder/2021/Fall 2021/Microavionics/Lab
      +                          s/Lab6/Watkins_William_Lab6_Part2.c: 618:     CCPR1 += DACInterval;
 10751  00498C  0E42               	movlw	66
 10752  00498E  26BC               	addwf	188,f,c	;volatile
 10753  004990  0E0F               	movlw	15
 10754  004992  22BD               	addwfc	189,f,c	;volatile
 10755  004994                     
 10756                           ;C:/Users/Will/Universal Documents/Academics/CU Boulder/2021/Fall 2021/Microavionics/Lab
      +                          s/Lab6/Watkins_William_Lab6_Part2.c: 620:     updateDAC();
 10757  004994  EC02  F01F         	call	_updateDAC	;wreg free
 10758  004998  0012               	return		;funcret
 10759  00499A                     __end_of_CCP1Handler:
 10760                           	callstack 0
 10761                           
 10762 ;; *************** function _updateDAC *****************
 10763 ;; Defined at:
 10764 ;;		line 889 in file "C:/Users/Will/Universal Documents/Academics/CU Boulder/2021/Fall 2021/Microavionics/Labs/Lab6/Watk
      +ins_William_Lab6_Part2.c"
 10765 ;; Parameters:    Size  Location     Type
 10766 ;;		None
 10767 ;; Auto vars:     Size  Location     Type
 10768 ;;		None
 10769 ;; Return value:  Size  Location     Type
 10770 ;;                  1    wreg      void 
 10771 ;; Registers used:
 10772 ;;		wreg, status,2, status,0
 10773 ;; Tracked objects:
 10774 ;;		On entry : 0/0
 10775 ;;		On exit  : 0/0
 10776 ;;		Unchanged: 0/0
 10777 ;; Data sizes:     COMRAM   BANK0   BANK1   BANK2   BANK3   BANK4   BANK5   BANK6   BANK7   BANK8   BANK9  BANK10  BANK1
      +1  BANK12  BANK13  BANK14  BANK15
 10778 ;;      Params:         0       0       0       0       0       0       0       0       0       0       0       0       
      +0       0       0       0       0
 10779 ;;      Locals:         0       0       0       0       0       0       0       0       0       0       0       0       
      +0       0       0       0       0
 10780 ;;      Temps:          0       0       0       0       0       0       0       0       0       0       0       0       
      +0       0       0       0       0
 10781 ;;      Totals:         0       0       0       0       0       0       0       0       0       0       0       0       
      +0       0       0       0       0
 10782 ;;Total ram usage:        0 bytes
 10783 ;; Hardware stack levels used: 1
 10784 ;; Hardware stack levels required when called: 2
 10785 ;; This function calls:
 10786 ;;		Nothing
 10787 ;; This function is called by:
 10788 ;;		_CCP1Handler
 10789 ;; This function uses a non-reentrant model
 10790 ;;
 10791                           
 10792                           	psect	text50
 10793  003E04                     __ptext50:
 10794                           	callstack 0
 10795  003E04                     _updateDAC:
 10796                           	callstack 17
 10797  003E04                     
 10798                           ;C:/Users/Will/Universal Documents/Academics/CU Boulder/2021/Fall 2021/Microavionics/Lab
      +                          s/Lab6/Watkins_William_Lab6_Part2.c: 891:     DACTempSend = 0;
 10799  003E04  0E00               	movlw	0
 10800  003E06  0100               	movlb	0	; () banked
 10801  003E08  6FC5               	movwf	(_DACTempSend+1)& (0+255),b
 10802  003E0A  0E00               	movlw	0
 10803  003E0C  6FC4               	movwf	_DACTempSend& (0+255),b
 10804  003E0E                     
 10805                           ; BSR set to: 0
 10806                           ;C:/Users/Will/Universal Documents/Academics/CU Boulder/2021/Fall 2021/Microavionics/Lab
      +                          s/Lab6/Watkins_William_Lab6_Part2.c: 892:     LATEbits.LATE0 = 0;
 10807  003E0E  908D               	bcf	141,0,c	;volatile
 10808  003E10                     
 10809                           ; BSR set to: 0
 10810                           ;C:/Users/Will/Universal Documents/Academics/CU Boulder/2021/Fall 2021/Microavionics/Lab
      +                          s/Lab6/Watkins_William_Lab6_Part2.c: 893:     DACTempSend = DACData | currentBin;
 10811  003E10  51C8               	movf	_currentBin& (0+255),w,b
 10812  003E12  11EB               	iorwf	_DACData& (0+255),w,b
 10813  003E14  6FC4               	movwf	_DACTempSend& (0+255),b
 10814  003E16  51C9               	movf	(_currentBin+1)& (0+255),w,b
 10815  003E18  11EC               	iorwf	(_DACData+1)& (0+255),w,b
 10816  003E1A  6FC5               	movwf	(_DACTempSend+1)& (0+255),b
 10817  003E1C                     
 10818                           ; BSR set to: 0
 10819                           ;C:/Users/Will/Universal Documents/Academics/CU Boulder/2021/Fall 2021/Microavionics/Lab
      +                          s/Lab6/Watkins_William_Lab6_Part2.c: 894:     SSP1BUF = DACTempSend>>8;
 10820  003E1C  51C5               	movf	(_DACTempSend+1)& (0+255),w,b
 10821  003E1E  6EC9               	movwf	201,c	;volatile
 10822  003E20                     i1l428:
 10823  003E20  A0C7               	btfss	199,0,c	;volatile
 10824  003E22  EF15  F01F         	goto	i1u536_21
 10825  003E26  EF17  F01F         	goto	i1u536_20
 10826  003E2A                     i1u536_21:
 10827  003E2A  EF10  F01F         	goto	i1l428
 10828  003E2E                     i1u536_20:
 10829  003E2E                     
 10830                           ;C:/Users/Will/Universal Documents/Academics/CU Boulder/2021/Fall 2021/Microavionics/Lab
      +                          s/Lab6/Watkins_William_Lab6_Part2.c: 896:     trashSPI = SSP1BUF;
 10831  003E2E  CFC9 F0D2          	movff	4041,_trashSPI	;volatile
 10832                           
 10833                           ;C:/Users/Will/Universal Documents/Academics/CU Boulder/2021/Fall 2021/Microavionics/Lab
      +                          s/Lab6/Watkins_William_Lab6_Part2.c: 897:     SSP1BUF = DACTempSend & 0xFF;
 10834  003E32  C0C4  FFC9         	movff	_DACTempSend,4041	;volatile
 10835  003E36                     i1l431:
 10836  003E36  A0C7               	btfss	199,0,c	;volatile
 10837  003E38  EF20  F01F         	goto	i1u537_21
 10838  003E3C  EF22  F01F         	goto	i1u537_20
 10839  003E40                     i1u537_21:
 10840  003E40  EF1B  F01F         	goto	i1l431
 10841  003E44                     i1u537_20:
 10842  003E44                     
 10843                           ;C:/Users/Will/Universal Documents/Academics/CU Boulder/2021/Fall 2021/Microavionics/Lab
      +                          s/Lab6/Watkins_William_Lab6_Part2.c: 899:     trashSPI = SSP1BUF;
 10844  003E44  CFC9 F0D2          	movff	4041,_trashSPI	;volatile
 10845                           
 10846                           ;C:/Users/Will/Universal Documents/Academics/CU Boulder/2021/Fall 2021/Microavionics/Lab
      +                          s/Lab6/Watkins_William_Lab6_Part2.c: 900:     LATEbits.LATE0 = 1;
 10847  003E48  808D               	bsf	141,0,c	;volatile
 10848  003E4A                     
 10849                           ;C:/Users/Will/Universal Documents/Academics/CU Boulder/2021/Fall 2021/Microavionics/Lab
      +                          s/Lab6/Watkins_William_Lab6_Part2.c: 905:     if(upDown == 0)
 10850  003E4A  0100               	movlb	0	; () banked
 10851  003E4C  51D3               	movf	_upDown& (0+255),w,b
 10852  003E4E  A4D8               	btfss	status,2,c
 10853  003E50  EF2C  F01F         	goto	i1u538_21
 10854  003E54  EF2E  F01F         	goto	i1u538_20
 10855  003E58                     i1u538_21:
 10856  003E58  EF49  F01F         	goto	i1l4671
 10857  003E5C                     i1u538_20:
 10858  003E5C                     
 10859                           ; BSR set to: 0
 10860                           ;C:/Users/Will/Universal Documents/Academics/CU Boulder/2021/Fall 2021/Microavionics/Lab
      +                          s/Lab6/Watkins_William_Lab6_Part2.c: 906:     {;C:/Users/Will/Universal Documents/Academ
      +                          ics/CU Boulder/2021/Fall 2021/Microavionics/Labs/Lab6/Watkins_William_Lab6_Part2.c: 907:
      +                                   if(currentBin == 4092)
 10861  003E5C  0EFC               	movlw	252
 10862  003E5E  19C8               	xorwf	_currentBin& (0+255),w,b
 10863  003E60  E107               	bnz	i1u539_21
 10864  003E62  0E0F               	movlw	15
 10865  003E64  19C9               	xorwf	(_currentBin+1)& (0+255),w,b
 10866  003E66  A4D8               	btfss	status,2,c
 10867  003E68  EF38  F01F         	goto	i1u539_21
 10868  003E6C  EF3A  F01F         	goto	i1u539_20
 10869  003E70                     i1u539_21:
 10870  003E70  EF43  F01F         	goto	i1l4669
 10871  003E74                     i1u539_20:
 10872  003E74                     
 10873                           ; BSR set to: 0
 10874                           ;C:/Users/Will/Universal Documents/Academics/CU Boulder/2021/Fall 2021/Microavionics/Lab
      +                          s/Lab6/Watkins_William_Lab6_Part2.c: 908:         {;C:/Users/Will/Universal Documents/Ac
      +                          ademics/CU Boulder/2021/Fall 2021/Microavionics/Labs/Lab6/Watkins_William_Lab6_Part2.c: 
      +                          909:             upDown = 1;
 10875  003E74  0E01               	movlw	1
 10876  003E76  6FD3               	movwf	_upDown& (0+255),b
 10877  003E78                     
 10878                           ; BSR set to: 0
 10879                           ;C:/Users/Will/Universal Documents/Academics/CU Boulder/2021/Fall 2021/Microavionics/Lab
      +                          s/Lab6/Watkins_William_Lab6_Part2.c: 910:             currentBin -= 4;
 10880  003E78  0E04               	movlw	4
 10881  003E7A  5FC8               	subwf	_currentBin& (0+255),f,b
 10882  003E7C  0E00               	movlw	0
 10883  003E7E  5BC9               	subwfb	(_currentBin+1)& (0+255),f,b
 10884  003E80                     
 10885                           ; BSR set to: 0
 10886                           ;C:/Users/Will/Universal Documents/Academics/CU Boulder/2021/Fall 2021/Microavionics/Lab
      +                          s/Lab6/Watkins_William_Lab6_Part2.c: 911:             LATAbits.LA4 = 1;
 10887  003E80  8889               	bsf	137,4,c	;volatile
 10888                           
 10889                           ;C:/Users/Will/Universal Documents/Academics/CU Boulder/2021/Fall 2021/Microavionics/Lab
      +                          s/Lab6/Watkins_William_Lab6_Part2.c: 912:         }
 10890  003E82  EF5F  F01F         	goto	i1l440
 10891  003E86                     i1l4669:
 10892                           
 10893                           ; BSR set to: 0
 10894                           ;C:/Users/Will/Universal Documents/Academics/CU Boulder/2021/Fall 2021/Microavionics/Lab
      +                          s/Lab6/Watkins_William_Lab6_Part2.c: 914:         {;C:/Users/Will/Universal Documents/Ac
      +                          ademics/CU Boulder/2021/Fall 2021/Microavionics/Labs/Lab6/Watkins_William_Lab6_Part2.c: 
      +                          915:             currentBin += 4;
 10895  003E86  0E04               	movlw	4
 10896  003E88  27C8               	addwf	_currentBin& (0+255),f,b
 10897  003E8A  0E00               	movlw	0
 10898  003E8C  23C9               	addwfc	(_currentBin+1)& (0+255),f,b
 10899  003E8E  EF5F  F01F         	goto	i1l440
 10900  003E92                     i1l4671:
 10901                           
 10902                           ; BSR set to: 0
 10903                           ;C:/Users/Will/Universal Documents/Academics/CU Boulder/2021/Fall 2021/Microavionics/Lab
      +                          s/Lab6/Watkins_William_Lab6_Part2.c: 919:     {;C:/Users/Will/Universal Documents/Academ
      +                          ics/CU Boulder/2021/Fall 2021/Microavionics/Labs/Lab6/Watkins_William_Lab6_Part2.c: 920:
      +                                   if(currentBin == 0)
 10904  003E92  51C8               	movf	_currentBin& (0+255),w,b
 10905  003E94  11C9               	iorwf	(_currentBin+1)& (0+255),w,b
 10906  003E96  A4D8               	btfss	status,2,c
 10907  003E98  EF50  F01F         	goto	i1u540_21
 10908  003E9C  EF52  F01F         	goto	i1u540_20
 10909  003EA0                     i1u540_21:
 10910  003EA0  EF5B  F01F         	goto	i1l4679
 10911  003EA4                     i1u540_20:
 10912  003EA4                     
 10913                           ; BSR set to: 0
 10914                           ;C:/Users/Will/Universal Documents/Academics/CU Boulder/2021/Fall 2021/Microavionics/Lab
      +                          s/Lab6/Watkins_William_Lab6_Part2.c: 921:         {;C:/Users/Will/Universal Documents/Ac
      +                          ademics/CU Boulder/2021/Fall 2021/Microavionics/Labs/Lab6/Watkins_William_Lab6_Part2.c: 
      +                          922:             upDown = 0;
 10915  003EA4  0E00               	movlw	0
 10916  003EA6  6FD3               	movwf	_upDown& (0+255),b
 10917  003EA8                     
 10918                           ; BSR set to: 0
 10919                           ;C:/Users/Will/Universal Documents/Academics/CU Boulder/2021/Fall 2021/Microavionics/Lab
      +                          s/Lab6/Watkins_William_Lab6_Part2.c: 923:             currentBin += 4;
 10920  003EA8  0E04               	movlw	4
 10921  003EAA  27C8               	addwf	_currentBin& (0+255),f,b
 10922  003EAC  0E00               	movlw	0
 10923  003EAE  23C9               	addwfc	(_currentBin+1)& (0+255),f,b
 10924  003EB0                     
 10925                           ; BSR set to: 0
 10926                           ;C:/Users/Will/Universal Documents/Academics/CU Boulder/2021/Fall 2021/Microavionics/Lab
      +                          s/Lab6/Watkins_William_Lab6_Part2.c: 924:             LATAbits.LA4 = 0;
 10927  003EB0  9889               	bcf	137,4,c	;volatile
 10928                           
 10929                           ;C:/Users/Will/Universal Documents/Academics/CU Boulder/2021/Fall 2021/Microavionics/Lab
      +                          s/Lab6/Watkins_William_Lab6_Part2.c: 925:         }
 10930  003EB2  EF5F  F01F         	goto	i1l440
 10931  003EB6                     i1l4679:
 10932                           
 10933                           ; BSR set to: 0
 10934                           ;C:/Users/Will/Universal Documents/Academics/CU Boulder/2021/Fall 2021/Microavionics/Lab
      +                          s/Lab6/Watkins_William_Lab6_Part2.c: 927:         {;C:/Users/Will/Universal Documents/Ac
      +                          ademics/CU Boulder/2021/Fall 2021/Microavionics/Labs/Lab6/Watkins_William_Lab6_Part2.c: 
      +                          928:             currentBin -= 4;
 10935  003EB6  0E04               	movlw	4
 10936  003EB8  5FC8               	subwf	_currentBin& (0+255),f,b
 10937  003EBA  0E00               	movlw	0
 10938  003EBC  5BC9               	subwfb	(_currentBin+1)& (0+255),f,b
 10939  003EBE                     i1l440:
 10940                           
 10941                           ; BSR set to: 0
 10942  003EBE  0012               	return		;funcret
 10943  003EC0                     __end_of_updateDAC:
 10944                           	callstack 0
 10945                           
 10946 ;; *************** function _HiPriISR *****************
 10947 ;; Defined at:
 10948 ;;		line 539 in file "C:/Users/Will/Universal Documents/Academics/CU Boulder/2021/Fall 2021/Microavionics/Labs/Lab6/Watk
      +ins_William_Lab6_Part2.c"
 10949 ;; Parameters:    Size  Location     Type
 10950 ;;		None
 10951 ;; Auto vars:     Size  Location     Type
 10952 ;;		None
 10953 ;; Return value:  Size  Location     Type
 10954 ;;                  1    wreg      void 
 10955 ;; Registers used:
 10956 ;;		wreg, fsr2l, fsr2h, status,2, status,0, cstack
 10957 ;; Tracked objects:
 10958 ;;		On entry : 0/0
 10959 ;;		On exit  : 0/0
 10960 ;;		Unchanged: 0/0
 10961 ;; Data sizes:     COMRAM   BANK0   BANK1   BANK2   BANK3   BANK4   BANK5   BANK6   BANK7   BANK8   BANK9  BANK10  BANK1
      +1  BANK12  BANK13  BANK14  BANK15
 10962 ;;      Params:         0       0       0       0       0       0       0       0       0       0       0       0       
      +0       0       0       0       0
 10963 ;;      Locals:         0       0       0       0       0       0       0       0       0       0       0       0       
      +0       0       0       0       0
 10964 ;;      Temps:          2       0       0       0       0       0       0       0       0       0       0       0       
      +0       0       0       0       0
 10965 ;;      Totals:         2       0       0       0       0       0       0       0       0       0       0       0       
      +0       0       0       0       0
 10966 ;;Total ram usage:        2 bytes
 10967 ;; Hardware stack levels used: 1
 10968 ;; Hardware stack levels required when called: 1
 10969 ;; This function calls:
 10970 ;;		_EUSARTCommandHandler
 10971 ;;		_sendNext
 10972 ;; This function is called by:
 10973 ;;		Interrupt level 2
 10974 ;; This function uses a non-reentrant model
 10975 ;;
 10976                           
 10977                           	psect	intcode
 10978  000008                     __pintcode:
 10979                           	callstack 0
 10980  000008                     _HiPriISR:
 10981                           	callstack 17
 10982                           
 10983                           ; BSR set to: 0
 10984                           ;incstack = 0
 10985  000008  8257               	bsf	int$flags,1,c	;set compiler interrupt flag (level 2)
 10986  00000A  EF5B  F023         	goto	int_func
 10987                           
 10988                           	psect	intcode_body
 10989  0046B6                     __pintcode_body:
 10990                           	callstack 17
 10991  0046B6                     int_func:
 10992                           	callstack 17
 10993  0046B6  CFD9 F002          	movff	fsr2l,??_HiPriISR
 10994  0046BA  CFDA F003          	movff	fsr2h,??_HiPriISR+1
 10995  0046BE                     i2l344:
 10996                           
 10997                           ;C:/Users/Will/Universal Documents/Academics/CU Boulder/2021/Fall 2021/Microavionics/Lab
      +                          s/Lab6/Watkins_William_Lab6_Part2.c: 541:     {;C:/Users/Will/Universal Documents/Academ
      +                          ics/CU Boulder/2021/Fall 2021/Microavionics/Labs/Lab6/Watkins_William_Lab6_Part2.c: 542:
      +                                   if(PIR1bits.RC1IF)
 10998  0046BE  AA9E               	btfss	158,5,c	;volatile
 10999  0046C0  EF64  F023         	goto	i2u581_41
 11000  0046C4  EF66  F023         	goto	i2u581_40
 11001  0046C8                     i2u581_41:
 11002  0046C8  EF6A  F023         	goto	i2l345
 11003  0046CC                     i2u581_40:
 11004  0046CC                     
 11005                           ;C:/Users/Will/Universal Documents/Academics/CU Boulder/2021/Fall 2021/Microavionics/Lab
      +                          s/Lab6/Watkins_William_Lab6_Part2.c: 543:         {;C:/Users/Will/Universal Documents/Ac
      +                          ademics/CU Boulder/2021/Fall 2021/Microavionics/Labs/Lab6/Watkins_William_Lab6_Part2.c: 
      +                          544:             EUSARTCommandHandler();
 11006  0046CC  EC11  F022         	call	_EUSARTCommandHandler	;wreg free
 11007                           
 11008                           ;C:/Users/Will/Universal Documents/Academics/CU Boulder/2021/Fall 2021/Microavionics/Lab
      +                          s/Lab6/Watkins_William_Lab6_Part2.c: 545:             continue;
 11009  0046D0  EF5F  F023         	goto	i2l344
 11010  0046D4                     i2l345:
 11011                           
 11012                           ;C:/Users/Will/Universal Documents/Academics/CU Boulder/2021/Fall 2021/Microavionics/Lab
      +                          s/Lab6/Watkins_William_Lab6_Part2.c: 548:         if(PIR1bits.TX1IF && PIE1bits.TX1IE)
 11013  0046D4  A89E               	btfss	158,4,c	;volatile
 11014  0046D6  EF6F  F023         	goto	i2u582_41
 11015  0046DA  EF71  F023         	goto	i2u582_40
 11016  0046DE                     i2u582_41:
 11017  0046DE  EF7C  F023         	goto	i2l349
 11018  0046E2                     i2u582_40:
 11019  0046E2  A89D               	btfss	157,4,c	;volatile
 11020  0046E4  EF76  F023         	goto	i2u583_41
 11021  0046E8  EF78  F023         	goto	i2u583_40
 11022  0046EC                     i2u583_41:
 11023  0046EC  EF7C  F023         	goto	i2l349
 11024  0046F0                     i2u583_40:
 11025  0046F0                     
 11026                           ;C:/Users/Will/Universal Documents/Academics/CU Boulder/2021/Fall 2021/Microavionics/Lab
      +                          s/Lab6/Watkins_William_Lab6_Part2.c: 549:         {;C:/Users/Will/Universal Documents/Ac
      +                          ademics/CU Boulder/2021/Fall 2021/Microavionics/Labs/Lab6/Watkins_William_Lab6_Part2.c: 
      +                          550:             sendNext();
 11027  0046F0  EC6D  F020         	call	_sendNext	;wreg free
 11028                           
 11029                           ;C:/Users/Will/Universal Documents/Academics/CU Boulder/2021/Fall 2021/Microavionics/Lab
      +                          s/Lab6/Watkins_William_Lab6_Part2.c: 551:             continue;
 11030  0046F4  EF5F  F023         	goto	i2l344
 11031  0046F8                     i2l349:
 11032  0046F8  C003  FFDA         	movff	??_HiPriISR+1,fsr2h
 11033  0046FC  C002  FFD9         	movff	??_HiPriISR,fsr2l
 11034  004700  9257               	bcf	int$flags,1,c	;clear compiler interrupt flag (level 2)
 11035  004702  0011               	retfie		f
 11036  004704                     __end_of_HiPriISR:
 11037                           	callstack 0
 11038                           
 11039 ;; *************** function _sendNext *****************
 11040 ;; Defined at:
 11041 ;;		line 848 in file "C:/Users/Will/Universal Documents/Academics/CU Boulder/2021/Fall 2021/Microavionics/Labs/Lab6/Watk
      +ins_William_Lab6_Part2.c"
 11042 ;; Parameters:    Size  Location     Type
 11043 ;;		None
 11044 ;; Auto vars:     Size  Location     Type
 11045 ;;		None
 11046 ;; Return value:  Size  Location     Type
 11047 ;;                  1    wreg      void 
 11048 ;; Registers used:
 11049 ;;		wreg, fsr2l, fsr2h, status,2, status,0
 11050 ;; Tracked objects:
 11051 ;;		On entry : 0/0
 11052 ;;		On exit  : 0/0
 11053 ;;		Unchanged: 0/0
 11054 ;; Data sizes:     COMRAM   BANK0   BANK1   BANK2   BANK3   BANK4   BANK5   BANK6   BANK7   BANK8   BANK9  BANK10  BANK1
      +1  BANK12  BANK13  BANK14  BANK15
 11055 ;;      Params:         0       0       0       0       0       0       0       0       0       0       0       0       
      +0       0       0       0       0
 11056 ;;      Locals:         0       0       0       0       0       0       0       0       0       0       0       0       
      +0       0       0       0       0
 11057 ;;      Temps:          0       0       0       0       0       0       0       0       0       0       0       0       
      +0       0       0       0       0
 11058 ;;      Totals:         0       0       0       0       0       0       0       0       0       0       0       0       
      +0       0       0       0       0
 11059 ;;Total ram usage:        0 bytes
 11060 ;; Hardware stack levels used: 1
 11061 ;; This function calls:
 11062 ;;		Nothing
 11063 ;; This function is called by:
 11064 ;;		_HiPriISR
 11065 ;; This function uses a non-reentrant model
 11066 ;;
 11067                           
 11068                           	psect	text52
 11069  0040DA                     __ptext52:
 11070                           	callstack 0
 11071  0040DA                     _sendNext:
 11072                           	callstack 17
 11073  0040DA                     
 11074                           ;C:/Users/Will/Universal Documents/Academics/CU Boulder/2021/Fall 2021/Microavionics/Lab
      +                          s/Lab6/Watkins_William_Lab6_Part2.c: 852:     if(sendTEMP == 1 && sendI < 6)
 11075  0040DA  0100               	movlb	0	; () banked
 11076  0040DC  05E0               	decf	_sendTEMP& (0+255),w,b
 11077  0040DE  A4D8               	btfss	status,2,c
 11078  0040E0  EF74  F020         	goto	i2u563_41
 11079  0040E4  EF76  F020         	goto	i2u563_40
 11080  0040E8                     i2u563_41:
 11081  0040E8  EF89  F020         	goto	i2l4957
 11082  0040EC                     i2u563_40:
 11083  0040EC                     
 11084                           ; BSR set to: 0
 11085  0040EC  0E06               	movlw	6
 11086  0040EE  6054               	cpfslt	_sendI^0,c
 11087  0040F0  EF7C  F020         	goto	i2u564_41
 11088  0040F4  EF7E  F020         	goto	i2u564_40
 11089  0040F8                     i2u564_41:
 11090  0040F8  EF89  F020         	goto	i2l4957
 11091  0040FC                     i2u564_40:
 11092  0040FC                     
 11093                           ; BSR set to: 0
 11094                           ;C:/Users/Will/Universal Documents/Academics/CU Boulder/2021/Fall 2021/Microavionics/Lab
      +                          s/Lab6/Watkins_William_Lab6_Part2.c: 853:     {;C:/Users/Will/Universal Documents/Academ
      +                          ics/CU Boulder/2021/Fall 2021/Microavionics/Labs/Lab6/Watkins_William_Lab6_Part2.c: 854:
      +                                   TXREG1 = tempSend[sendI];
 11095  0040FC  0E80               	movlw	low _tempSend
 11096  0040FE  2454               	addwf	_sendI^0,w,c
 11097  004100  6ED9               	movwf	fsr2l,c
 11098  004102  6ADA               	clrf	fsr2h,c
 11099  004104  0E01               	movlw	high _tempSend
 11100  004106  22DA               	addwfc	fsr2h,f,c
 11101  004108  50DF               	movf	indf2,w,c
 11102  00410A  6EAD               	movwf	173,c	;volatile
 11103  00410C                     i2l4955:
 11104                           
 11105                           ; BSR set to: 0
 11106                           ;C:/Users/Will/Universal Documents/Academics/CU Boulder/2021/Fall 2021/Microavionics/Lab
      +                          s/Lab6/Watkins_William_Lab6_Part2.c: 855:         sendI++;
 11107  00410C  2A54               	incf	_sendI^0,f,c
 11108                           
 11109                           ;C:/Users/Will/Universal Documents/Academics/CU Boulder/2021/Fall 2021/Microavionics/Lab
      +                          s/Lab6/Watkins_William_Lab6_Part2.c: 856:     }
 11110  00410E  EFC4  F020         	goto	i2l425
 11111  004112                     i2l4957:
 11112                           
 11113                           ; BSR set to: 0
 11114  004112  0455               	decf	_sendPOT^0,w,c
 11115  004114  A4D8               	btfss	status,2,c
 11116  004116  EF8F  F020         	goto	i2u565_41
 11117  00411A  EF91  F020         	goto	i2u565_40
 11118  00411E                     i2u565_41:
 11119  00411E  EFA3  F020         	goto	i2l4965
 11120  004122                     i2u565_40:
 11121  004122                     
 11122                           ; BSR set to: 0
 11123  004122  0E06               	movlw	6
 11124  004124  6054               	cpfslt	_sendI^0,c
 11125  004126  EF97  F020         	goto	i2u566_41
 11126  00412A  EF99  F020         	goto	i2u566_40
 11127  00412E                     i2u566_41:
 11128  00412E  EFA3  F020         	goto	i2l4965
 11129  004132                     i2u566_40:
 11130  004132                     
 11131                           ; BSR set to: 0
 11132                           ;C:/Users/Will/Universal Documents/Academics/CU Boulder/2021/Fall 2021/Microavionics/Lab
      +                          s/Lab6/Watkins_William_Lab6_Part2.c: 858:     {;C:/Users/Will/Universal Documents/Academ
      +                          ics/CU Boulder/2021/Fall 2021/Microavionics/Labs/Lab6/Watkins_William_Lab6_Part2.c: 859:
      +                                   TXREG1 = potSend[sendI];
 11133  004132  0E79               	movlw	low _potSend
 11134  004134  2454               	addwf	_sendI^0,w,c
 11135  004136  6ED9               	movwf	fsr2l,c
 11136  004138  6ADA               	clrf	fsr2h,c
 11137  00413A  0E01               	movlw	high _potSend
 11138  00413C  22DA               	addwfc	fsr2h,f,c
 11139  00413E  50DF               	movf	indf2,w,c
 11140  004140  6EAD               	movwf	173,c	;volatile
 11141  004142  EF86  F020         	goto	i2l4955
 11142  004146                     i2l4965:
 11143                           
 11144                           ; BSR set to: 0
 11145  004146  05DF               	decf	_sendCONT& (0+255),w,b
 11146  004148  A4D8               	btfss	status,2,c
 11147  00414A  EFA9  F020         	goto	i2u567_41
 11148  00414E  EFAB  F020         	goto	i2u567_40
 11149  004152                     i2u567_41:
 11150  004152  EFBD  F020         	goto	i2l4973
 11151  004156                     i2u567_40:
 11152  004156                     
 11153                           ; BSR set to: 0
 11154  004156  0E12               	movlw	18
 11155  004158  6054               	cpfslt	_sendI^0,c
 11156  00415A  EFB1  F020         	goto	i2u568_41
 11157  00415E  EFB3  F020         	goto	i2u568_40
 11158  004162                     i2u568_41:
 11159  004162  EFBD  F020         	goto	i2l4973
 11160  004166                     i2u568_40:
 11161  004166                     
 11162                           ; BSR set to: 0
 11163                           ;C:/Users/Will/Universal Documents/Academics/CU Boulder/2021/Fall 2021/Microavionics/Lab
      +                          s/Lab6/Watkins_William_Lab6_Part2.c: 863:     {;C:/Users/Will/Universal Documents/Academ
      +                          ics/CU Boulder/2021/Fall 2021/Microavionics/Labs/Lab6/Watkins_William_Lab6_Part2.c: 864:
      +                                   TXREG1 = contSend[sendI];
 11164  004166  0E66               	movlw	low _contSend
 11165  004168  2454               	addwf	_sendI^0,w,c
 11166  00416A  6ED9               	movwf	fsr2l,c
 11167  00416C  6ADA               	clrf	fsr2h,c
 11168  00416E  0E01               	movlw	high _contSend
 11169  004170  22DA               	addwfc	fsr2h,f,c
 11170  004172  50DF               	movf	indf2,w,c
 11171  004174  6EAD               	movwf	173,c	;volatile
 11172  004176  EF86  F020         	goto	i2l4955
 11173  00417A                     i2l4973:
 11174                           
 11175                           ; BSR set to: 0
 11176                           ;C:/Users/Will/Universal Documents/Academics/CU Boulder/2021/Fall 2021/Microavionics/Lab
      +                          s/Lab6/Watkins_William_Lab6_Part2.c: 869:     {;C:/Users/Will/Universal Documents/Academ
      +                          ics/CU Boulder/2021/Fall 2021/Microavionics/Labs/Lab6/Watkins_William_Lab6_Part2.c: 870:
      +                                   sendTEMP = 0;
 11177  00417A  0E00               	movlw	0
 11178  00417C  6FE0               	movwf	_sendTEMP& (0+255),b
 11179                           
 11180                           ;C:/Users/Will/Universal Documents/Academics/CU Boulder/2021/Fall 2021/Microavionics/Lab
      +                          s/Lab6/Watkins_William_Lab6_Part2.c: 871:         sendPOT = 0;
 11181  00417E  0E00               	movlw	0
 11182  004180  6E55               	movwf	_sendPOT^0,c
 11183                           
 11184                           ;C:/Users/Will/Universal Documents/Academics/CU Boulder/2021/Fall 2021/Microavionics/Lab
      +                          s/Lab6/Watkins_William_Lab6_Part2.c: 872:         sendI = 0;
 11185  004182  0E00               	movlw	0
 11186  004184  6E54               	movwf	_sendI^0,c
 11187  004186                     
 11188                           ; BSR set to: 0
 11189                           ;C:/Users/Will/Universal Documents/Academics/CU Boulder/2021/Fall 2021/Microavionics/Lab
      +                          s/Lab6/Watkins_William_Lab6_Part2.c: 873:         PIE1bits.TX1IE = 0;
 11190  004186  989D               	bcf	157,4,c	;volatile
 11191  004188                     i2l425:
 11192                           
 11193                           ; BSR set to: 0
 11194  004188  0012               	return		;funcret
 11195  00418A                     __end_of_sendNext:
 11196                           	callstack 0
 11197                           
 11198 ;; *************** function _EUSARTCommandHandler *****************
 11199 ;; Defined at:
 11200 ;;		line 706 in file "C:/Users/Will/Universal Documents/Academics/CU Boulder/2021/Fall 2021/Microavionics/Labs/Lab6/Watk
      +ins_William_Lab6_Part2.c"
 11201 ;; Parameters:    Size  Location     Type
 11202 ;;		None
 11203 ;; Auto vars:     Size  Location     Type
 11204 ;;		None
 11205 ;; Return value:  Size  Location     Type
 11206 ;;                  1    wreg      void 
 11207 ;; Registers used:
 11208 ;;		wreg, fsr2l, fsr2h, status,2, status,0
 11209 ;; Tracked objects:
 11210 ;;		On entry : 0/0
 11211 ;;		On exit  : 0/0
 11212 ;;		Unchanged: 0/0
 11213 ;; Data sizes:     COMRAM   BANK0   BANK1   BANK2   BANK3   BANK4   BANK5   BANK6   BANK7   BANK8   BANK9  BANK10  BANK1
      +1  BANK12  BANK13  BANK14  BANK15
 11214 ;;      Params:         0       0       0       0       0       0       0       0       0       0       0       0       
      +0       0       0       0       0
 11215 ;;      Locals:         0       0       0       0       0       0       0       0       0       0       0       0       
      +0       0       0       0       0
 11216 ;;      Temps:          1       0       0       0       0       0       0       0       0       0       0       0       
      +0       0       0       0       0
 11217 ;;      Totals:         1       0       0       0       0       0       0       0       0       0       0       0       
      +0       0       0       0       0
 11218 ;;Total ram usage:        1 bytes
 11219 ;; Hardware stack levels used: 1
 11220 ;; This function calls:
 11221 ;;		Nothing
 11222 ;; This function is called by:
 11223 ;;		_HiPriISR
 11224 ;; This function uses a non-reentrant model
 11225 ;;
 11226                           
 11227                           	psect	text53
 11228  004422                     __ptext53:
 11229                           	callstack 0
 11230  004422                     _EUSARTCommandHandler:
 11231                           	callstack 17
 11232  004422                     
 11233                           ;C:/Users/Will/Universal Documents/Academics/CU Boulder/2021/Fall 2021/Microavionics/Lab
      +                          s/Lab6/Watkins_William_Lab6_Part2.c: 707:     if(RCSTA1bits.FERR)
 11234  004422  A4AB               	btfss	171,2,c	;volatile
 11235  004424  EF16  F022         	goto	i2u560_41
 11236  004428  EF18  F022         	goto	i2u560_40
 11237  00442C                     i2u560_41:
 11238  00442C  EF1C  F022         	goto	i2l384
 11239  004430                     i2u560_40:
 11240  004430                     
 11241                           ;C:/Users/Will/Universal Documents/Academics/CU Boulder/2021/Fall 2021/Microavionics/Lab
      +                          s/Lab6/Watkins_William_Lab6_Part2.c: 708:     {;C:/Users/Will/Universal Documents/Academ
      +                          ics/CU Boulder/2021/Fall 2021/Microavionics/Labs/Lab6/Watkins_William_Lab6_Part2.c: 709:
      +                                   temporary = RCREG1;
 11242  004430  CFAE F0DD          	movff	4014,_temporary	;volatile
 11243                           
 11244                           ;C:/Users/Will/Universal Documents/Academics/CU Boulder/2021/Fall 2021/Microavionics/Lab
      +                          s/Lab6/Watkins_William_Lab6_Part2.c: 710:         return;
 11245  004434  EF44  F022         	goto	i2l385
 11246  004438                     i2l384:
 11247                           
 11248                           ;C:/Users/Will/Universal Documents/Academics/CU Boulder/2021/Fall 2021/Microavionics/Lab
      +                          s/Lab6/Watkins_William_Lab6_Part2.c: 712:     if(RCSTA1bits.OERR)
 11249  004438  A2AB               	btfss	171,1,c	;volatile
 11250  00443A  EF21  F022         	goto	i2u561_41
 11251  00443E  EF23  F022         	goto	i2u561_40
 11252  004442                     i2u561_41:
 11253  004442  EF27  F022         	goto	i2l4943
 11254  004446                     i2u561_40:
 11255  004446                     
 11256                           ;C:/Users/Will/Universal Documents/Academics/CU Boulder/2021/Fall 2021/Microavionics/Lab
      +                          s/Lab6/Watkins_William_Lab6_Part2.c: 713:     {;C:/Users/Will/Universal Documents/Academ
      +                          ics/CU Boulder/2021/Fall 2021/Microavionics/Labs/Lab6/Watkins_William_Lab6_Part2.c: 714:
      +                                   RCSTA1bits.CREN = 0;
 11257  004446  98AB               	bcf	171,4,c	;volatile
 11258                           
 11259                           ;C:/Users/Will/Universal Documents/Academics/CU Boulder/2021/Fall 2021/Microavionics/Lab
      +                          s/Lab6/Watkins_William_Lab6_Part2.c: 715:         RCSTA1bits.CREN = 1;
 11260  004448  88AB               	bsf	171,4,c	;volatile
 11261                           
 11262                           ;C:/Users/Will/Universal Documents/Academics/CU Boulder/2021/Fall 2021/Microavionics/Lab
      +                          s/Lab6/Watkins_William_Lab6_Part2.c: 716:         return;
 11263  00444A  EF44  F022         	goto	i2l385
 11264  00444E                     i2l4943:
 11265                           
 11266                           ;C:/Users/Will/Universal Documents/Academics/CU Boulder/2021/Fall 2021/Microavionics/Lab
      +                          s/Lab6/Watkins_William_Lab6_Part2.c: 718:     buffer[i] = RCREG1;
 11267  00444E  0E5C               	movlw	low _buffer
 11268  004450  2453               	addwf	_i^0,w,c
 11269  004452  6ED9               	movwf	fsr2l,c
 11270  004454  6ADA               	clrf	fsr2h,c
 11271  004456  0E01               	movlw	high _buffer
 11272  004458  22DA               	addwfc	fsr2h,f,c
 11273  00445A  CFAE FFDF          	movff	4014,indf2	;volatile
 11274                           
 11275                           ;C:/Users/Will/Universal Documents/Academics/CU Boulder/2021/Fall 2021/Microavionics/Lab
      +                          s/Lab6/Watkins_William_Lab6_Part2.c: 719:     if(buffer[i] != 0x0A)
 11276  00445E  0E5C               	movlw	low _buffer
 11277  004460  2453               	addwf	_i^0,w,c
 11278  004462  6ED9               	movwf	fsr2l,c
 11279  004464  6ADA               	clrf	fsr2h,c
 11280  004466  0E01               	movlw	high _buffer
 11281  004468  22DA               	addwfc	fsr2h,f,c
 11282  00446A  0E0A               	movlw	10
 11283  00446C  18DE               	xorwf	postinc2,w,c
 11284  00446E  B4D8               	btfsc	status,2,c
 11285  004470  EF3C  F022         	goto	i2u562_41
 11286  004474  EF3E  F022         	goto	i2u562_40
 11287  004478                     i2u562_41:
 11288  004478  EF41  F022         	goto	i2l4947
 11289  00447C                     i2u562_40:
 11290  00447C                     
 11291                           ;C:/Users/Will/Universal Documents/Academics/CU Boulder/2021/Fall 2021/Microavionics/Lab
      +                          s/Lab6/Watkins_William_Lab6_Part2.c: 720:     {;C:/Users/Will/Universal Documents/Academ
      +                          ics/CU Boulder/2021/Fall 2021/Microavionics/Labs/Lab6/Watkins_William_Lab6_Part2.c: 721:
      +                                   i++;
 11292  00447C  2A53               	incf	_i^0,f,c
 11293                           
 11294                           ;C:/Users/Will/Universal Documents/Academics/CU Boulder/2021/Fall 2021/Microavionics/Lab
      +                          s/Lab6/Watkins_William_Lab6_Part2.c: 722:     }
 11295  00447E  EF44  F022         	goto	i2l385
 11296  004482                     i2l4947:
 11297                           
 11298                           ;C:/Users/Will/Universal Documents/Academics/CU Boulder/2021/Fall 2021/Microavionics/Lab
      +                          s/Lab6/Watkins_William_Lab6_Part2.c: 724:     {;C:/Users/Will/Universal Documents/Academ
      +                          ics/CU Boulder/2021/Fall 2021/Microavionics/Labs/Lab6/Watkins_William_Lab6_Part2.c: 725:
      +                                   rxFin = 1;
 11299  004482  0E01               	movlw	1
 11300  004484  0100               	movlb	0	; () banked
 11301  004486  6FDB               	movwf	_rxFin& (0+255),b
 11302  004488                     i2l385:
 11303  004488  0012               	return		;funcret
 11304  00448A                     __end_of_EUSARTCommandHandler:
 11305                           	callstack 0
 11306                           
 11307                           	psect	rparam
 11308  0000                     
 11309                           	psect	temp
 11310  000057                     btemp:
 11311                           	callstack 0
 11312  000057                     	ds	1
 11313  0000                     int$flags	set	btemp
 11314  0000                     wtemp8	set	btemp+1
 11315  0000                     ttemp5	set	btemp+1
 11316  0000                     ttemp6	set	btemp+4
 11317  0000                     ttemp7	set	btemp+8
 11318                           
 11319                           	psect	idloc
 11320                           
 11321                           ;Config register IDLOC0 @ 0x200000
 11322                           ;	unspecified, using default values
 11323  200000                     	org	2097152
 11324  200000  FF                 	db	255
 11325                           
 11326                           ;Config register IDLOC1 @ 0x200001
 11327                           ;	unspecified, using default values
 11328  200001                     	org	2097153
 11329  200001  FF                 	db	255
 11330                           
 11331                           ;Config register IDLOC2 @ 0x200002
 11332                           ;	unspecified, using default values
 11333  200002                     	org	2097154
 11334  200002  FF                 	db	255
 11335                           
 11336                           ;Config register IDLOC3 @ 0x200003
 11337                           ;	unspecified, using default values
 11338  200003                     	org	2097155
 11339  200003  FF                 	db	255
 11340                           
 11341                           ;Config register IDLOC4 @ 0x200004
 11342                           ;	unspecified, using default values
 11343  200004                     	org	2097156
 11344  200004  FF                 	db	255
 11345                           
 11346                           ;Config register IDLOC5 @ 0x200005
 11347                           ;	unspecified, using default values
 11348  200005                     	org	2097157
 11349  200005  FF                 	db	255
 11350                           
 11351                           ;Config register IDLOC6 @ 0x200006
 11352                           ;	unspecified, using default values
 11353  200006                     	org	2097158
 11354  200006  FF                 	db	255
 11355                           
 11356                           ;Config register IDLOC7 @ 0x200007
 11357                           ;	unspecified, using default values
 11358  200007                     	org	2097159
 11359  200007  FF                 	db	255
 11360                           
 11361                           	psect	config
 11362                           
 11363                           ;Config register CONFIG1L @ 0x300000
 11364                           ;	VREG Sleep Enable bit
 11365                           ;	RETEN = 0x1, unprogrammed default
 11366                           ;	LF-INTOSC Low-power Enable bit
 11367                           ;	INTOSCSEL = 0x1, unprogrammed default
 11368                           ;	SOSC Power Selection and mode Configuration bits
 11369                           ;	SOSCSEL = 0x3, unprogrammed default
 11370                           ;	Extended Instruction Set
 11371                           ;	XINST = OFF, Disabled
 11372  300000                     	org	3145728
 11373  300000  1D                 	db	29
 11374                           
 11375                           ;Config register CONFIG1H @ 0x300001
 11376                           ;	Oscillator
 11377                           ;	FOSC = HS1, HS oscillator (Medium power, 4 MHz - 16 MHz)
 11378                           ;	PLL x4 Enable bit
 11379                           ;	PLLCFG = OFF, Disabled
 11380                           ;	Fail-Safe Clock Monitor
 11381                           ;	FCMEN = 0x0, unprogrammed default
 11382                           ;	Internal External Oscillator Switch Over Mode
 11383                           ;	IESO = 0x0, unprogrammed default
 11384  300001                     	org	3145729
 11385  300001  03                 	db	3
 11386                           
 11387                           ;Config register CONFIG2L @ 0x300002
 11388                           ;	Power Up Timer
 11389                           ;	PWRTEN = ON, Enabled
 11390                           ;	Brown Out Detect
 11391                           ;	BOREN = ON, Controlled with SBOREN bit
 11392                           ;	Brown-out Reset Voltage bits
 11393                           ;	BORV = 2, 2.0V
 11394                           ;	BORMV Power level
 11395                           ;	BORPWR = 0x3, unprogrammed default
 11396  300002                     	org	3145730
 11397  300002  72                 	db	114
 11398                           
 11399                           ;Config register CONFIG2H @ 0x300003
 11400                           ;	Watchdog Timer
 11401                           ;	WDTEN = OFF, WDT disabled in hardware; SWDTEN bit disabled
 11402                           ;	Watchdog Postscaler
 11403                           ;	WDTPS = 0x1F, unprogrammed default
 11404  300003                     	org	3145731
 11405  300003  7C                 	db	124
 11406                           
 11407                           ;Config register CONFIG3L @ 0x300004
 11408                           ;	unspecified, using default values
 11409                           ;	RTCC Clock Select
 11410                           ;	RTCOSC = 0x1, unprogrammed default
 11411                           ;	External Address Shift bit
 11412                           ;	EASHFT = 0x1, unprogrammed default
 11413                           ;	Address Bus Width Select bits
 11414                           ;	ABW = 0x3, unprogrammed default
 11415                           ;	Data Bus Width
 11416                           ;	BW = 0x1, unprogrammed default
 11417                           ;	External Bus Wait
 11418                           ;	WAIT = 0x1, unprogrammed default
 11419  300004                     	org	3145732
 11420  300004  F9                 	db	249
 11421                           
 11422                           ;Config register CONFIG3H @ 0x300005
 11423                           ;	CCP2 Mux
 11424                           ;	CCP2MX = PORTC, RC1
 11425                           ;	ECCP Mux
 11426                           ;	ECCPMX = 0x1, unprogrammed default
 11427                           ;	MSSP address masking
 11428                           ;	MSSPMSK = 0x1, unprogrammed default
 11429                           ;	Master Clear Enable
 11430                           ;	MCLRE = 0x1, unprogrammed default
 11431  300005                     	org	3145733
 11432  300005  8B                 	db	139
 11433                           
 11434                           ;Config register CONFIG4L @ 0x300006
 11435                           ;	unspecified, using default values
 11436                           ;	Stack Overflow Reset
 11437                           ;	STVREN = 0x1, unprogrammed default
 11438                           ;	Boot Block Size
 11439                           ;	BBSIZ = 0x1, unprogrammed default
 11440                           ;	Background Debug
 11441                           ;	DEBUG = 0x1, unprogrammed default
 11442  300006                     	org	3145734
 11443  300006  91                 	db	145
 11444                           
 11445                           ; Padding undefined space
 11446  300007                     	org	3145735
 11447  300007  FF                 	db	255
 11448                           
 11449                           ;Config register CONFIG5L @ 0x300008
 11450                           ;	unspecified, using default values
 11451                           ;	Code Protect 00800-03FFF
 11452                           ;	CP0 = 0x1, unprogrammed default
 11453                           ;	Code Protect 04000-07FFF
 11454                           ;	CP1 = 0x1, unprogrammed default
 11455                           ;	Code Protect 08000-0BFFF
 11456                           ;	CP2 = 0x1, unprogrammed default
 11457                           ;	Code Protect 0C000-0FFFF
 11458                           ;	CP3 = 0x1, unprogrammed default
 11459                           ;	Code Protect 10000-13FFF
 11460                           ;	CP4 = 0x1, unprogrammed default
 11461                           ;	Code Protect 14000-17FFF
 11462                           ;	CP5 = 0x1, unprogrammed default
 11463                           ;	Code Protect 18000-1BFFF
 11464                           ;	CP6 = 0x1, unprogrammed default
 11465                           ;	Code Protect 1C000-1FFFF
 11466                           ;	CP7 = 0x1, unprogrammed default
 11467  300008                     	org	3145736
 11468  300008  FF                 	db	255
 11469                           
 11470                           ;Config register CONFIG5H @ 0x300009
 11471                           ;	unspecified, using default values
 11472                           ;	Code Protect Boot
 11473                           ;	CPB = 0x1, unprogrammed default
 11474                           ;	Data EE Read Protect
 11475                           ;	CPD = 0x1, unprogrammed default
 11476  300009                     	org	3145737
 11477  300009  C0                 	db	192
 11478                           
 11479                           ;Config register CONFIG6L @ 0x30000A
 11480                           ;	unspecified, using default values
 11481                           ;	Table Write Protect 00800-03FFF
 11482                           ;	WRT0 = 0x1, unprogrammed default
 11483                           ;	Table Write Protect 04000-07FFF
 11484                           ;	WRT1 = 0x1, unprogrammed default
 11485                           ;	Table Write Protect 08000-0BFFF
 11486                           ;	WRT2 = 0x1, unprogrammed default
 11487                           ;	Table Write Protect 0C000-0FFFF
 11488                           ;	WRT3 = 0x1, unprogrammed default
 11489                           ;	Table Write Protect 10000-13FFF
 11490                           ;	WRT4 = 0x1, unprogrammed default
 11491                           ;	Table Write Protect 14000-17FFF
 11492                           ;	WRT5 = 0x1, unprogrammed default
 11493                           ;	Table Write Protect 18000-1BFFF
 11494                           ;	WRT6 = 0x1, unprogrammed default
 11495                           ;	Table Write Protect 1C000-1FFFF
 11496                           ;	WRT7 = 0x1, unprogrammed default
 11497  30000A                     	org	3145738
 11498  30000A  FF                 	db	255
 11499                           
 11500                           ;Config register CONFIG6H @ 0x30000B
 11501                           ;	unspecified, using default values
 11502                           ;	Config. Write Protect
 11503                           ;	WRTC = 0x1, unprogrammed default
 11504                           ;	Table Write Protect Boot
 11505                           ;	WRTB = 0x1, unprogrammed default
 11506                           ;	Data EE Write Protect
 11507                           ;	WRTD = 0x1, unprogrammed default
 11508  30000B                     	org	3145739
 11509  30000B  E0                 	db	224
 11510                           
 11511                           ;Config register CONFIG7L @ 0x30000C
 11512                           ;	unspecified, using default values
 11513                           ;	Table Read Protect 00800-03FFF
 11514                           ;	EBRT0 = 0x1, unprogrammed default
 11515                           ;	Table Read Protect 04000-07FFF
 11516                           ;	EBRT1 = 0x1, unprogrammed default
 11517                           ;	Table Read Protect 08000-0BFFF
 11518                           ;	EBRT2 = 0x1, unprogrammed default
 11519                           ;	Table Read Protect 0C000-0FFFF
 11520                           ;	EBRT3 = 0x1, unprogrammed default
 11521                           ;	Table Read Protect 10000-13FFF
 11522                           ;	EBRT4 = 0x1, unprogrammed default
 11523                           ;	Table Read Protect 14000-17FFF
 11524                           ;	EBRT5 = 0x1, unprogrammed default
 11525                           ;	Table Read Protect 18000-1BFFF
 11526                           ;	EBRT6 = 0x1, unprogrammed default
 11527                           ;	Table Read Protect 1C000-1FFFF
 11528                           ;	EBRT7 = 0x1, unprogrammed default
 11529  30000C                     	org	3145740
 11530  30000C  FF                 	db	255
 11531                           
 11532                           ;Config register CONFIG7H @ 0x30000D
 11533                           ;	unspecified, using default values
 11534                           ;	Table Read Protect Boot
 11535                           ;	EBRTB = 0x1, unprogrammed default
 11536  30000D                     	org	3145741
 11537  30000D  40                 	db	64
 11538                           tosu	equ	0xFFF
 11539                           tosh	equ	0xFFE
 11540                           tosl	equ	0xFFD
 11541                           stkptr	equ	0xFFC
 11542                           pclatu	equ	0xFFB
 11543                           pclath	equ	0xFFA
 11544                           pcl	equ	0xFF9
 11545                           tblptru	equ	0xFF8
 11546                           tblptrh	equ	0xFF7
 11547                           tblptrl	equ	0xFF6
 11548                           tablat	equ	0xFF5
 11549                           prodh	equ	0xFF4
 11550                           prodl	equ	0xFF3
 11551                           indf0	equ	0xFEF
 11552                           postinc0	equ	0xFEE
 11553                           postdec0	equ	0xFED
 11554                           preinc0	equ	0xFEC
 11555                           plusw0	equ	0xFEB
 11556                           fsr0h	equ	0xFEA
 11557                           fsr0l	equ	0xFE9
 11558                           wreg	equ	0xFE8
 11559                           indf1	equ	0xFE7
 11560                           postinc1	equ	0xFE6
 11561                           postdec1	equ	0xFE5
 11562                           preinc1	equ	0xFE4
 11563                           plusw1	equ	0xFE3
 11564                           fsr1h	equ	0xFE2
 11565                           fsr1l	equ	0xFE1
 11566                           bsr	equ	0xFE0
 11567                           indf2	equ	0xFDF
 11568                           postinc2	equ	0xFDE
 11569                           postdec2	equ	0xFDD
 11570                           preinc2	equ	0xFDC
 11571                           plusw2	equ	0xFDB
 11572                           fsr2h	equ	0xFDA
 11573                           fsr2l	equ	0xFD9
 11574                           status	equ	0xFD8

Data Sizes:
    Strings     31
    Constant    9
    Data        116
    BSS         152
    Persistent  5
    Stack       0

Auto Spaces:
    Space          Size  Autos    Used
    COMRAM           94     78      86
    BANK0           160     88     159
    BANK1           256      8     202
    BANK2           256      0       0
    BANK3           256      0       0
    BANK4           256      0       0
    BANK5           256      0       0
    BANK6           256      0       0
    BANK7           256      0       0
    BANK8           256      0       0
    BANK9           256      0       0
    BANK10          256      0       0
    BANK11          256      0       0
    BANK12          256      0       0
    BANK13          256      0       0
    BANK14          256      0       0
    BANK15           22      0       0

Pointer List with Targets:

    strncmp@_r	PTR const unsigned char  size(2) Largest target is 3
		 -> STR_13(CODE[3]), 

    strncmp@r	PTR const unsigned char  size(2) Largest target is 3
		 -> STR_13(CODE[3]), 

    strncmp@_l	PTR const unsigned char  size(2) Largest target is 3
		 -> vfpfcnvrt@ct(BANK0[3]), 

    strncmp@l	PTR const unsigned char  size(2) Largest target is 3
		 -> vfpfcnvrt@ct(BANK0[3]), 

    strlen@s	PTR const unsigned char  size(2) Largest target is 80
		 -> dbuf(BANK1[80]), 

    strlen@a	PTR const unsigned char  size(2) Largest target is 80
		 -> dbuf(BANK1[80]), 

    strcpy@dest	PTR unsigned char  size(2) Largest target is 80
		 -> dbuf(BANK1[80]), DisplayC@temp(COMRAM[10]), 

    strcpy@d	PTR unsigned char  size(2) Largest target is 80
		 -> dbuf(BANK1[80]), DisplayC@temp(COMRAM[10]), 

    strcpy@src	PTR const unsigned char  size(2) Largest target is 80
		 -> STR_8(CODE[4]), STR_7(CODE[4]), STR_4(CODE[4]), STR_3(CODE[4]), 
		 -> dbuf(BANK1[80]), row1LCD(BANK1[9]), row2LCD(BANK1[10]), 

    strcpy@s	PTR const unsigned char  size(2) Largest target is 80
		 -> STR_8(CODE[4]), STR_7(CODE[4]), STR_4(CODE[4]), STR_3(CODE[4]), 
		 -> dbuf(BANK1[80]), row1LCD(BANK1[9]), row2LCD(BANK1[10]), 

    strcmp@r	PTR const unsigned char  size(2) Largest target is 10
		 -> checkCONTOFF(BANK1[10]), checkCONTON(BANK1[10]), checkTEMP(BANK1[10]), checkPOT(BANK1[10]), 

    strcmp@l	PTR const unsigned char  size(2) Largest target is 10
		 -> buffer(BANK1[10]), 

    fputs@s	PTR const unsigned char  size(2) Largest target is 80
		 -> dbuf(BANK1[80]), 

    fputs@fp	PTR struct _IO_FILE size(2) Largest target is 7
		 -> sprintf@f(BANK1[6]), 

    fputc@fp.buffer	PTR unsigned char  size(2) Largest target is 6
		 -> tempLCD(BANK0[6]), potLCD(BANK0[6]), 

    fputc@fp	PTR struct _IO_FILE size(2) Largest target is 7
		 -> sprintf@f(BANK1[6]), 

    atoi@s	PTR const unsigned char  size(2) Largest target is 6
		 -> STR_2(CODE[6]), STR_1(CODE[6]), 

    vfprintf@ap	PTR PTR void  size(2) Largest target is 2
		 -> sprintf@ap(BANK1[2]), 

    vfprintf@fp	PTR struct _IO_FILE size(2) Largest target is 7
		 -> sprintf@f(BANK1[6]), 

    vfprintf@fmt	PTR const unsigned char  size(2) Largest target is 6
		 -> STR_2(CODE[6]), STR_1(CODE[6]), 

    vfprintf@cfmt	PTR unsigned char  size(2) Largest target is 6
		 -> STR_2(CODE[6]), STR_1(CODE[6]), 

    vfpfcnvrt@fp	PTR struct _IO_FILE size(2) Largest target is 7
		 -> sprintf@f(BANK1[6]), 

    vfpfcnvrt@ap	PTR PTR void  size(2) Largest target is 2
		 -> sprintf@ap(BANK1[2]), 

    vfpfcnvrt@fmt	PTR PTR unsigned char  size(2) Largest target is 2
		 -> vfprintf@cfmt(COMRAM[2]), 

    efgtoa@fp	PTR struct _IO_FILE size(2) Largest target is 7
		 -> sprintf@f(BANK1[6]), 

    pad@fp	PTR struct _IO_FILE size(2) Largest target is 7
		 -> sprintf@f(BANK1[6]), 

    pad@buf	PTR unsigned char  size(2) Largest target is 80
		 -> dbuf(BANK1[80]), 

    sprintf@fmt	PTR const unsigned char  size(2) Largest target is 6
		 -> STR_2(CODE[6]), STR_1(CODE[6]), 

    sprintf@s	PTR unsigned char  size(2) Largest target is 6
		 -> tempLCD(BANK0[6]), potLCD(BANK0[6]), 

    sprintf@ap	PTR void [1] size(2) Largest target is 2
		 -> ?_sprintf(BANK0[2]), 

    S2180_IO_FILE$buffer	PTR unsigned char  size(2) Largest target is 6
		 -> tempLCD(BANK0[6]), potLCD(BANK0[6]), 

    f.buffer	PTR unsigned char  size(2) Largest target is 6
		 -> tempLCD(BANK0[6]), potLCD(BANK0[6]), 

    DisplayV@LCDStr	PTR const unsigned char  size(2) Largest target is 10
		 -> DisplayC@temp(COMRAM[10]), 

    sp__strcpy	PTR unsigned char  size(2) Largest target is 80
		 -> dbuf(BANK1[80]), DisplayC@temp(COMRAM[10]), 

    DisplayC@LCDStr	PTR const unsigned char  size(2) Largest target is 10
		 -> row1LCD(BANK1[9]), row2LCD(BANK1[10]), 


Critical Paths under _main in COMRAM

    _readCommand->_strcmp
    _sprintf->_vfprintf
    _vfprintf->_vfpfcnvrt
    _vfpfcnvrt->_efgtoa
    _efgtoa->___flge
    _tolower->_isupper
    _pad->_fputs
    _fputs->_fputc
    _floorf->___fldiv
    ___flsub->___flmul
    ___flmul->___xxtofl
    ___flge->___flmul
    _atoi->_isspace
    _displayLCD->_DisplayC
    _DisplayC->_strcpy
    _Initial->_InitLCD

Critical Paths under _LoPriISR in COMRAM

    _LoPriISR->_CCP3Handler

Critical Paths under _HiPriISR in COMRAM

    _HiPriISR->_EUSARTCommandHandler

Critical Paths under _main in BANK0

    _handleADC->_sprintf
    _sprintf->_vfprintf
    _vfprintf->_vfpfcnvrt
    _vfpfcnvrt->_efgtoa

Critical Paths under _LoPriISR in BANK0

    None.

Critical Paths under _HiPriISR in BANK0

    None.

Critical Paths under _main in BANK1

    _handleADC->_sprintf

Critical Paths under _LoPriISR in BANK1

    None.

Critical Paths under _HiPriISR in BANK1

    None.

Critical Paths under _main in BANK2

    None.

Critical Paths under _LoPriISR in BANK2

    None.

Critical Paths under _HiPriISR in BANK2

    None.

Critical Paths under _main in BANK3

    None.

Critical Paths under _LoPriISR in BANK3

    None.

Critical Paths under _HiPriISR in BANK3

    None.

Critical Paths under _main in BANK4

    None.

Critical Paths under _LoPriISR in BANK4

    None.

Critical Paths under _HiPriISR in BANK4

    None.

Critical Paths under _main in BANK5

    None.

Critical Paths under _LoPriISR in BANK5

    None.

Critical Paths under _HiPriISR in BANK5

    None.

Critical Paths under _main in BANK6

    None.

Critical Paths under _LoPriISR in BANK6

    None.

Critical Paths under _HiPriISR in BANK6

    None.

Critical Paths under _main in BANK7

    None.

Critical Paths under _LoPriISR in BANK7

    None.

Critical Paths under _HiPriISR in BANK7

    None.

Critical Paths under _main in BANK8

    None.

Critical Paths under _LoPriISR in BANK8

    None.

Critical Paths under _HiPriISR in BANK8

    None.

Critical Paths under _main in BANK9

    None.

Critical Paths under _LoPriISR in BANK9

    None.

Critical Paths under _HiPriISR in BANK9

    None.

Critical Paths under _main in BANK10

    None.

Critical Paths under _LoPriISR in BANK10

    None.

Critical Paths under _HiPriISR in BANK10

    None.

Critical Paths under _main in BANK11

    None.

Critical Paths under _LoPriISR in BANK11

    None.

Critical Paths under _HiPriISR in BANK11

    None.

Critical Paths under _main in BANK12

    None.

Critical Paths under _LoPriISR in BANK12

    None.

Critical Paths under _HiPriISR in BANK12

    None.

Critical Paths under _main in BANK13

    None.

Critical Paths under _LoPriISR in BANK13

    None.

Critical Paths under _HiPriISR in BANK13

    None.

Critical Paths under _main in BANK14

    None.

Critical Paths under _LoPriISR in BANK14

    None.

Critical Paths under _HiPriISR in BANK14

    None.

Critical Paths under _main in BANK15

    None.

Critical Paths under _LoPriISR in BANK15

    None.

Critical Paths under _HiPriISR in BANK15

    None.

Call Graph Tables:

 ---------------------------------------------------------------------------------
 (Depth) Function   	        Calls       Base Space   Used Autos Params    Refs
 ---------------------------------------------------------------------------------
 (0) _main                                                 0     0      0   47114
                            _Initial
                         _displayLCD
                          _handleADC
                        _readCommand
                     _sendContinuous
                  _sendPotentiometer
                    _sendTemperature
 ---------------------------------------------------------------------------------
 (1) _sendTemperature                                      0     0      0       0
 ---------------------------------------------------------------------------------
 (1) _sendPotentiometer                                    0     0      0       0
 ---------------------------------------------------------------------------------
 (1) _sendContinuous                                       0     0      0       0
 ---------------------------------------------------------------------------------
 (1) _readCommand                                          2     2      0     720
                                             13 COMRAM     2     2      0
                             _strcmp
 ---------------------------------------------------------------------------------
 (2) _strcmp                                               6     2      4     720
                                              7 COMRAM     6     2      4
 ---------------------------------------------------------------------------------
 (1) _handleADC                                            0     0      0   44427
                             ___flge
                            ___flmul
                           ___xxtofl
                            _readADC
                            _sprintf
 ---------------------------------------------------------------------------------
 (2) _sprintf                                             18    10      8   38834
                                             80 BANK0      8     0      8
                                              0 BANK1      8     8      0
                           _vfprintf
 ---------------------------------------------------------------------------------
 (3) _vfprintf                                             8     2      6   38144
                                             76 COMRAM     2     2      0
                                             74 BANK0      6     0      6
                          _vfpfcnvrt
 ---------------------------------------------------------------------------------
 (4) _vfpfcnvrt                                           50    44      6   37593
                                             70 COMRAM     6     0      6
                                             56 BANK0     18    18      0
                               _atoi
                             _efgtoa
                              _fputc
                            _isdigit
                            _isupper
                            _strncmp
                            _tolower
 ---------------------------------------------------------------------------------
 (5) _strncmp                                             11     5      6     595
                                              7 COMRAM    11     5      6
 ---------------------------------------------------------------------------------
 (5) _efgtoa                                              68    61      7   30260
                                             58 COMRAM    12     5      7
                                              0 BANK0     56    56      0
                            ___awdiv
                            ___awmod
                            ___fladd
                            ___fldiv
                             ___fleq
                             ___flge
                            ___flmul
                            ___flneg
                            ___flsub
                            ___fltol
                      ___fpclassifyf
                             _floorf
                            _isupper
                                _pad
                             _strcpy
                            _tolower
 ---------------------------------------------------------------------------------
 (5) _tolower                                              8     6      2    1142
                                             13 COMRAM     8     6      2
                            _isupper
 ---------------------------------------------------------------------------------
 (6) _isupper                                              6     4      2     551
                                              7 COMRAM     6     4      2
 ---------------------------------------------------------------------------------
 (6) _pad                                                 11     5      6    3957
                                             23 COMRAM    11     5      6
                              _fputc
                              _fputs
                             _strlen
 ---------------------------------------------------------------------------------
 (7) _strlen                                               4     2      2     220
                                              7 COMRAM     4     2      2
 ---------------------------------------------------------------------------------
 (7) _fputs                                                7     3      4    1537
                                             16 COMRAM     7     3      4
                              _fputc
 ---------------------------------------------------------------------------------
 (5) _fputc                                                9     5      4    1037
                                              7 COMRAM     9     5      4
                              _putch
 ---------------------------------------------------------------------------------
 (6) _putch                                                1     1      0       0
 ---------------------------------------------------------------------------------
 (6) _floorf                                              20    16      4     669
                                             32 COMRAM    20    16      4
                            ___fldiv (ARG)
 ---------------------------------------------------------------------------------
 (6) ___fpclassifyf                                       14    10      4     375
                                              7 COMRAM    14    10      4
 ---------------------------------------------------------------------------------
 (6) ___fltol                                             10     6      4     517
                                              7 COMRAM    10     6      4
 ---------------------------------------------------------------------------------
 (6) ___flsub                                              8     0      8    4007
                                             46 COMRAM     8     0      8
                            ___fladd
                            ___flmul (ARG)
 ---------------------------------------------------------------------------------
 (7) ___fladd                                             16     8      8    3442
                                              7 COMRAM    16     8      8
 ---------------------------------------------------------------------------------
 (6) ___flneg                                              4     0      4     155
                                              7 COMRAM     4     0      4
 ---------------------------------------------------------------------------------
 (6) ___flmul                                             25    17      8    3953
                                             21 COMRAM    25    17      8
                           ___xxtofl (ARG)
 ---------------------------------------------------------------------------------
 (6) ___flge                                              12     4      8    1166
                                             46 COMRAM    12     4      8
                            ___flmul (ARG)
 ---------------------------------------------------------------------------------
 (6) ___fleq                                              12     4      8     770
                                              7 COMRAM    12     4      8
 ---------------------------------------------------------------------------------
 (6) ___fldiv                                             25    17      8    2723
                                              7 COMRAM    25    17      8
 ---------------------------------------------------------------------------------
 (6) ___awmod                                              6     2      4     613
                                              7 COMRAM     6     2      4
 ---------------------------------------------------------------------------------
 (6) ___awdiv                                              8     4      4     625
                                              7 COMRAM     8     4      4
 ---------------------------------------------------------------------------------
 (5) _atoi                                                15    13      2    1695
                                             14 COMRAM    15    13      2
                             ___wmul
                            _isdigit
                            _isspace
 ---------------------------------------------------------------------------------
 (6) _isspace                                              7     5      2     259
                                              7 COMRAM     7     5      2
 ---------------------------------------------------------------------------------
 (5) _isdigit                                              6     4      2     371
                                              7 COMRAM     6     4      2
 ---------------------------------------------------------------------------------
 (6) ___wmul                                               6     2      4     412
                                              7 COMRAM     6     2      4
 ---------------------------------------------------------------------------------
 (2) _readADC                                              0     0      0       0
 ---------------------------------------------------------------------------------
 (2) ___xxtofl                                            14    10      4     474
                                              7 COMRAM    14    10      4
 ---------------------------------------------------------------------------------
 (1) _displayLCD                                           0     0      0    1829
                           _DisplayC
 ---------------------------------------------------------------------------------
 (2) _DisplayC                                            12    10      2    1829
                                             17 COMRAM    12    10      2
                           _DisplayV
                             _strcpy
 ---------------------------------------------------------------------------------
 (6) _strcpy                                              10     6      4    1217
                                              7 COMRAM    10     6      4
 ---------------------------------------------------------------------------------
 (3) _DisplayV                                             4     2      2     324
                                              7 COMRAM     4     2      2
 ---------------------------------------------------------------------------------
 (1) _Initial                                              0     0      0     138
                            _InitLCD
 ---------------------------------------------------------------------------------
 (2) _InitLCD                                              3     3      0     138
                                              7 COMRAM     3     3      0
 ---------------------------------------------------------------------------------
 Estimated maximum stack depth 7
 ---------------------------------------------------------------------------------
 (Depth) Function   	        Calls       Base Space   Used Autos Params    Refs
 ---------------------------------------------------------------------------------
 (10) _LoPriISR                                            3     3      0       0
                                              4 COMRAM     3     3      0
                        _CCP1Handler
                        _CCP3Handler
                        _TMR0Handler
                        _TMR1Handler
                        _TMR3Handler
 ---------------------------------------------------------------------------------
 (11) _TMR3Handler                                         0     0      0       0
 ---------------------------------------------------------------------------------
 (11) _TMR1Handler                                         0     0      0       0
 ---------------------------------------------------------------------------------
 (11) _TMR0Handler                                         0     0      0       0
 ---------------------------------------------------------------------------------
 (11) _CCP3Handler                                         1     1      0       0
                                              3 COMRAM     1     1      0
                           _aliveLED
 ---------------------------------------------------------------------------------
 (12) _aliveLED                                            0     0      0       0
 ---------------------------------------------------------------------------------
 (11) _CCP1Handler                                         0     0      0       0
                          _updateDAC
 ---------------------------------------------------------------------------------
 (12) _updateDAC                                           0     0      0       0
 ---------------------------------------------------------------------------------
 Estimated maximum stack depth 12
 ---------------------------------------------------------------------------------
 (Depth) Function   	        Calls       Base Space   Used Autos Params    Refs
 ---------------------------------------------------------------------------------
 (13) _HiPriISR                                            2     2      0       0
                                              1 COMRAM     2     2      0
               _EUSARTCommandHandler
                           _sendNext
 ---------------------------------------------------------------------------------
 (14) _sendNext                                            0     0      0       0
 ---------------------------------------------------------------------------------
 (14) _EUSARTCommandHandler                                1     1      0       0
                                              0 COMRAM     1     1      0
 ---------------------------------------------------------------------------------
 Estimated maximum stack depth 14
 ---------------------------------------------------------------------------------

 Call Graph Graphs:

 _main (ROOT)
   _Initial
     _InitLCD
   _displayLCD
     _DisplayC
       _DisplayV
       _strcpy
   _handleADC
     ___flge
       ___flmul (ARG)
         ___xxtofl (ARG)
     ___flmul
     ___xxtofl
     _readADC
     _sprintf
       _vfprintf
         _vfpfcnvrt
           _atoi
             ___wmul
             _isdigit
             _isspace
           _efgtoa
             ___awdiv
             ___awmod
             ___fladd
             ___fldiv
             ___fleq
             ___flge
             ___flmul
             ___flneg
             ___flsub
               ___fladd
               ___flmul (ARG)
             ___fltol
             ___fpclassifyf
             _floorf
               ___fldiv (ARG)
             _isupper
             _pad
               _fputc
                 _putch
               _fputs
                 _fputc
               _strlen
             _strcpy
             _tolower
               _isupper
           _fputc
           _isdigit
           _isupper
           _strncmp
           _tolower
   _readCommand
     _strcmp
   _sendContinuous
   _sendPotentiometer
   _sendTemperature

 _LoPriISR (ROOT)
   _CCP1Handler
     _updateDAC
   _CCP3Handler
     _aliveLED
   _TMR0Handler
   _TMR1Handler
   _TMR3Handler

 _HiPriISR (ROOT)
   _EUSARTCommandHandler
   _sendNext

 Address spaces:
Name               Size   Autos  Total    Cost      Usage
BIGRAM             F15      0       0      37        0.0%
EEDATA             400      0       0       0        0.0%
BITBANK14          100      0       0      33        0.0%
BANK14             100      0       0      34        0.0%
BITBANK13          100      0       0      31        0.0%
BANK13             100      0       0      32        0.0%
BITBANK12          100      0       0      29        0.0%
BANK12             100      0       0      30        0.0%
BITBANK11          100      0       0      27        0.0%
BANK11             100      0       0      28        0.0%
BITBANK10          100      0       0      25        0.0%
BANK10             100      0       0      26        0.0%
BITBANK9           100      0       0      23        0.0%
BANK9              100      0       0      24        0.0%
BITBANK8           100      0       0      21        0.0%
BANK8              100      0       0      22        0.0%
BITBANK7           100      0       0      19        0.0%
BANK7              100      0       0      20        0.0%
BITBANK6           100      0       0      17        0.0%
BANK6              100      0       0      18        0.0%
BITBANK5           100      0       0      15        0.0%
BANK5              100      0       0      16        0.0%
BITBANK4           100      0       0      13        0.0%
BANK4              100      0       0      14        0.0%
BITBANK3           100      0       0      10        0.0%
BANK3              100      0       0      11        0.0%
BITBANK2           100      0       0       8        0.0%
BANK2              100      0       0       9        0.0%
BITBANK1           100      0       0       6        0.0%
BANK1              100      8      CA       7       78.9%
BITBANK0            A0      0       0       4        0.0%
BANK0               A0     58      9F       5       99.4%
BITCOMRAM           5E      0       0       0        0.0%
COMRAM              5E     4E      56       1       91.5%
BITBANK15           16      0       0      35        0.0%
BANK15              16      0       0      36        0.0%
BITSFR_1             0      0       0     200        0.0%
SFR_1                0      0       0     200        0.0%
BITSFR               0      0       0     200        0.0%
SFR                  0      0       0     200        0.0%
STACK                0      0       0       2        0.0%
NULL                 0      0       0       0        0.0%
ABS                  0      0     1BF      12        0.0%
DATA                 0      0     1BF       3        0.0%
CODE                 0      0       0       0        0.0%


Microchip Technology PIC18 Macro Assembler V2.32 build 20210201212658 
Symbol Table                                                                                   Tue Nov 30 23:56:02 2021

                 ___fldiv@aexp 0020                   ___fldiv@bexp 001F                              _i 0053  
                 ___fldiv@sign 0018                             l20 3F74                             l30 3FE4  
                           l31 3FE6                             l23 497A                             l33 4028  
                           l26 400C                             l19 3F72                             l27 3F7E  
                           l28 3F9C                             l29 3F9E                   ___awdiv@sign 000D  
                           bsr 000FE0            ___wmul@multiplicand 000A           __size_of_CCP1Handler 001E  
                          l330 43DC                            l322 33EE                            l410 4A0C  
                          l324 3412                            l413 49E0                            l319 39D2  
                          l327 43C4                            l407 36C8                            l336 4420  
                          l416 49F6                            l329 43D2                            l339 49B2  
                          l443 4958                            l702 4232                            l713 38D2  
                          l708 388C                            l740 37CE                            l717 488C  
                          l674 3D40                            l687 40D8                            l971 2412  
                          l980 26E2                            l972 2400                            l973 23C6  
                          l988 252C                            l997 25FC                            l998 25EA  
         __size_of_CCP3Handler 0048                            _pad 3D42                            _pot 00B8  
                 ___awmod@sign 000D                            wreg 000FE8                   ___flmul@aexp 0023  
                 ___flmul@bexp 0028                   ___flmul@sign 0022                   ___flmul@temp 002D  
                 ___flmul@prod 0029                   ___fltol@exp1 0011                           l1101 326C  
                         l1013 47D8                           l1030 2CCA                           l1112 3204  
                         l1105 31A8                           l1025 2EA6                           l1121 4662  
                         l1027 2D06                           l1203 1416                           l1036 2D4C  
                         l1300 44E6                           l1061 2B0C                           l1301 44EE  
                         l1038 2DC4                           l1039 2DB2                           l1311 3AD0  
                         l1231 1856                           l1064 299E                           l1057 27A8  
                         l1074 2ACE                           l1066 2A16                           l1162 3D86  
                         l1067 2A04                           l1340 35AE                           l1413 45AC  
                         l1165 3DC8                           l1343 35B6                           l1167 3E02  
                         l1423 3BB2                           l1407 43B8                           l1352 2FFC  
                         l1433 4546                           l1185 1C82                           l1098 3110  
                         l1419 4932                           l1349 30B8                           l1373 4854  
                         l1438 454E                           l1294 2164                           l1359 48C4  
                         l1367 46B4                           l1287 2222                           l1388 3C7C  
                         l1396 481C                           l1399 4A1A                           l5111 3BC6  
                         l5201 2364                           l5113 3BD8                           l5211 23D4  
                         l5203 2368                           l5131 2250                           l5123 2224  
                         l5115 3BE2                           l6011 14A0                           l6003 1434  
                         l5301 2662                           l5221 23FE                           l5213 23E0  
                         l5205 2392                           l5141 228A                           l5133 2260  
                         l5125 2230                           l5117 3C00                           l5109 3BB4  
                         l6101 1956                           l6021 14DE                           l6005 1446  
                         l6013 14A4                           l5311 26B4                           l5303 2672  
                         l5231 2454                           l5223 2420                           l5215 23E4  
                         l5207 23AE                           l5151 22B8                           l5143 2290  
                         l5135 2270                           l5127 223E                           l5119 3C36  
                         l6111 1982                           l6103 195C                           l6031 152C  
                         l6023 14E2                           l6015 14AC                           l6007 1462  
                         l4601 3EFE                           l5401 2C08                           l5321 26D2  
                         l5313 26BA                           l5305 2682                           l5241 248E  
                         l5233 2462                           l5225 2430                           l5217 23F2  
                         l5209 23BE                           l5161 22EC                           l5153 22BA  
                         l5145 22A2                           l5137 2272                           l5129 2240  
                         l6201 1C62                           l6105 1968                           l6113 1988  
                         l6121 19B6                           l6041 15C4                           l6025 14F4  
                         l6033 1534                           l6017 14BE                           l6009 1498  
                         l4611 3F1A                           l4603 3F04                           l6211 342C  
                         l5411 2C30                           l5403 2C0C                           l5315 26BC  
                         l5307 26A2                           l5251 24FA                           l5243 2490  
                         l5235 2470                           l5219 23F4                           l5171 2328  
                         l5155 22CA                           l5163 22F4                           l5147 22A4  
                         l5139 227A                           l5331 47FC                           l6131 1A6C  
                         l6123 1A0E                           l6115 199A                           l6107 1978  
                         l6051 16A8                           l6043 161C                           l6035 153C  
                         l6027 1502                           l6019 14D0                           l4613 3F34  
                         l4605 3F06                           l4621 3F4C                           l6213 3430  
                         l5421 2C7E                           l5501 2700                           l5317 26C2  
                         l5309 26A6                           l5261 2552                           l5253 24FC  
                         l5245 249A                           l5237 247C                           l5229 2444  
                         l5181 233C                           l5173 232C                           l5165 2304  
                         l5157 22DA                           l5149 22AA                           l5325 47DA  
                         l5333 48FE                           l6141 1ABC                           l6133 1A88  
                         l6125 1A42                           l6117 19AC                           l6109 197C  
                         l6061 1742                           l6053 16DA                           l6045 1650  
                         l6037 154C                           l6029 151A                           l6301 1E14  
                         l4701 437C                           ?_pad 0018                           l4615 3F3A  
                         l4607 3F14                           l4551 3F96                           l4711 30DA  
                         l4631 43EA                           l5351 4934                           l6231 34F2  
                         l6223 3494                           l6215 3450                           l6207 3414  
                         l5431 2CC8                           l5423 2C8E                           l5415 2C44  
                         l5407 2C20                           l5511 2746                           l5503 2710  
                         l5319 26D0                           l5271 2580                           l5255 250C  
                         l5239 2480                           l5247 24A0                           l5191 2350  
                         l5183 2340                           l5175 2330                           l5167 2316  
                         l5159 22EA                           l5327 47E6                           l5335 490A  
                         l5343 481E                           l6151 1AFE                           l6143 1ACC  
                         l6135 1A9A                           l6127 1A4A                           l6119 19B0  
                         l6071 181A                           l6063 1776                           l6055 16F0  
                         l6039 1560                           l6047 1656                           l6303 1E3C  
                         l4703 4394                           l4617 3F3C                           l4609 3F18  
                         l4801 399A                           l4561 3FC0                           l4553 3FA0  
                         l4545 3F76                           l4721 3152                           l4713 3120  
                         l4633 43FC                           l5353 4950                           l6241 3580  
                         l6225 34AA                           l6217 348A                           l6209 3428  
                         l5441 2D16                           l5433 2CD4                           l5425 2C96  
                         l5417 2C5E                           l5409 2C30                           l5361 2B28  
                         l5601 2A6A                           l5521 2772                           l5513 274C  
                         l5505 2720                           l5273 258E                           l5265 2566  
                         l5281 25AC                           l5249 24C6                           l5257 251C  
                         l5193 2354                           l5185 2344                           l5177 2334  
                         l5169 2324                           l5329 47F8                           l5337 490E  
                         l6161 1B2E                           l6153 1B0C                           l6145 1ADE  
                         l6137 1AA8                           l6081 1872                           l6129 1A4E  
                         l6065 17CC                           l6073 181E                           l6057 1722  
                         l6049 1674                           l6321 1F6E                           l6313 1EF0  
                         l6305 1E76                           l6401 326E                           l4619 3F4A  
                         l4811 39A4                           l4803 399C                           l4571 3FFA  
                         l4563 3FC8                           l4555 3FB2                           l4547 3F80  
                         l5347 4550                           l4731 31DA                           l4723 315E  
                         l4715 3136                           l4707 30BC                           l4635 4408  
                         l4627 43BA                           l6243 3592                           l6235 352C  
                         l6227 34B2                           l6219 348E                           l5443 2D2C  
                         l5451 2D5C                           l5435 2CF2                           l5427 2CA6  
                         l5419 2C6E                           l5371 2B5C                           l5363 2B2A  
                         l5611 2AD2                           l5603 2A6E                           l5531 27C8  
                         l5523 2782                           l5515 2752                           l5507 2730  
                         l5275 2596                           l5267 2570                           l5259 2542  
                         l5283 25BA                           l5195 2358                           l5187 2348  
                         l5179 2338                           l5339 4926                           l6171 1B90  
                         l6163 1B54                           l6155 1B14                           l6147 1AE6  
                         l6139 1AB8                           l6091 1918                           l6083 18D6  
                         l6075 182E                           l6067 17D2                           l6059 1732  
                         l6251 3AFC                           l6331 1FEE                           l6323 1F7E  
                         l6307 1E96                           l6315 1F02                           l6411 3296  
                         l6403 3272                           l4821 39B2                           l4813 39A6  
                         l4805 399E                           l4573 4000                           l4565 3FCE  
                         l4557 3FB8                           l4549 3F86                           l5349 4560  
                         l4741 3218                           l4733 31E6                           l4725 3190  
                         l4709 30CC                           l4637 4418                           l4629 43C2  
                         l6229 34BA                           l5701 40B2                           l5453 2D6A  
                         l5445 2D32                           l5437 2CF4                           l5429 2CBA  
                         l5381 2B8E                           l5365 2B3A                           l5373 2B64  
                         l5357 2B0E                           l5621 2AFC                           l5613 2AE2  
                         l5605 2A88                           l5541 2808                           l5525 2792  
                         l5517 2760                           l5509 2736                           l5293 260C  
                         l5285 25BE                           l5277 259A                           l5269 257E  
                         l5197 235C                           l5189 234C                           l6181 1BD6  
                         l6173 1BAA                           l6165 1B70                           l6157 1B1C  
                         l6149 1AF6                           l6085 18E4                           l6093 1920  
                         l6077 1842                           l6069 1806                           l6261 3B4E  
                         l6333 201E                           l6325 1FB4                           l6317 1F28  
                         l6309 1EA4                           l6421 3350                           l6413 32DC  
                         l6405 3276                           l4901 3640                           l4591 3ED2  
                         l4831 39CC                           l4823 39C2                           l4815 39A8  
                         l4807 39A0                           l4575 4002                           l4567 3FDE  
                         l4559 3FBE                           l4743 323C                           l4735 31F4  
                         l4727 3192                           l4719 314A                           l6239 356E  
                         l5631 3C7E                           l5703 40B8                           l5463 2DD4  
                         l5471 2E1C                           l5455 2D6E                           l5447 2D3C  
                         l5439 2D04                           l5391 2BC2                           l5383 2B90  
                         l5375 2B74                           l5367 2B4A                           l5359 2B1A  
                         l5711 418A                           l5615 2AF0                           l5607 2A9C  
                         l5551 2852                           l5543 2814                           l5535 27DC  
                         l5527 2798                           l5519 2762                           l5295 2618  
                         l5287 25CC                           l5279 25AA                           l5199 2360  
                         l6191 1C26                           l6183 1BE6                           l6175 1BB0  
                         l6167 1B78                           l6159 1B28                           l6095 1934  
                         l6087 18F8                           l6079 184E                           l6263 3B60  
                         l6255 3B08                           l6343 20EE                           l6327 1FC6  
                         l6319 1F38                           l6271 1CAC                           l6431 3364  
                         l6423 3354                           l6415 3322                           l6407 327C  
                         l4903 364A                           l4911 36BE                           l4593 3ED8  
                         l4833 39CE                           l4825 39C6                           l4817 39AA  
                         l4809 39A2                           l4761 3914                           l4753 38D4  
                         l4577 400A                           l4569 3FE8                           l4745 324C  
                         l4737 3212                           l4729 319E                           l5641 3CAA  
                         l5633 3C82                           l5705 40C8                           l5481 2E86  
                         l5473 2E36                           l5465 2DE0                           l5457 2D7C  
                         l5449 2D4A                           l5385 2BA0                           l5393 2BCA  
                         l5377 2B7A                           l5369 2B5A                           l5721 422A  
                         l5713 41B8                           l5617 2AF2                           l5609 2AB6  
                         l5561 28A4                           l5553 285E                           l5545 282C  
                         l5537 27E8                           l5529 27B8                           l5297 2626  
                         l5289 25E2                           l5625 4794                           l5801 3D42  
                         l6193 1C38                           l6185 1BEC                           l6177 1BC2  
                         l6169 1B7E                           l6097 1942                           l6089 190A  
                         l6265 3B8C                           l6257 3B16                           l6249 3AD2  
                         l6345 2100                           l6353 2178                           l6329 1FE0  
                         l6337 204A                           l6281 1D2E                           l6273 1CBA  
                         l6441 33CA                           l6433 3368                           l6425 3358  
                         l6417 3348                           l6409 3280                           l4905 3670  
                         l4921 49DE                           l4595 3EDC                           l4587 3EC0  
                         l4835 39D0                           l4827 39C8                           l4819 39B0  
                         l4771 3978                           l4763 392E                           l4755 38F0  
                         l4747 325A                           l4739 3214                           l5651 3CD8  
                         l5643 3CB2                           l5635 3C90                           l5707 40D0  
                         l5483 2E94                           l5475 2E4C                           l5467 2DEE  
                         l5459 2DAA                           l5395 2BDA                           l5387 2BB0  
                         l5379 2B80                           l5723 4230                           l5715 41C8  
                         l5731 380E                           l5619 2AF8                           l5571 2922  
                         l5563 28B4                           l5555 286E                           l5547 2838  
                         l5539 27F2                           l5299 2660                           l5627 47A4  
                         l5811 3D92                           l5803 3D50                           l6195 1C44  
                         l6187 1BF2                           l6179 1BCE                           l6099 1952  
                         l6259 3B2E                           l6371 2210                           l6355 21A0  
                         l6363 21CE                           l6347 2134                           l6339 2078  
                         l6283 1D3C                           l6275 1CCC                           l6451 33E6  
                         l6443 33CE                           l6435 336C                           l6427 335C  
                         l6419 334C                           l6523 3698                           l4907 367A  
                         l4931 4A08                           l4923 49E2                           l4597 3EDE  
                         l4589 3EC4                           l4829 39CA                           l4781 3986  
                         l4773 397A                           l4765 395A                           l4757 38F2  
                         l6453 499A                           l4749 325C                           l6525 34DC  
                         l5661 3D12                           l5653 3CE0                           l5645 3CB6  
                         l5637 3C98                           l5485 2E9A                           l5477 2E66  
                         l5469 2E18                           l5397 2BF0                           l5389 2BC0  
                         l5717 41F6                           l5741 387A                           l5733 383C  
                         l5581 299C                           l5573 2958                           l5565 28D0  
                         l5557 287A                           l5549 2844                           l5813 3DA6  
                         l5805 3D64                           l6197 1C4C                           l5901 1034  
                         l6365 21DC                           l6357 21AE                           l6293 1DC4  
                         l6285 1D4A                           l6277 1CD0                           l6269 1C84  
                         l6381 44A0                           l6445 33D6                           l6437 3392  
                         l6429 3360                           l4909 3684                           l4933 4A0A  
                         l4925 49F2                           l4917 49CC                           l6461 424E  
                         l4599 3EF8                           l4791 3990                           l4783 3988  
                         l4775 3980                           l4767 395E                           l4759 38F4  
                         l5671 3D38                           l5663 3D14                           l5655 3CEE  
                         l5647 3CBE                           l5639 3C9C                           l5487 2E9C  
                         l5479 2E82                           l5399 2C00                           l5719 4206  
                         l5743 38CA                           l5735 384C                           l5727 37D0  
                         l5591 29FC                           l5583 29AE                           l5575 2966  
                         l5567 28DC                           l5559 288A                           l5495 26E4  
                         l5751 486C                           l5831 3A66                           l5823 39D4  
                         l5815 3DAA                           l5807 3D72                           l6199 1C5C  
                         l5911 1088                           l5903 1044                           l6359 21C2  
                         l6287 1D6A                           l6295 1DD6                           l6279 1CF8  
                         l6383 44C6                           l6391 461C                           l6447 33DA  
                         l6439 33C4                           l4695 434E                           l4927 49F4  
                         l4919 49DC                           l6471 4288                           l6463 4252  
                         l6455 4234                           l4793 3992                           l4785 398A  
                         l4777 3982                           l4769 3976                           l6385 495A  
                         l5665 3D1A                           l5657 3CF4                           l5649 3CD0  
                         l5681 4044                           l5745 38D0                           l5737 385A  
                         l5729 37FE                           l5585 29BC                           l5577 2984  
                         l5569 28F8                           l5497 26F0                           l5753 487C  
                         l5841 3AC8                           l5825 39F4                           l5817 3DD6  
                         l5809 3D7E                           l5921 10CE                           l5913 1090  
                         l5905 1052                           l6297 1DFE                           l6289 1D78  
                         l6369 21E8                           l6377 448A                           l6393 4624  
                         l6449 33E2                           l4697 4352                           l4929 49F8  
                         l6481 42C2                           l6473 4298                           l6465 4264  
                         l6457 4238                           l4795 3994                           l4787 398C  
                         l4779 3984                           l6387 496E                           l5659 3D0A  
                         l5667 3D20                           l5691 4078                           l5683 4048  
                         l5675 402A                           l5739 386C                           l5595 2A26  
                         l5587 29C0                           l5579 298E                           l5499 26FE  
                         l5771 3734                           l5763 36F4                           l5827 3A32  
                         l5835 3A72                           l5819 3DEA                           l5851 4538  
                         l5931 110A                           l5923 10D6                           l5915 10A2  
                         l5907 105A                           l6299 1E06                           l6379 4492  
                         l6395 462C                           l4699 435A                           l4891 35BC  
                         l6475 429C                           l6467 4274                           l6459 423C  
                         l4797 3996                           l4789 398E                           l5669 3D30  
                         l5693 4080                           l5685 4056                           l5677 402E  
                         l5597 2A32                           l5589 29CE                           l5749 4856  
                         l5781 3764                           l5773 3742                           l5765 371E  
                         l5757 36CA                           l5837 3A84                           l5829 3A5A  
                         l5861 2F32                           l5845 44F0                           l5941 1186  
                         l5925 10DA                           l5917 10B0                           l5909 107E  
                         l6397 464A                           l6389 460A                           l4893 35E2  
                         l6477 42AE                           l6469 4278                           l4799 3998  
                         l5695 408E                           l5687 405E                           l5679 403C  
                         l5599 2A40                           l5791 378E                           l5783 376E  
                         l5767 3720                           l5759 36E0                           l5863 2F40  
                         l5871 3020                           l5855 2EA8                           l5943 1190  
                         l5935 1140                           l5927 10DE                           l5919 10C2  
                         l4895 35EA                           l6479 42BE                           l5697 40A4  
                         l5689 4070                           l5793 379E                           l5769 3730  
                         l5873 305C                           l5857 2EC8                           l5849 4526  
                         l5953 1214                           l5937 1152                           l5929 10E4  
                         l4897 3610                           l4889 35B8                           l5883 488E  
                         l5891 467C                           l5699 40AC                           l5795 37AE  
                         l5779 375A                           l5875 3070                           l5867 2FB0  
                         l5859 2F1E                           l5971 12AE                           l5955 1226  
                         l5939 116E                           l5947 11B8                           l4899 361A  
                         l5893 46AA                           l5797 37BE                           l5789 3782  
                         l5877 3098                           l5869 2FEC                           l5981 137E  
                         l5973 12E2                           l5957 1242                           l5949 11DE  
                         l5965 125E                           l5895 46AE                           l5887 4664  
                         l5879 30A8                           l5991 13E8                           l5975 12E8  
                         l5983 13B0                           l5967 1278                           l5889 4668  
                         l5993 13F0                           l5985 13C0                           l5977 1342  
                         l5995 140A                           l5987 13C4                           l5979 1376  
                         l5899 102A                           l5989 13D6                           l5997 1422  
                         STR_1 1010                           STR_2 100A                           STR_3 1016  
                         STR_4 101E                           STR_7 101A                           STR_8 1022  
                         _LATA 000F89                           _LATB 000F8A                           _LATC 000F8B  
                         _LATD 000F8C                           u6000 2316                           u6001 2312  
                         u6010 2324                           u6011 2320                           u6100 2462  
                         u6020 2392                           u6101 245E                           u6021 238E  
                         u5310 3F72                           u6110 2470                           u6030 23AA  
                         u5311 3F6E                           u6111 246C                           u6031 23A4  
                         u5320 43D2                           u7000 486C                           u6200 25BA  
                         u6120 248E                           u6040 23AC                           u5321 43CE  
                         u7001 4868                           u6201 25B6                           u6121 248A  
                         u5330 43EA                           u6210 25CC                           u6130 24C6  
                         u6050 23D4                           u7010 36E0                           u5331 43E6  
                         u6211 25C8                           u6131 24C2                           u6051 23D0  
                         u7011 36DC                           u5500 3204                           u5340 43FC  
                         u6300 26B4                           u6220 25E2                           u6140 250C  
                         u6060 23F2                           u7020 3714                           u7100 3DC8  
                         u5420 437C                           u5501 3200                           u5341 43F8  
                         u6301 26B0                           u6221 25DE                           u6141 2508  
                         u6061 23EE                           u7101 3DC4                           u5421 4378  
                         u5270 3F96                           u5510 3212                           u5350 4418  
                         u6310 26D0                           u6230 25F8                           u6150 2542  
                         u6070 2412                           u7030 3742                           u7110 3DD6  
                         u5430 4394                           u5271 3F92                           u5511 320E  
                         u5351 4414                           u6311 26CC                           u6231 25F4  
                         u6151 253E                           u6071 240E                           u7031 373E  
                         u7111 3DD2                           u5431 4390                           u5280 3FDE  
                         u5520 324C                           u5440 30CC                           u6400 2B4A  
                         u6240 260C                           u6160 2552                           u6080 2420  
                         u7040 3756                           u7120 3A14                           u6320 481C  
                         u7200 4522                           u8000 3B60                           u5281 3FDA  
                         u5521 3248                           u5441 30C8                           u6401 2B46  
                         u6241 2608                           u6161 254E                           u6081 241C  
                         u7041 3752                           u7025 370A                           u6321 4818  
                         u8001 3B5C                           u5290 4028                           u5530 325A  
                         u5450 30DA                           u6410 2B8E                           u6250 2626  
                         u6170 257E                           u6090 2430                           u7050 377E  
                         u7130 3A32                           u6330 4926                           u7210 4538  
                         u8010 3B8C                           u5291 4024                           u5531 3256  
                         u5451 30D6                           u6411 2B8A                           u6251 2622  
                         u6171 257A                           u6091 242C                           u7051 377A  
                         u7131 3A2E                           u6331 4922                           u7211 4534  
                         u8011 3B88                           u5540 39C2                           u5460 3136  
                         u6500 2D2C                           u6420 2BA0                           u6260 2660  
                         u6180 258E                           u7060 379E                           u7140 3A5A  
                         u7300 305C                           u7220 2EF0                           u6340 484E  
                         u8100 1EEA                           u8020 1CAC                           u5541 39BE  
                         u5461 3132                           u6501 2D28                           u6421 2B9C  
                         u6261 265C                           u6181 258A                           u7061 379A  
                         u7141 3A56                           u7125 3A0A                           u7301 3058  
                         u6341 4848                           u8101 1EE4                           u8021 1CA8  
                         u5470 318C                           u6510 2D4A                           u6430 2BB0  
                         u6270 2672                           u6190 25AA                           u7070 37AE  
                         u7150 3A84                           u7310 3098                           u7230 2F1E  
                         u6350 4850                           u8110 1EEC                           u8030 1CF8  
                         u5471 3188                           u6511 2D46                           u6431 2BAC  
                         u6271 266E                           u6191 25A6                           u7071 37AA  
                         u7151 3A80                           u7311 3094                           u7231 2F1A  
                         u8031 1CF4                           u6360 459A                           u5480 31D6  
                         u7320 48BE                           u6600 2E94                           u6520 2D6A  
                         u6440 2BF0                           u6280 2682                           u7240 2F40  
                         u7080 3D50                           u7400 110A                           u8200 21A0  
                         u8120 1F02                           u8040 1D3C                           u5560 35E2  
                         u5481 31D2                           u7321 48B8                           u6601 2E90  
                         u6521 2D66                           u6441 2BEC                           u6281 267E  
                         u7241 2F3C                           u7225 2EE6                           u7081 3D4C  
                         u7401 1106                           u8201 219C                           u8121 1EFE  
                         u8041 1D38                           u5561 35DE                           u6370 45AC  
                         u5490 31F4                           u7330 48C0                           u6530 2D7C  
                         u6450 2C30                           u6610 26FE                           u6290 26A2  
                         u7170 3ABE                           u7090 3D72                           u7410 1138  
                         u8130 1F38                           u8050 1DBE                           u8210 44E6  
                         u5570 3610                           u6371 45A8                           u5491 31F0  
                         u6531 2D78                           u6451 2C2C                           u6611 26FA  
                         u6291 269E                           u7171 3AB8                           u7091 3D6E  
                         u7411 1132                           u8131 1F34                           u8051 1DB8  
                         u8211 44E2                           u5571 360C                           u7340 467C  
                         u6540 2DAA                           u6460 2CA6                           u6380 2B28  
                         u6700 299C                           u6620 2710                           u7180 3AC0  
                         u7260 2FAC                           u5900 3BD8                           u7500 13B0  
                         u7420 113A                           u8140 1F7E                           u8060 1DC0  
                         u8220 33C4                           u5580 3640                           u7341 4678  
                         u6541 2DA6                           u6461 2CA2                           u6381 2B24  
                         u6701 2998                           u6621 270C                           u7165 3A96  
                         u7261 2FA8                           u5901 3BD4                           u7501 13AC  
                         u8141 1F7A                           u8221 33C0                           u5581 363C  
                         u7350 46AA                           u6550 2DC0                           u6470 2CC8  
                         u6390 2B3A                           u6710 29BC                           u6630 2720  
                         u7270 2FD0                           u5910 3C00                           u7190 4520  
                         u7510 13D6                           u7430 1152                           u8150 1FC6  
                         u8070 1DD6                           u5590 3670                           u8230 424E  
                         u6367 4590                           u7351 46A6                           u6551 2DBC  
                         u6471 2CC4                           u6391 2B36                           u6711 29B8  
                         u6631 271C                           u7255 2F54                           u5911 3BFC  
                         u7191 451A                           u7511 13D2                           u7431 114E  
                         u8151 1FC2                           u8071 1DD2                           u5591 366C  
                         u8231 424A                           u6800 3C90                           u6560 2DD4  
                         u6480 2CF2                           u6720 29CE                           u6640 2760  
                         u7280 2FEC                           u7256 2F5E                           u5920 3C36  
                         u7600 14DE                           u7520 13E8                           u7440 11DE  
                         u7360 1052                           u8160 2078                           u8080 1DFE  
                         u8240 4264                           u6801 3C8C                           u6561 2DD0  
                         u6481 2CEE                           u6721 29CA                           u6641 275C  
                         u7281 2FE8                           u7257 2F6E                           u5921 3C32  
                         u7601 14DA                           u7521 13E4                           u7441 11DA  
                         u7361 104E                           u8161 2074                           u8081 1DFA  
                         u8241 4260                           u6810 3CAA                           u6570 2DEE  
                         u6490 2D16                           u6730 29FC                           u6650 2772  
                         u5930 223E                           u7290 3040                           u7610 14F4  
                         u7530 140A                           u7450 120C                           u7370 10A2  
                         u8170 20E8                           u8090 1E3C                           u8250 4274  
                         u8307 43BC                           u6811 3CA6                           u6571 2DEA  
                         u6491 2D12                           u6731 29F8                           u6651 276E  
                         u5931 223A                           u7275 2FC6                           u7611 14F0  
                         u7531 1406                           u7451 1206                           u7371 109E  
                         u8171 20E2                           u8091 1E38                           u8251 4270  
                         u6820 3CD0                           u6900 40A4                           u6580 2E36  
                         u6740 2A12                           u6660 2782                           u5940 2250  
                         u7700 1842                           u7620 1502                           u7540 1430  
                         u7460 120E                           u7380 10B0                           u8180 20EA  
                         u8260 4288                           u8317 3FC2                           u6821 3CCC  
                         u6901 40A0                           u6581 2E32                           u6741 2A0E  
                         u6661 277E                           u5941 224C                           u7701 183E  
                         u7621 14FE                           u7541 142C                           u7381 10AC  
                         u8261 4284                           u6830 3CEE                           u6910 40C8  
                         u6590 2E66                           u6750 2A26                           u6670 27B8  
                         u5950 2260                           u7710 18E4                           u7630 152C  
                         u7550 1446                           u7470 1226                           u7390 10C2  
                         u8190 2100                           u8270 4298                           u8327 4004  
                         u6831 3CEA                           u6911 40C4                           u6591 2E62  
                         u6751 2A22                           u6671 27B4                           u5951 225C  
                         u7295 3036                           u7711 18E0                           u7631 1528  
                         u7551 1442                           u7471 1222                           u7391 10BE  
                         u8191 20FC                           u8271 4294                           u6840 3D0A  
                         u6920 41B8                           u6760 2A40                           u6680 27C8  
                         u5960 22A2                           u7800 1A9A                           u7720 18F8  
                         u7640 1674                           u7560 1462                           u7480 12AA  
                         u8280 42AE                           u8337 3ECA                           u6841 3D06  
                         u6921 41B4                           u6761 2A3C                           u6681 27C4  
                         u5961 229E                           u7801 1A96                           u7721 18F4  
                         u7641 1670                           u7561 145E                           u7481 12A6  
                         u8281 42AA                           u6850 3D30                           u6930 41F6  
                         u6770 2A88                           u6690 2942                           u5970 22B8  
                         u5890 3BC6                           u7810 1AA8                           u7730 190A  
                         u7650 16DA                           u7570 1498                           u7490 133E  
                         u8290 42BE                           u8347 3F0C                           u6851 3D2C  
                         u6931 41F2                           u6771 2A84                           u5971 22B4  
                         u5891 3BC2                           u7811 1AA4                           u7731 1906  
                         u7651 16D6                           u7571 1494                           u7491 133A  
                         u8291 42BA                           u7900 3450                           u6860 403C  
                         u6940 422A                           u6780 2AB6                           u5980 22CA  
                         u7820 1ADE                           u7740 1918                           u7660 1722  
                         u7580 14BE                           u8357 3F42                           u7901 344C  
                         u6861 4038                           u6941 4226                           u6781 2AB2  
                         u5981 22C6                           u7821 1ADA                           u7741 1914  
                         u7661 171E                           u7581 14BA                           u7910 348A  
                         u6870 4056                           u6950 37FE                           u6790 2AF0  
                         u5990 22DA                           u7830 1B0C                           u7750 1934  
                         u7670 1732                           u7590 14D0                           u7911 3486  
                         u6871 4052                           u6951 37FA                           u6791 2AEC  
                         u6695 2938                           u5991 22D6                           u7831 1B08  
                         u7751 1930                           u7671 172E                           u7591 14CC  
                         u7920 34A6                           u6880 4070                           u6960 383C  
                         u7840 1B90                           u7760 1942                           u7680 17CC  
                         u7921 34A2                           u6881 406C                           u6961 3838  
                         u7841 1B8C                           u7761 193E                           u7681 17C8  
                         u7930 3568                           u6890 408E                           u6970 385A  
                         u7850 1BAA                           u7770 199A                           u7690 181A  
                         u7931 3562                           u6891 408A                           u6971 3856  
                         u7851 1BA6                           u7771 1996                           u7691 1816  
                         u7940 356A                           u6980 387A                           u7860 1BC2  
                         u7780 1A6C                           u6981 3876                           u7861 1BBE  
                         u7781 1A68                           u7950 3580                           u6990 38CA  
                         u7870 1C20                           u7790 1A88                           u7951 357C  
                         u6991 38C6                           u7871 1C1A                           u7791 1A84  
                         u7960 3592                           u7880 1C22                           u7961 358E  
                         u7890 1C38                           u7970 3AFC                           u7891 1C34  
                         u7971 3AF8                           u7980 3B2E                           u7981 3B2A  
                         u7990 3B4E                           u7991 3B4A                   InitLCD@count 0009  
                         _dbuf 010C                           _atoi 3414                           _main 4234  
                         _prec 004F                           _temp 00BC                           _nout 00C0  
                         pad@i 001F                           pad@p 001C                           fsr1h 000FE2  
                         fsr2h 000FDA                           indf1 000FE7                           indf2 000FDF  
                         fsr1l 000FE1                           pad@w 0021                           fsr2l 000FD9  
                         btemp 0057                  ___fpclassifyf 39D4                           prodh 000FF4  
                         prodl 000FF3                           start 00A4                ___fldiv@new_exp 0019  
                 _tolower$2463 0014                 _sendContinuous 49F8                   ___param_bank 000000  
              __end_of_InitLCD 3F76              ??_sendTemperature 0008                __end_of_Initial 39D4  
                 ?_readCommand 0001                          ??_pad 001E                  ___fltol@sign1 0010  
                        ?_atoi 000F                __end_of___fladd 26E4                          ?_main 0001  
              __end_of___fldiv 2EA8                __end_of___awdiv 3D42                __end_of___flneg 488E  
                        _ADRES 000FC3                          _CCPR1 000FBC                          STR_11 1026  
                        _CCPR3 000F4A                          STR_13 1026                __end_of___awmod 40DA  
              __end_of___flmul 2B0E                __end_of___flsub 47DA                __end_of___fltol 37D0  
                        _T0CON 000FD5                ___awdiv@divisor 000A                          _T1CON 000FCD  
                        _T3CON 000FB1                          i1l430 3E2E                          i1l431 3E36  
                        i1l440 3EBE                          i1l433 3E44                          i1l362 0094  
                        i1l354 0026                          i1l371 474A                          i1l355 003C  
                        i1l428 3E20                          i1l381 4A14                          i1l357 0052  
                        i1l366 4998                          i1l358 0068                          i1l391 4772  
                        i1l375 48FC                          i1l359 007E                          i1l393 4792  
                        i1l378 4A18                          i2l344 46BE                          i2l425 4188  
                        i2l345 46D4                          i2l349 46F8                          i2l384 4438  
                        i2l385 4488                ___awdiv@counter 000C                   vfpfcnvrt@fmt 0049  
                        _TMR0H 000FD7                          _TMR0L 000FD6                          _PORTB 000F81  
                        _TMR3X 00D4                          _TRISA 000F92                          _TRISB 000F93  
                        _TRISC 000F94                          _TRISD 000F95                          _TRISE 000F96  
                InitLCD@nibble 000A                __end_of_readADC 4422                          _flags 0051  
                        _fputc 3BB4                          _fputs 47DA                __end_of_isdigit 48C6  
                        _sendI 0054                          _rxFin 00DB                          atoi@n 001C  
                        pad@fp 0018                          atoi@s 000F                          _width 00C2  
                        _trash 00CA                          _putch 4A1A                __end_of_isspace 46B6  
              __end_of_isupper 4856                          tablat 000FF5                          ttemp5 0058  
                        ttemp6 005B                          ttemp7 005F                          status 000FD8  
                        wtemp8 0058                __end_of_sprintf 4664                 ?___fpclassifyf 0008  
              __end_of_tolower 4550                __end_of_strncmp 3BB4               __end_of_HiPriISR 4704  
       __end_of_sendContinuous 4A0E                __initialization 42CE               __end_of_DisplayC 497C  
             __end_of_DisplayV 402A               __end_of_LoPriISR 00A4   __end_of_EUSARTCommandHandler 448A  
                 __end_of_atoi 35B8                   __end_of_main 42CE                         ??_atoi 0011  
                       ??_main 004F                  __activetblptr 000003                         _ADCON0 000FC2  
                       _ADCON2 000FC0                         ?_fputc 0008                         ?_fputs 0011  
                       _CCPR3H 000F4B                         _CCPR3L 000F4A                         _CCPR3X 00FE  
                       _ANCON0 000F25                         _ANCON1 000F24                         _ANCON2 000F23  
             ___awdiv@dividend 0008                         ?_putch 0001                         i1l5001 48C8  
                       i1l5003 48D0                         i1l5013 48EC                         i1l5005 48D2  
                       i1l5021 4A0E                         i1l5015 48F4                         i1l5007 48E2  
                       i1l5023 4A12                         i1l5017 48F8                         i1l5009 48E4  
                       i1l5019 48FA                         i1l3187 4A16                         i1l5061 004A  
                       i1l5063 0060                         i1l5065 0076                         i1l5067 008C  
                       i1l5059 0034                         i1l4651 3E04                         i1l4661 3E5C  
                       i1l4653 3E0E                         i1l4663 3E74                         i1l4671 3E92  
                       i1l4655 3E10                         i1l4673 3EA4                         i1l4665 3E78  
                       i1l4657 3E1C                         i1l4681 474C                         i1l4675 3EA8  
                       i1l4667 3E80                         i1l4659 3E4A                         i1l4691 478A  
                       i1l4683 475A                         i1l4677 3EB0                         i1l4669 3E86  
                       i1l4693 478E                         i1l4685 475C                         i1l4679 3EB6  
                       i1l4687 4774                         i1l4689 4786                         i2l5053 46CC  
                       i1l4981 498C                         i2l5055 46E2                         i1l4983 4994  
                       i1l4991 472E                         i2l5057 46F0                         i1l4977 497C  
                       i1l4993 4730                         i1l4985 4704                         i1l4979 498A  
                       i1l4995 4744                         i1l4987 4712                         i1l4997 4748  
                       i1l4989 472A                         i1l4999 48C6                         i2l4941 4446  
                       i2l4943 444E                         i2l4951 40EC                         i2l4945 447C  
                       i2l4937 4422                         i2l4961 4132                         i2l4953 40FC  
                       i2l4947 4482                         i2l4939 4430                         i2l4955 410C  
                       i2l4973 417A                         i2l4965 4146                         i2l4957 4112  
                       i2l4949 40DA                         i2l4975 4186                         i2l4967 4156  
                       i2l4959 4122                         i2l4969 4166                         _RCREG1 000FAE  
                       _RCSTA1 000FAB                         _SPBRG1 000FAF                   ?_TMR0Handler 0001  
                       _TXREG1 000FAD               __end_of___xxtofl 326E                         _TXSTA1 000FAC  
                    ??_InitLCD 0008                   ?_TMR1Handler 0001               __end_of_aliveLED 4794  
              ?_sendContinuous 0001                      ??_Initial 000B                   ?_TMR3Handler 0001  
                 _checkCONTOFF 0187                   _CCPTMRS0bits 000F2D                   vfprintf@cfmt 004D  
                       ___flge 37D0                         ___fleq 418A                      ??___fladd 0010  
                       ___wmul 4934                      ??___fldiv 0010                      ??___awdiv 000C  
                    ??___flneg 000C                      ??___awmod 000C                      ??___flmul 001E  
                    ??___flsub 0037                      ??___fltol 000C                         _efgtoa 102A  
                       _buffer 015C                         _floorf 2EA8                         _potLCD 00EE  
                       clear_0 4326                         clear_1 4332                         clear_2 433E  
             ___awdiv@quotient 000E                         _upDown 00D3                ___awmod@divisor 000A  
                       _timeON 00E7                         isa$std 000001                         _sensor 00E1  
              ___awmod@counter 000C                         pad@buf 001A                         _strcmp 434E  
                       _strcpy 4550                         _strlen 48FE               __end_of_sendNext 418A  
                    ??_readADC 0008                         fputc@c 0008                         fputs@c 0015  
                       fputs@i 0016                   __pdataCOMRAM 0056                         fputs@s 0011  
                    ??_isdigit 000A                ___fpclassifyf@e 0010                ___fpclassifyf@u 0012  
              ___fpclassifyf@x 0008                   __mediumconst 0000                      ??_isspace 000A  
                       tblptrh 000FF7                      ??_isupper 000A                         tblptrl 000FF6  
                       tblptru 000FF8                         putch@c 0001               __end_of_vfprintf 44F0  
                    ??_sprintf 004F                      ??_tolower 0010                      ??_strncmp 000E  
                   ___flge@ff1 002F                     ___flge@ff2 0033                ??___fpclassifyf 000C  
                 ___xxtofl@arg 0012                   ___xxtofl@exp 0011                   ___xxtofl@val 0008  
                   ___fleq@ff1 0008                     ___fleq@ff2 000C                     __accesstop 0060  
      __end_of__initialization 4344                     ___flneg@f1 0008                  ___rparam_used 000001  
                   ___fltol@f1 0008                 __pcstackCOMRAM 0001                   __pidataBANK0 49B4  
                 __pidataBANK1 45AE                  __end_of_fputc 3C7E                  __end_of_fputs 481E  
                __end_of_putch 4A1C           __size_of_readCommand 0112             __size_of_handleADC 01A6  
                    ?_HiPriISR 0001                        ??_fputc 000C                        ??_fputs 0015  
                    ?_DisplayC 0012                      ?_DisplayV 0008           _EUSARTCommandHandler 4422  
                      ??_putch 0008                      ?_LoPriISR 0001                     __pbssBANK0 00B8  
                   __pbssBANK1 0100                _sendTemperature 49CC                        ?___flge 002F  
                      ?___fleq 0008                        ?___wmul 0008                  ??_CCP1Handler 0004  
                      ?_efgtoa 003B                        _CCP1CON 000FBB                  ??_CCP3Handler 0004  
                      _CCP3CON 000F49                        ?_floorf 0021                        _DACData 00EB  
                      _DACTemp 00C6                        ?_strcmp 0008                        ?_strcpy 0008  
                      ?_strlen 0008                      ?___xxtofl 0008                     ??_HiPriISR 0002  
                    ?_aliveLED 0001             __size_of_updateDAC 00BC             __size_of_vfpfcnvrt 05A0  
                   _displayLCD 499A                        _SSP1BUF 000FC9          ?_EUSARTCommandHandler 0001  
                   ??_DisplayC 0014                     ??_DisplayV 000A                     ??_LoPriISR 0005  
                      _InitLCD 3EC0              __end_of_handleADC 3414                        _Initial 38D4  
                    ?_sendNext 0001                        __Hparam 0000           __size_of_TMR0Handler 0038  
                      __Lparam 0000           __size_of_TMR1Handler 0004                     _byteToSend 00DC  
            _sendPotentiometer 49E2           __size_of_TMR3Handler 0008                __size_of___flge 0104  
              __size_of___fleq 00AA                        ___fladd 2224                        ___fldiv 2B0E  
                      ___awdiv 3C7E                        ___flneg 4856                        ___awmod 402A  
                      ___flmul 26E4                        ___flsub 4794                        ___fltol 36CA  
              __size_of___wmul 0026             ?_sendPotentiometer 0001                      ?_vfprintf 00AA  
                 __psmallconst 1000                __size_of_efgtoa 0C5A                     _currentBin 00C8  
              __size_of_floorf 0212                        __pcinit 42CE                        __ramtop 1000  
                      __ptext0 4234                        __ptext1 49CC                        __ptext2 49E2  
                      __ptext3 49F8                        __ptext4 35B8                        __ptext5 434E  
                      __ptext6 326E                        __ptext7 460A                        __ptext8 448A  
                      __ptext9 1C84                      _T0CONbits 000FD5                        _oldLATD 00E2  
              __size_of_strcmp 006C                        _readADC 43BA                __size_of_strcpy 005E  
              __size_of_strlen 0036                      _T1CONbits 000FCD                      _DTIMEDACH 00D0  
                    _DTIMEDACL 00D1            ??_sendPotentiometer 0008            __end_of_CCP1Handler 499A  
                    _DTIMEOFFH 00D6                      _DTIMEOFFL 00D7                      _DTIMEOFFX 00D5  
                 __size_of_pad 00C2                        _isdigit 488E                     ??___xxtofl 000C  
                    _T3CONbits 000FB1                        _row1LCD 01B9                        _row2LCD 01AF  
             ___awmod@dividend 0008                        _sendPOT 0055            __end_of_CCP3Handler 474C  
                      _tempLCD 00F4                        _isspace 4664                     ??_aliveLED 0004  
                      _timeOFF 00E3        __end_of_sendTemperature 49E2                        _isupper 481E  
                      efgtoa@c 0041                        efgtoa@d 0078                        efgtoa@e 0090  
                      efgtoa@f 003D                        efgtoa@g 008C                        efgtoa@h 0082  
                      efgtoa@i 008A                        efgtoa@l 0086                        efgtoa@m 0072  
                      efgtoa@n 0092                        efgtoa@p 007C                        _potSend 0179  
                      efgtoa@t 006C                        efgtoa@u 0094                        efgtoa@w 007E  
                      atoi@neg 0015                        _sprintf 460A                        _tolower 44F0  
                      _strncmp 3AD2                 __pintcode_body 46B6           end_of_initialization 4344  
             ??_sendContinuous 0008                        floorf@e 002F                        floorf@m 002B  
                      floorf@u 0031                        floorf@x 0021                      _LED_count 0056  
                      fputc@fp 000A                        int_func 46B6                        fputs@fp 0013  
    __end_of_sendPotentiometer 49F8                     ??_sendNext 0001              __end_of_updateDAC 3EC0  
            __end_of_vfpfcnvrt 2224                     efgtoa@mode 0081                     efgtoa@sign 007A  
                      postdec1 000FE5                        postdec2 000FDD            __end_of_DACInterval 1003  
                      postinc0 000FEE                        postinc1 000FE6                        postinc2 000FDE  
                   ??_vfprintf 004D                        strcmp@l 0008                        strcmp@r 000A  
                      strcpy@d 0010                        strlen@a 000A                        strcpy@s 000E  
                      strlen@s 0008                    ___fladd@grs 0017                  ___xxtofl@sign 0010  
                    _TRISBbits 000F93         ??_EUSARTCommandHandler 0001                    ?_displayLCD 0001  
                  ___fldiv@grs 001B                    ___fldiv@rem 0014                    ___flmul@grs 0024  
               __end_of___flge 38D4                 __end_of___fleq 4234                    _CCP1Handler 497C  
                  vfpfcnvrt@ap 004B                    vfpfcnvrt@ct 00A6                    vfpfcnvrt@fp 0047  
               __end_of___wmul 495A                    _CCP3Handler 4704                  __pidataCOMRAM 4A1C  
               __end_of_efgtoa 1C84                 __end_of_floorf 30BA                     floorf@F527 0100  
               __end_of_strcmp 43BA                 __end_of_strcpy 45AE                 __end_of_strlen 4934  
          start_initialization 42CE               ?_sendTemperature 0001                    __end_of_pad 3E04  
            __size_of_HiPriISR 46FC              __size_of_DisplayC 0022              __size_of_DisplayV 00B4  
            __size_of_LoPriISR 008C          __end_of___fpclassifyf 3AD2                    _DACInterval 1001  
   __size_of_sendPotentiometer 0016                    _DACTempSend 00C4                    _checkCONTON 0191  
                  vfprintf@fmt 00AC                       ??___flge 0037                       ??___fleq 0010  
                     ??___wmul 000C                  ??_readCommand 000E            __size_of_displayLCD 001A  
                     ??_efgtoa 0042                    __pdataBANK0 00E3                    __pdataBANK1 0166  
                     ??_floorf 0025                       ??_strcmp 000C                       ??_strcpy 000C  
                     ??_strlen 000A            __end_of_LCDInitStr_ 100A                      ___fladd@a 000C  
                    ___fladd@b 0008                      ___fldiv@a 000C                      ___fldiv@b 0008  
                    ___flmul@a 001A                      ___flmul@b 0016                    __pbssCOMRAM 004F  
                    ___flsub@a 0033                      ___flsub@b 002F                  __pcstackBANK0 0060  
                __pcstackBANK1 01C2              __size_of___xxtofl 01B4                   _currentCCPR3 00FA  
            __size_of_aliveLED 0048                      _checkTEMP 01A5                       ?_InitLCD 0001  
                    _atoi$2365 0017                      _atoi$2366 001B                      _atoi$2367 0019  
                    __pnvBANK0 00FA                       ?_Initial 0001                    _efgtoa$2300 0060  
                  _efgtoa$2301 0062                    _efgtoa$2310 0066                    _efgtoa$2311 0068  
                  _efgtoa$2312 006A                    _efgtoa$2306 0064                 DisplayC@LCDStr 0012  
                    _handleADC 326E                      __pintcode 0008              __size_of_sendNext 00B0  
                     ?___fladd 0008                       ?___fldiv 0008                       ?___awdiv 0008  
                     ?___flneg 0008                       ?___awmod 0008                       ?___flmul 0016  
                     ?___flsub 002F                       ?___fltol 0008                    __pintcodelo 0018  
            __size_of_vfprintf 0066                       ?_readADC 0001                    __smallconst 1000  
          __end_of_readCommand 36CA                       _BAUDCON1 000F65                       ?_isdigit 0008  
                     ?_isspace 0008                      _firstread 00ED                       ?_isupper 0008  
               DisplayV@LCDStr 0008                       ?_sprintf 00B0                       ?_tolower 000E  
               __size_of_fputc 00CA                 __size_of_fputs 0044                       ?_strncmp 0008  
               __size_of_putch 0002                       _DTIMEONH 00D9                       _DTIMEONL 00DA  
                     _DTIMEONX 00D8                      _sendERROR 00DE                  ??_TMR0Handler 0004  
               ___wmul@product 000C                       _LATAbits 000F89                       _LATBbits 000F8A  
                     _LATDbits 000F8C                       _LATEbits 000F8D                  ??_TMR1Handler 0004  
                     _IPR1bits 000F9F                       _IPR2bits 000FA2                       _PIE1bits 000F9D  
                     _IPR3bits 000FA5                       _PIE2bits 000FA0                       _IPR4bits 000FB8  
                     _PIE3bits 000FA3                  ??_TMR3Handler 0004                       _PIE4bits 000FB6  
                     i1u540_20 3EA4                       i1u540_21 3EA0                       i1u541_20 475A  
                     i1u541_21 4756                       i1u536_20 3E2E                       i1u536_21 3E2A  
                     i1u537_20 3E44                       i1u537_21 3E40                       i1u538_20 3E5C  
                     i1u570_20 4712                       i1u538_21 3E58                       i1u570_21 470E  
                     i1u539_20 3E74                       i1u571_20 472A                       i1u539_21 3E70  
                     i1u571_21 4726                       i1u572_20 4744                       i1u572_21 4740  
                     i1u573_20 48E2                       i1u573_21 48DE                       i1u584_20 0034  
                     i1u584_21 0030                       i1u569_20 498A                       i1u585_20 004A  
                     i1u569_21 4986                       i1u585_21 0046                       _PIR1bits 000F9E  
                     i1u586_20 0060                       i1u586_21 005C                       i1u587_20 0076  
                     i1u587_21 0072                       _PIR2bits 000FA1                       i1u588_20 008C  
                     i1u588_21 0088                       _PIR3bits 000FA4                       _PIR4bits 000FB7  
                     i2u560_40 4430                       i2u560_41 442C                       i2u561_40 4446  
                     i2u561_41 4442                       i2u562_40 447C                       i2u562_41 4478  
                     i2u563_40 40EC                       i2u563_41 40E8                       i2u564_40 40FC  
                     i2u564_41 40F8                       i2u565_40 4122                       i2u581_40 46CC  
                     i2u565_41 411E                       i2u581_41 46C8                       i2u566_40 4132  
                     i2u582_40 46E2                       i2u566_41 412E                       i2u582_41 46DE  
                     i2u567_40 4156                       i2u583_40 46F0                       i2u567_41 4152  
                     i2u583_41 46EC                       i2u568_40 4166                       i2u568_41 4162  
                     _RCONbits 000FD0                     ?_handleADC 0001                 DisplayV@nibble 000A  
                  _LCDInitStr_ 1003                      _temporary 00DD                      _updateDAC 3E04  
                    _vfpfcnvrt 1C84                     _ADCON0bits 000FC2                     _ADCON1bits 000FC1  
            ___wmul@multiplier 0008                       _HiPriISR 0008                   ??_displayLCD 001E  
                 _isspace$2396 000E                     vfpfcnvrt@c 00A9                     vfpfcnvrt@f 00A2  
                  _INTCON2bits 000FF1                       _DisplayC 495A                       _DisplayV 3F76  
                    copy_data0 42E2                      copy_data1 4302                       _LoPriISR 0018  
             __size_of_InitLCD 00B6                       __Hrparam 0000               __size_of_Initial 0100  
                   vfprintf@ap 00AE                       __Lrparam 0000                     vfprintf@fp 00AA  
          __end_of_TMR0Handler 48FE            __end_of_TMR1Handler 4A1A                    _readCommand 35B8  
                 ?_CCP1Handler 0001             __end_of_displayLCD 49B4               __size_of___fladd 04C0  
          __end_of_TMR3Handler 4A16               __size_of___fldiv 039A               __size_of___awdiv 00C4  
             __size_of___flneg 0038               __size_of___awmod 00B0               __size_of___flmul 042A  
             __size_of___flsub 0046               __size_of___fltol 0106                     ?_updateDAC 0001  
                 ?_CCP3Handler 0001                     ?_vfpfcnvrt 0047             ___fpclassifyf@F465 0104  
                  _currentTMR3 0108                       _checkPOT 019B                     sprintf@fmt 00B2  
             __size_of_readADC 0068                       ___xxtofl 30BA                       _aliveLED 474C  
             __size_of_isdigit 0038               __size_of_isspace 0052                       __ptext10 3AD2  
                     __ptext11 102A                       __ptext20 39D4                       __ptext12 44F0  
                     __ptext21 36CA                       __ptext13 481E                       __ptext30 3C7E  
                     __ptext22 4794                       __ptext14 3D42                       __ptext31 3414  
                     __ptext23 2224                       __ptext15 48FE                       __ptext40 3F76  
                     __ptext32 4664                       __ptext24 4856                       __ptext16 47DA  
                     __ptext41 38D4                       __ptext33 488E                       __ptext25 26E4  
                     __ptext17 3BB4                       __ptext50 3E04                       __ptext42 3EC0  
                     __ptext34 4934                       __ptext26 37D0                       __ptext18 4A1A  
                     __ptext35 43BA                       __ptext27 418A                       __ptext19 2EA8  
                     __ptext52 40DA                       __ptext44 4A0E                       __ptext36 30BA  
                     __ptext28 2B0E                       __ptext53 4422                       __ptext45 4A16  
                     __ptext37 499A                       __ptext29 402A                       __ptext46 48C6  
                     __ptext38 495A                       __ptext47 4704                       __ptext39 4550  
                     __ptext48 474C                       __ptext49 497C               __size_of_isupper 0038  
                 _SSP1CON1bits 000FC6  __size_of_EUSARTCommandHandler 0068                       _contSend 0166  
             __size_of_sprintf 005A               __size_of_tolower 0060                     strcpy@dest 0008  
             __size_of_strncmp 00E2                  __size_of_atoi 01A4                  __size_of_main 009A  
                     _sendCONT 00DF                       _sendTEMP 00E0                       _sendNext 40DA  
                     _tempSend 0180                       efgtoa@fp 003B                       efgtoa@ne 0070  
                     efgtoa@pp 006E                       efgtoa@ou 0074        __size_of_sendContinuous 0016  
                DisplayV@count 000B                    ??_handleADC 004F                       isa$xinst 000000  
                     int$flags 0057                       _trashSPI 00D2                       _vfprintf 448A  
                 _SSP1STATbits 000FC7                 _vfpfcnvrt$2331 00A0                 _vfpfcnvrt$2326 009C  
               _vfpfcnvrt$2327 009E                     _INTCONbits 000FF2                       isdigit@c 0008  
                     intlevel1 0000                       intlevel2 0000                      sprintf@ap 01C2  
                     isspace@c 0008       __size_of_sendTemperature 0016                    _TMR0Handler 48C6  
                  _TMR1Handler 4A16                      strcpy@src 000A                     _RCSTA1bits 000FAB  
                 DisplayC@temp 0014                       isupper@c 0008                    _TMR3Handler 4A0E  
                    strncmp@_l 0008                      strncmp@_r 000A                    efgtoa@nmode 0080  
                  ??_updateDAC 0004                    ??_vfpfcnvrt 0098                    _temperature 00CE  
                     sprintf@f 01C4                       tolower@c 000E                       sprintf@s 00B0  
       __size_of___fpclassifyf 00FE                  _potentiometer 00CC                       strncmp@l 000F  
                     strncmp@n 000C                       strncmp@r 0011                  ___fladd@signs 0014  
                 ___fladd@aexp 0015                   ___fladd@bexp 0016  
